Archive member included to satisfy reference by file (symbol)

/opt/devkitpro/devkitARM/bin/../lib/gcc/arm-none-eabi/4.9.2/libgcc.a(_divsi3.o)
                              objs/hud_manager_class.thumb.o (__aeabi_idiv)
/opt/devkitpro/devkitARM/bin/../lib/gcc/arm-none-eabi/4.9.2/libgcc.a(_dvmd_tls.o)
                              /opt/devkitpro/devkitARM/bin/../lib/gcc/arm-none-eabi/4.9.2/libgcc.a(_divsi3.o) (__aeabi_idiv0)
/opt/devkitpro/devkitARM/bin/../lib/gcc/arm-none-eabi/4.9.2/libgcc.a(unwind-arm.o)
                              objs/active_level_manager_class.arm.o (__aeabi_unwind_cpp_pr0)
/opt/devkitpro/devkitARM/bin/../lib/gcc/arm-none-eabi/4.9.2/libgcc.a(libunwind.o)
                              /opt/devkitpro/devkitARM/bin/../lib/gcc/arm-none-eabi/4.9.2/libgcc.a(unwind-arm.o) (restore_core_regs)
/opt/devkitpro/devkitARM/bin/../lib/gcc/arm-none-eabi/4.9.2/libgcc.a(pr-support.o)
                              /opt/devkitpro/devkitARM/bin/../lib/gcc/arm-none-eabi/4.9.2/libgcc.a(unwind-arm.o) (__gnu_unwind_execute)
/opt/devkitpro/devkitARM/bin/../lib/gcc/arm-none-eabi/4.9.2/../../../../arm-none-eabi/lib/libstdc++.a(eh_arm.o)
                              objs/active_level_class.thumb.o (__cxa_end_cleanup)
/opt/devkitpro/devkitARM/bin/../lib/gcc/arm-none-eabi/4.9.2/../../../../arm-none-eabi/lib/libstdc++.a(eh_globals.o)
                              /opt/devkitpro/devkitARM/bin/../lib/gcc/arm-none-eabi/4.9.2/../../../../arm-none-eabi/lib/libstdc++.a(eh_arm.o) (__cxa_get_globals)
/opt/devkitpro/devkitARM/bin/../lib/gcc/arm-none-eabi/4.9.2/../../../../arm-none-eabi/lib/libstdc++.a(atexit_arm.o)
                              objs/active_level_class.thumb.o (__aeabi_atexit)
/opt/devkitpro/devkitARM/bin/../lib/gcc/arm-none-eabi/4.9.2/../../../../arm-none-eabi/lib/libstdc++.a(del_op.o)
                              objs/active_level_class.thumb.o (operator delete(void*))
/opt/devkitpro/devkitARM/bin/../lib/gcc/arm-none-eabi/4.9.2/../../../../arm-none-eabi/lib/libstdc++.a(si_class_type_info.o)
                              objs/active_level_class.thumb.o (vtable for __cxxabiv1::__si_class_type_info)
/opt/devkitpro/devkitARM/bin/../lib/gcc/arm-none-eabi/4.9.2/../../../../arm-none-eabi/lib/libstdc++.a(eh_exception.o)
                              /opt/devkitpro/devkitARM/bin/../lib/gcc/arm-none-eabi/4.9.2/../../../../arm-none-eabi/lib/libstdc++.a(eh_arm.o) (typeinfo for __cxxabiv1::__forced_unwind)
/opt/devkitpro/devkitARM/bin/../lib/gcc/arm-none-eabi/4.9.2/../../../../arm-none-eabi/lib/libstdc++.a(eh_terminate.o)
                              /opt/devkitpro/devkitARM/bin/../lib/gcc/arm-none-eabi/4.9.2/../../../../arm-none-eabi/lib/libstdc++.a(eh_arm.o) (std::terminate())
/opt/devkitpro/devkitARM/bin/../lib/gcc/arm-none-eabi/4.9.2/../../../../arm-none-eabi/lib/libstdc++.a(tinfo.o)
                              /opt/devkitpro/devkitARM/bin/../lib/gcc/arm-none-eabi/4.9.2/../../../../arm-none-eabi/lib/libstdc++.a(si_class_type_info.o) (std::type_info::__is_pointer_p() const)
/opt/devkitpro/devkitARM/bin/../lib/gcc/arm-none-eabi/4.9.2/../../../../arm-none-eabi/lib/libstdc++.a(eh_call.o)
                              /opt/devkitpro/devkitARM/bin/../lib/gcc/arm-none-eabi/4.9.2/../../../../arm-none-eabi/lib/libstdc++.a(eh_terminate.o) (__cxa_call_unexpected)
/opt/devkitpro/devkitARM/bin/../lib/gcc/arm-none-eabi/4.9.2/../../../../arm-none-eabi/lib/libstdc++.a(new_op.o)
                              objs/block_stuff.thumb.o (operator new(unsigned int))
/opt/devkitpro/devkitARM/bin/../lib/gcc/arm-none-eabi/4.9.2/../../../../arm-none-eabi/lib/libstdc++.a(new_handler.o)
                              /opt/devkitpro/devkitARM/bin/../lib/gcc/arm-none-eabi/4.9.2/../../../../arm-none-eabi/lib/libstdc++.a(new_op.o) (std::get_new_handler())
/opt/devkitpro/devkitARM/bin/../lib/gcc/arm-none-eabi/4.9.2/../../../../arm-none-eabi/lib/libstdc++.a(eh_term_handler.o)
                              /opt/devkitpro/devkitARM/bin/../lib/gcc/arm-none-eabi/4.9.2/../../../../arm-none-eabi/lib/libstdc++.a(eh_terminate.o) (__cxxabiv1::__terminate_handler)
/opt/devkitpro/devkitARM/bin/../lib/gcc/arm-none-eabi/4.9.2/../../../../arm-none-eabi/lib/libstdc++.a(eh_personality.o)
                              objs/active_level_class.thumb.o (__gxx_personality_v0)
/opt/devkitpro/devkitARM/bin/../lib/gcc/arm-none-eabi/4.9.2/../../../../arm-none-eabi/lib/libstdc++.a(class_type_info.o)
                              /opt/devkitpro/devkitARM/bin/../lib/gcc/arm-none-eabi/4.9.2/../../../../arm-none-eabi/lib/libstdc++.a(si_class_type_info.o) (__cxxabiv1::__class_type_info::__do_upcast(__cxxabiv1::__class_type_info const*, void**) const)
/opt/devkitpro/devkitARM/bin/../lib/gcc/arm-none-eabi/4.9.2/../../../../arm-none-eabi/lib/libstdc++.a(bad_alloc.o)
                              /opt/devkitpro/devkitARM/bin/../lib/gcc/arm-none-eabi/4.9.2/../../../../arm-none-eabi/lib/libstdc++.a(new_op.o) (std::bad_alloc::~bad_alloc())
/opt/devkitpro/devkitARM/bin/../lib/gcc/arm-none-eabi/4.9.2/../../../../arm-none-eabi/lib/libstdc++.a(eh_throw.o)
                              /opt/devkitpro/devkitARM/bin/../lib/gcc/arm-none-eabi/4.9.2/../../../../arm-none-eabi/lib/libstdc++.a(eh_call.o) (__cxa_throw)
/opt/devkitpro/devkitARM/bin/../lib/gcc/arm-none-eabi/4.9.2/../../../../arm-none-eabi/lib/libstdc++.a(vterminate.o)
                              /opt/devkitpro/devkitARM/bin/../lib/gcc/arm-none-eabi/4.9.2/../../../../arm-none-eabi/lib/libstdc++.a(eh_term_handler.o) (__gnu_cxx::__verbose_terminate_handler())
/opt/devkitpro/devkitARM/bin/../lib/gcc/arm-none-eabi/4.9.2/../../../../arm-none-eabi/lib/libstdc++.a(eh_catch.o)
                              /opt/devkitpro/devkitARM/bin/../lib/gcc/arm-none-eabi/4.9.2/../../../../arm-none-eabi/lib/libstdc++.a(eh_terminate.o) (__cxa_begin_catch)
/opt/devkitpro/devkitARM/bin/../lib/gcc/arm-none-eabi/4.9.2/../../../../arm-none-eabi/lib/libstdc++.a(cp-demangle.o)
                              /opt/devkitpro/devkitARM/bin/../lib/gcc/arm-none-eabi/4.9.2/../../../../arm-none-eabi/lib/libstdc++.a(vterminate.o) (__cxa_demangle)
/opt/devkitpro/devkitARM/bin/../lib/gcc/arm-none-eabi/4.9.2/../../../../arm-none-eabi/lib/libstdc++.a(pure.o)
                              /opt/devkitpro/devkitARM/bin/../lib/gcc/arm-none-eabi/4.9.2/../../../../arm-none-eabi/lib/libstdc++.a(eh_exception.o) (__cxa_pure_virtual)
/opt/devkitpro/devkitARM/bin/../lib/gcc/arm-none-eabi/4.9.2/../../../../arm-none-eabi/lib/libstdc++.a(eh_type.o)
                              /opt/devkitpro/devkitARM/bin/../lib/gcc/arm-none-eabi/4.9.2/../../../../arm-none-eabi/lib/libstdc++.a(vterminate.o) (__cxa_current_exception_type)
/opt/devkitpro/devkitARM/bin/../lib/gcc/arm-none-eabi/4.9.2/../../../../arm-none-eabi/lib/libstdc++.a(eh_alloc.o)
                              /opt/devkitpro/devkitARM/bin/../lib/gcc/arm-none-eabi/4.9.2/../../../../arm-none-eabi/lib/libstdc++.a(eh_call.o) (__cxa_allocate_exception)
/opt/devkitpro/devkitARM/bin/../lib/gcc/arm-none-eabi/4.9.2/../../../../arm-none-eabi/lib/libstdc++.a(eh_unex_handler.o)
                              /opt/devkitpro/devkitARM/bin/../lib/gcc/arm-none-eabi/4.9.2/../../../../arm-none-eabi/lib/libstdc++.a(eh_terminate.o) (__cxxabiv1::__unexpected_handler)
./maxmod/lib/libmm.a(mm_main.o)
                              objs/game_manager_class.thumb.o (mmSetVBlankHandler)
./maxmod/lib/libmm.a(mm_mas.o)
                              ./maxmod/lib/libmm.a(mm_main.o) (mmLayerMain)
./maxmod/lib/libmm.a(mm_init_default.o)
                              objs/game_manager_class.thumb.o (mmInitDefault)
./maxmod/lib/libmm.a(mm_mixer_gba.o)
                              objs/game_manager_class.thumb.o (mmVBlank)
./maxmod/lib/libmm.a(mm_effect.o)
                              ./maxmod/lib/libmm.a(mm_main.o) (mmResetEffects)
./maxmod/lib/libmm.a(mm_mas_arm.o)
                              ./maxmod/lib/libmm.a(mm_mas.o) (mmAllocChannel)
/opt/devkitpro/devkitARM/bin/../lib/gcc/arm-none-eabi/4.9.2/../../../../arm-none-eabi/lib/libc.a(lib_a-abort.o)
                              /opt/devkitpro/devkitARM/bin/../lib/gcc/arm-none-eabi/4.9.2/libgcc.a(unwind-arm.o) (abort)
/opt/devkitpro/devkitARM/bin/../lib/gcc/arm-none-eabi/4.9.2/../../../../arm-none-eabi/lib/libc.a(lib_a-atexit.o)
                              /opt/devkitpro/devkitARM/bin/../lib/gcc/arm-none-eabi/4.9.2/../../../../arm-none-eabi/lib/crt0.o (atexit)
/opt/devkitpro/devkitARM/bin/../lib/gcc/arm-none-eabi/4.9.2/../../../../arm-none-eabi/lib/libc.a(lib_a-cxa_atexit.o)
                              /opt/devkitpro/devkitARM/bin/../lib/gcc/arm-none-eabi/4.9.2/../../../../arm-none-eabi/lib/libstdc++.a(atexit_arm.o) (__cxa_atexit)
/opt/devkitpro/devkitARM/bin/../lib/gcc/arm-none-eabi/4.9.2/../../../../arm-none-eabi/lib/libc.a(lib_a-exit.o)
                              /opt/devkitpro/devkitARM/bin/../lib/gcc/arm-none-eabi/4.9.2/../../../../arm-none-eabi/lib/crt0.o (exit)
/opt/devkitpro/devkitARM/bin/../lib/gcc/arm-none-eabi/4.9.2/../../../../arm-none-eabi/lib/libc.a(lib_a-fini.o)
                              /opt/devkitpro/devkitARM/bin/../lib/gcc/arm-none-eabi/4.9.2/../../../../arm-none-eabi/lib/crt0.o (__libc_fini_array)
/opt/devkitpro/devkitARM/bin/../lib/gcc/arm-none-eabi/4.9.2/../../../../arm-none-eabi/lib/libc.a(lib_a-fputc.o)
                              /opt/devkitpro/devkitARM/bin/../lib/gcc/arm-none-eabi/4.9.2/../../../../arm-none-eabi/lib/libstdc++.a(vterminate.o) (fputc)
/opt/devkitpro/devkitARM/bin/../lib/gcc/arm-none-eabi/4.9.2/../../../../arm-none-eabi/lib/libc.a(lib_a-fputs.o)
                              /opt/devkitpro/devkitARM/bin/../lib/gcc/arm-none-eabi/4.9.2/../../../../arm-none-eabi/lib/libstdc++.a(vterminate.o) (fputs)
/opt/devkitpro/devkitARM/bin/../lib/gcc/arm-none-eabi/4.9.2/../../../../arm-none-eabi/lib/libc.a(lib_a-fvwrite.o)
                              /opt/devkitpro/devkitARM/bin/../lib/gcc/arm-none-eabi/4.9.2/../../../../arm-none-eabi/lib/libc.a(lib_a-fputs.o) (__sfvwrite_r)
/opt/devkitpro/devkitARM/bin/../lib/gcc/arm-none-eabi/4.9.2/../../../../arm-none-eabi/lib/libc.a(lib_a-fwrite.o)
                              /opt/devkitpro/devkitARM/bin/../lib/gcc/arm-none-eabi/4.9.2/../../../../arm-none-eabi/lib/libstdc++.a(vterminate.o) (fwrite)
/opt/devkitpro/devkitARM/bin/../lib/gcc/arm-none-eabi/4.9.2/../../../../arm-none-eabi/lib/libc.a(lib_a-impure.o)
                              /opt/devkitpro/devkitARM/bin/../lib/gcc/arm-none-eabi/4.9.2/../../../../arm-none-eabi/lib/libc.a(lib_a-exit.o) (_global_impure_ptr)
/opt/devkitpro/devkitARM/bin/../lib/gcc/arm-none-eabi/4.9.2/../../../../arm-none-eabi/lib/libc.a(lib_a-init.o)
                              /opt/devkitpro/devkitARM/bin/../lib/gcc/arm-none-eabi/4.9.2/../../../../arm-none-eabi/lib/crt0.o (__libc_init_array)
/opt/devkitpro/devkitARM/bin/../lib/gcc/arm-none-eabi/4.9.2/../../../../arm-none-eabi/lib/libc.a(lib_a-malloc.o)
                              /opt/devkitpro/devkitARM/bin/../lib/gcc/arm-none-eabi/4.9.2/../../../../arm-none-eabi/lib/libstdc++.a(new_op.o) (malloc)
/opt/devkitpro/devkitARM/bin/../lib/gcc/arm-none-eabi/4.9.2/../../../../arm-none-eabi/lib/libc.a(lib_a-mallocr.o)
                              /opt/devkitpro/devkitARM/bin/../lib/gcc/arm-none-eabi/4.9.2/../../../../arm-none-eabi/lib/libc.a(lib_a-fvwrite.o) (_malloc_r)
/opt/devkitpro/devkitARM/bin/../lib/gcc/arm-none-eabi/4.9.2/../../../../arm-none-eabi/lib/libc.a(lib_a-memchr.o)
                              /opt/devkitpro/devkitARM/bin/../lib/gcc/arm-none-eabi/4.9.2/../../../../arm-none-eabi/lib/libc.a(lib_a-fvwrite.o) (memchr)
/opt/devkitpro/devkitARM/bin/../lib/gcc/arm-none-eabi/4.9.2/../../../../arm-none-eabi/lib/libc.a(lib_a-memcmp.o)
                              /opt/devkitpro/devkitARM/bin/../lib/gcc/arm-none-eabi/4.9.2/../../../../arm-none-eabi/lib/libstdc++.a(cp-demangle.o) (memcmp)
/opt/devkitpro/devkitARM/bin/../lib/gcc/arm-none-eabi/4.9.2/../../../../arm-none-eabi/lib/libc.a(lib_a-memcpy.o)
                              /opt/devkitpro/devkitARM/bin/../lib/gcc/arm-none-eabi/4.9.2/libgcc.a(unwind-arm.o) (memcpy)
/opt/devkitpro/devkitARM/bin/../lib/gcc/arm-none-eabi/4.9.2/../../../../arm-none-eabi/lib/libc.a(lib_a-memmove.o)
                              /opt/devkitpro/devkitARM/bin/../lib/gcc/arm-none-eabi/4.9.2/../../../../arm-none-eabi/lib/libc.a(lib_a-fvwrite.o) (memmove)
/opt/devkitpro/devkitARM/bin/../lib/gcc/arm-none-eabi/4.9.2/../../../../arm-none-eabi/lib/libc.a(lib_a-memset.o)
                              /opt/devkitpro/devkitARM/bin/../lib/gcc/arm-none-eabi/4.9.2/../../../../arm-none-eabi/lib/crt0.o (memset)
/opt/devkitpro/devkitARM/bin/../lib/gcc/arm-none-eabi/4.9.2/../../../../arm-none-eabi/lib/libc.a(lib_a-mlock.o)
                              /opt/devkitpro/devkitARM/bin/../lib/gcc/arm-none-eabi/4.9.2/../../../../arm-none-eabi/lib/libc.a(lib_a-mallocr.o) (__malloc_lock)
/opt/devkitpro/devkitARM/bin/../lib/gcc/arm-none-eabi/4.9.2/../../../../arm-none-eabi/lib/libc.a(lib_a-putc.o)
                              /opt/devkitpro/devkitARM/bin/../lib/gcc/arm-none-eabi/4.9.2/../../../../arm-none-eabi/lib/libc.a(lib_a-fputc.o) (_putc_r)
/opt/devkitpro/devkitARM/bin/../lib/gcc/arm-none-eabi/4.9.2/../../../../arm-none-eabi/lib/libc.a(lib_a-realloc.o)
                              /opt/devkitpro/devkitARM/bin/../lib/gcc/arm-none-eabi/4.9.2/../../../../arm-none-eabi/lib/libstdc++.a(cp-demangle.o) (realloc)
/opt/devkitpro/devkitARM/bin/../lib/gcc/arm-none-eabi/4.9.2/../../../../arm-none-eabi/lib/libc.a(lib_a-reallocr.o)
                              /opt/devkitpro/devkitARM/bin/../lib/gcc/arm-none-eabi/4.9.2/../../../../arm-none-eabi/lib/libc.a(lib_a-fvwrite.o) (_realloc_r)
/opt/devkitpro/devkitARM/bin/../lib/gcc/arm-none-eabi/4.9.2/../../../../arm-none-eabi/lib/libc.a(lib_a-signal.o)
                              /opt/devkitpro/devkitARM/bin/../lib/gcc/arm-none-eabi/4.9.2/../../../../arm-none-eabi/lib/libc.a(lib_a-abort.o) (raise)
/opt/devkitpro/devkitARM/bin/../lib/gcc/arm-none-eabi/4.9.2/../../../../arm-none-eabi/lib/libc.a(lib_a-sprintf.o)
                              /opt/devkitpro/devkitARM/bin/../lib/gcc/arm-none-eabi/4.9.2/../../../../arm-none-eabi/lib/libstdc++.a(cp-demangle.o) (sprintf)
/opt/devkitpro/devkitARM/bin/../lib/gcc/arm-none-eabi/4.9.2/../../../../arm-none-eabi/lib/libc.a(lib_a-strcat.o)
                              objs/hud_manager_class.thumb.o (strcat)
/opt/devkitpro/devkitARM/bin/../lib/gcc/arm-none-eabi/4.9.2/../../../../arm-none-eabi/lib/libc.a(lib_a-strcmp.o)
                              /opt/devkitpro/devkitARM/bin/../lib/gcc/arm-none-eabi/4.9.2/../../../../arm-none-eabi/lib/libstdc++.a(tinfo.o) (strcmp)
/opt/devkitpro/devkitARM/bin/../lib/gcc/arm-none-eabi/4.9.2/../../../../arm-none-eabi/lib/libc.a(lib_a-strcpy.o)
                              objs/hud_manager_class.thumb.o (strcpy)
/opt/devkitpro/devkitARM/bin/../lib/gcc/arm-none-eabi/4.9.2/../../../../arm-none-eabi/lib/libc.a(lib_a-strlen.o)
                              /opt/devkitpro/devkitARM/bin/../lib/gcc/arm-none-eabi/4.9.2/../../../../arm-none-eabi/lib/libstdc++.a(cp-demangle.o) (strlen)
/opt/devkitpro/devkitARM/bin/../lib/gcc/arm-none-eabi/4.9.2/../../../../arm-none-eabi/lib/libc.a(lib_a-strncmp.o)
                              /opt/devkitpro/devkitARM/bin/../lib/gcc/arm-none-eabi/4.9.2/../../../../arm-none-eabi/lib/libstdc++.a(cp-demangle.o) (strncmp)
/opt/devkitpro/devkitARM/bin/../lib/gcc/arm-none-eabi/4.9.2/../../../../arm-none-eabi/lib/libc.a(lib_a-svfprintf.o)
                              /opt/devkitpro/devkitARM/bin/../lib/gcc/arm-none-eabi/4.9.2/../../../../arm-none-eabi/lib/libc.a(lib_a-sprintf.o) (_svfprintf_r)
/opt/devkitpro/devkitARM/bin/../lib/gcc/arm-none-eabi/4.9.2/../../../../arm-none-eabi/lib/libc.a(lib_a-syswrite.o)
                              /opt/devkitpro/devkitARM/bin/../lib/gcc/arm-none-eabi/4.9.2/../../../../arm-none-eabi/lib/libstdc++.a(pure.o) (write)
/opt/devkitpro/devkitARM/bin/../lib/gcc/arm-none-eabi/4.9.2/../../../../arm-none-eabi/lib/libc.a(lib_a-wbuf.o)
                              /opt/devkitpro/devkitARM/bin/../lib/gcc/arm-none-eabi/4.9.2/../../../../arm-none-eabi/lib/libc.a(lib_a-putc.o) (__swbuf_r)
/opt/devkitpro/devkitARM/bin/../lib/gcc/arm-none-eabi/4.9.2/../../../../arm-none-eabi/lib/libc.a(lib_a-wcrtomb.o)
                              /opt/devkitpro/devkitARM/bin/../lib/gcc/arm-none-eabi/4.9.2/../../../../arm-none-eabi/lib/libc.a(lib_a-svfprintf.o) (_wcrtomb_r)
/opt/devkitpro/devkitARM/bin/../lib/gcc/arm-none-eabi/4.9.2/../../../../arm-none-eabi/lib/libc.a(lib_a-wcsrtombs.o)
                              /opt/devkitpro/devkitARM/bin/../lib/gcc/arm-none-eabi/4.9.2/../../../../arm-none-eabi/lib/libc.a(lib_a-svfprintf.o) (_wcsrtombs_r)
/opt/devkitpro/devkitARM/bin/../lib/gcc/arm-none-eabi/4.9.2/../../../../arm-none-eabi/lib/libc.a(lib_a-wctomb_r.o)
                              /opt/devkitpro/devkitARM/bin/../lib/gcc/arm-none-eabi/4.9.2/../../../../arm-none-eabi/lib/libc.a(lib_a-wcrtomb.o) (__wctomb)
/opt/devkitpro/devkitARM/bin/../lib/gcc/arm-none-eabi/4.9.2/../../../../arm-none-eabi/lib/libc.a(lib_a-wsetup.o)
                              /opt/devkitpro/devkitARM/bin/../lib/gcc/arm-none-eabi/4.9.2/../../../../arm-none-eabi/lib/libc.a(lib_a-fvwrite.o) (__swsetup_r)
/opt/devkitpro/devkitARM/bin/../lib/gcc/arm-none-eabi/4.9.2/../../../../arm-none-eabi/lib/libc.a(lib_a-__atexit.o)
                              /opt/devkitpro/devkitARM/bin/../lib/gcc/arm-none-eabi/4.9.2/../../../../arm-none-eabi/lib/libc.a(lib_a-atexit.o) (__register_exitproc)
/opt/devkitpro/devkitARM/bin/../lib/gcc/arm-none-eabi/4.9.2/../../../../arm-none-eabi/lib/libc.a(lib_a-__call_atexit.o)
                              /opt/devkitpro/devkitARM/bin/../lib/gcc/arm-none-eabi/4.9.2/../../../../arm-none-eabi/lib/libc.a(lib_a-exit.o) (__call_exitprocs)
/opt/devkitpro/devkitARM/bin/../lib/gcc/arm-none-eabi/4.9.2/../../../../arm-none-eabi/lib/libc.a(lib_a-dtoa.o)
                              /opt/devkitpro/devkitARM/bin/../lib/gcc/arm-none-eabi/4.9.2/../../../../arm-none-eabi/lib/libc.a(lib_a-svfprintf.o) (_dtoa_r)
/opt/devkitpro/devkitARM/bin/../lib/gcc/arm-none-eabi/4.9.2/../../../../arm-none-eabi/lib/libc.a(lib_a-fflush.o)
                              /opt/devkitpro/devkitARM/bin/../lib/gcc/arm-none-eabi/4.9.2/../../../../arm-none-eabi/lib/libc.a(lib_a-fvwrite.o) (_fflush_r)
/opt/devkitpro/devkitARM/bin/../lib/gcc/arm-none-eabi/4.9.2/../../../../arm-none-eabi/lib/libc.a(lib_a-findfp.o)
                              /opt/devkitpro/devkitARM/bin/../lib/gcc/arm-none-eabi/4.9.2/../../../../arm-none-eabi/lib/libc.a(lib_a-fputc.o) (__sinit)
/opt/devkitpro/devkitARM/bin/../lib/gcc/arm-none-eabi/4.9.2/../../../../arm-none-eabi/lib/libc.a(lib_a-freer.o)
                              /opt/devkitpro/devkitARM/bin/../lib/gcc/arm-none-eabi/4.9.2/../../../../arm-none-eabi/lib/libc.a(lib_a-fvwrite.o) (_free_r)
/opt/devkitpro/devkitARM/bin/../lib/gcc/arm-none-eabi/4.9.2/../../../../arm-none-eabi/lib/libc.a(lib_a-fwalk.o)
                              /opt/devkitpro/devkitARM/bin/../lib/gcc/arm-none-eabi/4.9.2/../../../../arm-none-eabi/lib/libc.a(lib_a-findfp.o) (_fwalk)
/opt/devkitpro/devkitARM/bin/../lib/gcc/arm-none-eabi/4.9.2/../../../../arm-none-eabi/lib/libc.a(lib_a-locale.o)
                              /opt/devkitpro/devkitARM/bin/../lib/gcc/arm-none-eabi/4.9.2/../../../../arm-none-eabi/lib/libc.a(lib_a-svfprintf.o) (__locale_charset)
/opt/devkitpro/devkitARM/bin/../lib/gcc/arm-none-eabi/4.9.2/../../../../arm-none-eabi/lib/libc.a(lib_a-makebuf.o)
                              /opt/devkitpro/devkitARM/bin/../lib/gcc/arm-none-eabi/4.9.2/../../../../arm-none-eabi/lib/libc.a(lib_a-wsetup.o) (__smakebuf_r)
/opt/devkitpro/devkitARM/bin/../lib/gcc/arm-none-eabi/4.9.2/../../../../arm-none-eabi/lib/libc.a(lib_a-mbtowc_r.o)
                              /opt/devkitpro/devkitARM/bin/../lib/gcc/arm-none-eabi/4.9.2/../../../../arm-none-eabi/lib/libc.a(lib_a-locale.o) (__utf8_mbtowc)
/opt/devkitpro/devkitARM/bin/../lib/gcc/arm-none-eabi/4.9.2/../../../../arm-none-eabi/lib/libc.a(lib_a-mprec.o)
                              /opt/devkitpro/devkitARM/bin/../lib/gcc/arm-none-eabi/4.9.2/../../../../arm-none-eabi/lib/libc.a(lib_a-dtoa.o) (_Balloc)
/opt/devkitpro/devkitARM/bin/../lib/gcc/arm-none-eabi/4.9.2/../../../../arm-none-eabi/lib/libc.a(lib_a-s_fpclassify.o)
                              /opt/devkitpro/devkitARM/bin/../lib/gcc/arm-none-eabi/4.9.2/../../../../arm-none-eabi/lib/libc.a(lib_a-svfprintf.o) (__fpclassifyd)
/opt/devkitpro/devkitARM/bin/../lib/gcc/arm-none-eabi/4.9.2/../../../../arm-none-eabi/lib/libc.a(lib_a-s_frexp.o)
                              /opt/devkitpro/devkitARM/bin/../lib/gcc/arm-none-eabi/4.9.2/../../../../arm-none-eabi/lib/libc.a(lib_a-svfprintf.o) (frexp)
/opt/devkitpro/devkitARM/bin/../lib/gcc/arm-none-eabi/4.9.2/../../../../arm-none-eabi/lib/libc.a(lib_a-stdio.o)
                              /opt/devkitpro/devkitARM/bin/../lib/gcc/arm-none-eabi/4.9.2/../../../../arm-none-eabi/lib/libc.a(lib_a-findfp.o) (__sread)
/opt/devkitpro/devkitARM/bin/../lib/gcc/arm-none-eabi/4.9.2/../../../../arm-none-eabi/lib/libc.a(lib_a-strcasecmp.o)
                              /opt/devkitpro/devkitARM/bin/../lib/gcc/arm-none-eabi/4.9.2/../../../../arm-none-eabi/lib/libc.a(lib_a-locale.o) (strcasecmp)
/opt/devkitpro/devkitARM/bin/../lib/gcc/arm-none-eabi/4.9.2/../../../../arm-none-eabi/lib/libc.a(lib_a-strchr.o)
                              /opt/devkitpro/devkitARM/bin/../lib/gcc/arm-none-eabi/4.9.2/../../../../arm-none-eabi/lib/libc.a(lib_a-locale.o) (strchr)
/opt/devkitpro/devkitARM/bin/../lib/gcc/arm-none-eabi/4.9.2/../../../../arm-none-eabi/lib/libc.a(lib_a-strlcpy.o)
                              /opt/devkitpro/devkitARM/bin/../lib/gcc/arm-none-eabi/4.9.2/../../../../arm-none-eabi/lib/libc.a(lib_a-locale.o) (strlcpy)
/opt/devkitpro/devkitARM/bin/../lib/gcc/arm-none-eabi/4.9.2/../../../../arm-none-eabi/lib/libc.a(lib_a-strncasecmp.o)
                              /opt/devkitpro/devkitARM/bin/../lib/gcc/arm-none-eabi/4.9.2/../../../../arm-none-eabi/lib/libc.a(lib_a-locale.o) (strncasecmp)
/opt/devkitpro/devkitARM/bin/../lib/gcc/arm-none-eabi/4.9.2/../../../../arm-none-eabi/lib/libc.a(lib_a-strncpy.o)
                              /opt/devkitpro/devkitARM/bin/../lib/gcc/arm-none-eabi/4.9.2/../../../../arm-none-eabi/lib/libc.a(lib_a-svfprintf.o) (strncpy)
/opt/devkitpro/devkitARM/bin/../lib/gcc/arm-none-eabi/4.9.2/../../../../arm-none-eabi/lib/libc.a(lib_a-strtol.o)
                              /opt/devkitpro/devkitARM/bin/../lib/gcc/arm-none-eabi/4.9.2/../../../../arm-none-eabi/lib/libc.a(lib_a-locale.o) (_strtol_r)
/opt/devkitpro/devkitARM/bin/../lib/gcc/arm-none-eabi/4.9.2/../../../../arm-none-eabi/lib/libc.a(lib_a-svfiprintf.o)
                              /opt/devkitpro/devkitARM/bin/../lib/gcc/arm-none-eabi/4.9.2/../../../../arm-none-eabi/lib/libc.a(lib_a-svfprintf.o) (__ssprint_r)
/opt/devkitpro/devkitARM/bin/../lib/gcc/arm-none-eabi/4.9.2/../../../../arm-none-eabi/lib/libc.a(lib_a-wcsnrtombs.o)
                              /opt/devkitpro/devkitARM/bin/../lib/gcc/arm-none-eabi/4.9.2/../../../../arm-none-eabi/lib/libc.a(lib_a-wcsrtombs.o) (_wcsnrtombs_r)
/opt/devkitpro/devkitARM/bin/../lib/gcc/arm-none-eabi/4.9.2/../../../../arm-none-eabi/lib/libc.a(lib_a-callocr.o)
                              /opt/devkitpro/devkitARM/bin/../lib/gcc/arm-none-eabi/4.9.2/../../../../arm-none-eabi/lib/libc.a(lib_a-mprec.o) (_calloc_r)
/opt/devkitpro/devkitARM/bin/../lib/gcc/arm-none-eabi/4.9.2/../../../../arm-none-eabi/lib/libc.a(lib_a-ctype_.o)
                              /opt/devkitpro/devkitARM/bin/../lib/gcc/arm-none-eabi/4.9.2/../../../../arm-none-eabi/lib/libc.a(lib_a-locale.o) (__set_ctype)
/opt/devkitpro/devkitARM/bin/../lib/gcc/arm-none-eabi/4.9.2/../../../../arm-none-eabi/lib/libc.a(lib_a-fclose.o)
                              /opt/devkitpro/devkitARM/bin/../lib/gcc/arm-none-eabi/4.9.2/../../../../arm-none-eabi/lib/libc.a(lib_a-findfp.o) (_fclose_r)
/opt/devkitpro/devkitARM/bin/../lib/gcc/arm-none-eabi/4.9.2/../../../../arm-none-eabi/lib/libc.a(lib_a-getenv_r.o)
                              /opt/devkitpro/devkitARM/bin/../lib/gcc/arm-none-eabi/4.9.2/../../../../arm-none-eabi/lib/libc.a(lib_a-locale.o) (_getenv_r)
/opt/devkitpro/devkitARM/bin/../lib/gcc/arm-none-eabi/4.9.2/../../../../arm-none-eabi/lib/libc.a(lib_a-environ.o)
                              /opt/devkitpro/devkitARM/bin/../lib/gcc/arm-none-eabi/4.9.2/../../../../arm-none-eabi/lib/libc.a(lib_a-getenv_r.o) (environ)
/opt/devkitpro/devkitARM/bin/../lib/gcc/arm-none-eabi/4.9.2/../../../../arm-none-eabi/lib/libc.a(lib_a-envlock.o)
                              /opt/devkitpro/devkitARM/bin/../lib/gcc/arm-none-eabi/4.9.2/../../../../arm-none-eabi/lib/libc.a(lib_a-getenv_r.o) (__env_lock)
/opt/devkitpro/devkitARM/bin/../lib/gcc/arm-none-eabi/4.9.2/libgcc.a(_udivsi3.o)
                              /opt/devkitpro/devkitARM/bin/../lib/gcc/arm-none-eabi/4.9.2/../../../../arm-none-eabi/lib/libc.a(lib_a-fwrite.o) (__aeabi_uidiv)
/opt/devkitpro/devkitARM/bin/../lib/gcc/arm-none-eabi/4.9.2/libgcc.a(_call_via_rX.o)
                              ./maxmod/lib/libmm.a(mm_main.o) (_call_via_r1)
/opt/devkitpro/devkitARM/bin/../lib/gcc/arm-none-eabi/4.9.2/libgcc.a(_arm_addsubdf3.o)
                              /opt/devkitpro/devkitARM/bin/../lib/gcc/arm-none-eabi/4.9.2/../../../../arm-none-eabi/lib/libc.a(lib_a-svfprintf.o) (__aeabi_dsub)
/opt/devkitpro/devkitARM/bin/../lib/gcc/arm-none-eabi/4.9.2/libgcc.a(_arm_muldivdf3.o)
                              /opt/devkitpro/devkitARM/bin/../lib/gcc/arm-none-eabi/4.9.2/../../../../arm-none-eabi/lib/libc.a(lib_a-svfprintf.o) (__aeabi_dmul)
/opt/devkitpro/devkitARM/bin/../lib/gcc/arm-none-eabi/4.9.2/libgcc.a(_arm_cmpdf2.o)
                              /opt/devkitpro/devkitARM/bin/../lib/gcc/arm-none-eabi/4.9.2/../../../../arm-none-eabi/lib/libc.a(lib_a-svfprintf.o) (__aeabi_dcmpeq)
/opt/devkitpro/devkitARM/bin/../lib/gcc/arm-none-eabi/4.9.2/libgcc.a(_arm_fixdfsi.o)
                              /opt/devkitpro/devkitARM/bin/../lib/gcc/arm-none-eabi/4.9.2/../../../../arm-none-eabi/lib/libc.a(lib_a-svfprintf.o) (__aeabi_d2iz)
/opt/devkitpro/devkitARM/bin/../lib/gcc/arm-none-eabi/4.9.2/libgcc.a(_aeabi_uldivmod.o)
                              /opt/devkitpro/devkitARM/bin/../lib/gcc/arm-none-eabi/4.9.2/../../../../arm-none-eabi/lib/libc.a(lib_a-svfprintf.o) (__aeabi_uldivmod)
/opt/devkitpro/devkitARM/bin/../lib/gcc/arm-none-eabi/4.9.2/libgcc.a(bpabi.o)
                              /opt/devkitpro/devkitARM/bin/../lib/gcc/arm-none-eabi/4.9.2/libgcc.a(_aeabi_uldivmod.o) (__gnu_uldivmod_helper)
/opt/devkitpro/devkitARM/bin/../lib/gcc/arm-none-eabi/4.9.2/libgcc.a(_divdi3.o)
                              /opt/devkitpro/devkitARM/bin/../lib/gcc/arm-none-eabi/4.9.2/libgcc.a(bpabi.o) (__divdi3)
/opt/devkitpro/devkitARM/bin/../lib/gcc/arm-none-eabi/4.9.2/libgcc.a(_udivdi3.o)
                              /opt/devkitpro/devkitARM/bin/../lib/gcc/arm-none-eabi/4.9.2/libgcc.a(bpabi.o) (__udivdi3)
/opt/devkitpro/devkitARM/bin/../lib/gcc/arm-none-eabi/4.9.2/libgcc.a(_clzdi2.o)
                              /opt/devkitpro/devkitARM/bin/../lib/gcc/arm-none-eabi/4.9.2/libgcc.a(_divdi3.o) (__clzdi2)
/opt/devkitpro/devkitARM/bin/../lib/gcc/arm-none-eabi/4.9.2/libgcc.a(_clzsi2.o)
                              /opt/devkitpro/devkitARM/bin/../lib/gcc/arm-none-eabi/4.9.2/libgcc.a(_clzdi2.o) (__clzsi2)
/opt/devkitpro/devkitARM/bin/../lib/gcc/arm-none-eabi/4.9.2/../../../../arm-none-eabi/lib/libsysbase.a(close.o)
                              /opt/devkitpro/devkitARM/bin/../lib/gcc/arm-none-eabi/4.9.2/../../../../arm-none-eabi/lib/libc.a(lib_a-stdio.o) (_close_r)
/opt/devkitpro/devkitARM/bin/../lib/gcc/arm-none-eabi/4.9.2/../../../../arm-none-eabi/lib/libsysbase.a(fstat.o)
                              /opt/devkitpro/devkitARM/bin/../lib/gcc/arm-none-eabi/4.9.2/../../../../arm-none-eabi/lib/libc.a(lib_a-makebuf.o) (_fstat_r)
/opt/devkitpro/devkitARM/bin/../lib/gcc/arm-none-eabi/4.9.2/../../../../arm-none-eabi/lib/libsysbase.a(getpid.o)
                              /opt/devkitpro/devkitARM/bin/../lib/gcc/arm-none-eabi/4.9.2/../../../../arm-none-eabi/lib/libc.a(lib_a-signal.o) (_getpid_r)
/opt/devkitpro/devkitARM/bin/../lib/gcc/arm-none-eabi/4.9.2/../../../../arm-none-eabi/lib/libsysbase.a(isatty.o)
                              /opt/devkitpro/devkitARM/bin/../lib/gcc/arm-none-eabi/4.9.2/../../../../arm-none-eabi/lib/libc.a(lib_a-makebuf.o) (_isatty_r)
/opt/devkitpro/devkitARM/bin/../lib/gcc/arm-none-eabi/4.9.2/../../../../arm-none-eabi/lib/libsysbase.a(kill.o)
                              /opt/devkitpro/devkitARM/bin/../lib/gcc/arm-none-eabi/4.9.2/../../../../arm-none-eabi/lib/libc.a(lib_a-signal.o) (_kill_r)
/opt/devkitpro/devkitARM/bin/../lib/gcc/arm-none-eabi/4.9.2/../../../../arm-none-eabi/lib/libsysbase.a(lseek.o)
                              /opt/devkitpro/devkitARM/bin/../lib/gcc/arm-none-eabi/4.9.2/../../../../arm-none-eabi/lib/libc.a(lib_a-stdio.o) (_lseek_r)
/opt/devkitpro/devkitARM/bin/../lib/gcc/arm-none-eabi/4.9.2/../../../../arm-none-eabi/lib/libsysbase.a(read.o)
                              /opt/devkitpro/devkitARM/bin/../lib/gcc/arm-none-eabi/4.9.2/../../../../arm-none-eabi/lib/libc.a(lib_a-stdio.o) (_read_r)
/opt/devkitpro/devkitARM/bin/../lib/gcc/arm-none-eabi/4.9.2/../../../../arm-none-eabi/lib/libsysbase.a(sbrk.o)
                              /opt/devkitpro/devkitARM/bin/../lib/gcc/arm-none-eabi/4.9.2/../../../../arm-none-eabi/lib/libc.a(lib_a-mallocr.o) (_sbrk_r)
/opt/devkitpro/devkitARM/bin/../lib/gcc/arm-none-eabi/4.9.2/../../../../arm-none-eabi/lib/libsysbase.a(write.o)
                              /opt/devkitpro/devkitARM/bin/../lib/gcc/arm-none-eabi/4.9.2/../../../../arm-none-eabi/lib/libc.a(lib_a-syswrite.o) (_write_r)
/opt/devkitpro/devkitARM/bin/../lib/gcc/arm-none-eabi/4.9.2/../../../../arm-none-eabi/lib/libsysbase.a(_exit.o)
                              /opt/devkitpro/devkitARM/bin/../lib/gcc/arm-none-eabi/4.9.2/../../../../arm-none-eabi/lib/libc.a(lib_a-abort.o) (_exit)
/opt/devkitpro/devkitARM/bin/../lib/gcc/arm-none-eabi/4.9.2/../../../../arm-none-eabi/lib/libsysbase.a(malloc_vars.o)
                              /opt/devkitpro/devkitARM/bin/../lib/gcc/arm-none-eabi/4.9.2/../../../../arm-none-eabi/lib/libsysbase.a(sbrk.o) (fake_heap_start)
/opt/devkitpro/devkitARM/bin/../lib/gcc/arm-none-eabi/4.9.2/../../../../arm-none-eabi/lib/libsysbase.a(flock.o)
                              /opt/devkitpro/devkitARM/bin/../lib/gcc/arm-none-eabi/4.9.2/../../../../arm-none-eabi/lib/libc.a(lib_a-fputc.o) (__flockfile)
/opt/devkitpro/devkitARM/bin/../lib/gcc/arm-none-eabi/4.9.2/../../../../arm-none-eabi/lib/libsysbase.a(syscall_support.o)
                              /opt/devkitpro/devkitARM/bin/../lib/gcc/arm-none-eabi/4.9.2/../../../../arm-none-eabi/lib/libsysbase.a(_exit.o) (__syscalls)
/opt/devkitpro/devkitARM/bin/../lib/gcc/arm-none-eabi/4.9.2/../../../../arm-none-eabi/lib/libsysbase.a(handle_manager.o)
                              /opt/devkitpro/devkitARM/bin/../lib/gcc/arm-none-eabi/4.9.2/../../../../arm-none-eabi/lib/libsysbase.a(close.o) (__release_handle)
/opt/devkitpro/devkitARM/bin/../lib/gcc/arm-none-eabi/4.9.2/../../../../arm-none-eabi/lib/libsysbase.a(getreent.o)
                              /opt/devkitpro/devkitARM/bin/../lib/gcc/arm-none-eabi/4.9.2/../../../../arm-none-eabi/lib/libstdc++.a(vterminate.o) (__getreent)
/opt/devkitpro/devkitARM/bin/../lib/gcc/arm-none-eabi/4.9.2/../../../../arm-none-eabi/lib/libsysbase.a(iosupport.o)
                              /opt/devkitpro/devkitARM/bin/../lib/gcc/arm-none-eabi/4.9.2/../../../../arm-none-eabi/lib/libsysbase.a(close.o) (devoptab_list)
/opt/devkitpro/devkitARM/bin/../lib/gcc/arm-none-eabi/4.9.2/../../../../arm-none-eabi/lib/libc.a(lib_a-errno.o)
                              /opt/devkitpro/devkitARM/bin/../lib/gcc/arm-none-eabi/4.9.2/../../../../arm-none-eabi/lib/libsysbase.a(handle_manager.o) (__errno)

Discarded input sections

 .group         0x0000000000000000       0x10 objs/active_level_class.thumb.o
 .group         0x0000000000000000       0x10 objs/active_level_class.thumb.o
 .group         0x0000000000000000       0x1c objs/active_level_class.thumb.o
 .group         0x0000000000000000       0x10 objs/active_level_class.thumb.o
 .group         0x0000000000000000       0x10 objs/active_level_class.thumb.o
 .group         0x0000000000000000        0x8 objs/active_level_class.thumb.o
 .group         0x0000000000000000        0x8 objs/active_level_class.thumb.o
 .group         0x0000000000000000        0x8 objs/active_level_class.thumb.o
 .group         0x0000000000000000        0x8 objs/active_level_class.thumb.o
 .group         0x0000000000000000        0x8 objs/active_level_class.thumb.o
 .group         0x0000000000000000        0x8 objs/active_level_class.thumb.o
 .group         0x0000000000000000        0x8 objs/active_level_class.thumb.o
 .group         0x0000000000000000        0x8 objs/active_level_class.thumb.o
 .group         0x0000000000000000        0x8 objs/active_level_class.thumb.o
 .group         0x0000000000000000       0x10 objs/block_stuff.thumb.o
 .group         0x0000000000000000       0x10 objs/block_stuff.thumb.o
 .group         0x0000000000000000       0x10 objs/block_stuff.thumb.o
 .group         0x0000000000000000       0x10 objs/block_stuff.thumb.o
 .group         0x0000000000000000       0x10 objs/block_stuff.thumb.o
 .group         0x0000000000000000       0x10 objs/block_stuff.thumb.o
 .group         0x0000000000000000       0x10 objs/block_stuff.thumb.o
 .group         0x0000000000000000       0x10 objs/block_stuff.thumb.o
 .group         0x0000000000000000       0x10 objs/block_stuff.thumb.o
 .group         0x0000000000000000       0x10 objs/block_stuff.thumb.o
 .group         0x0000000000000000       0x10 objs/block_stuff.thumb.o
 .group         0x0000000000000000       0x10 objs/block_stuff.thumb.o
 .group         0x0000000000000000       0x10 objs/block_stuff.thumb.o
 .group         0x0000000000000000       0x10 objs/block_stuff.thumb.o
 .group         0x0000000000000000       0x10 objs/block_stuff.thumb.o
 .group         0x0000000000000000       0x10 objs/block_stuff.thumb.o
 .group         0x0000000000000000       0x10 objs/block_stuff.thumb.o
 .group         0x0000000000000000       0x10 objs/block_stuff.thumb.o
 .group         0x0000000000000000       0x10 objs/block_stuff.thumb.o
 .group         0x0000000000000000       0x10 objs/block_stuff.thumb.o
 .group         0x0000000000000000       0x10 objs/block_stuff.thumb.o
 .group         0x0000000000000000       0x10 objs/block_stuff.thumb.o
 .group         0x0000000000000000       0x10 objs/block_stuff.thumb.o
 .group         0x0000000000000000       0x10 objs/block_stuff.thumb.o
 .group         0x0000000000000000       0x10 objs/block_stuff.thumb.o
 .group         0x0000000000000000       0x10 objs/block_stuff.thumb.o
 .group         0x0000000000000000       0x10 objs/block_stuff.thumb.o
 .group         0x0000000000000000       0x10 objs/block_stuff.thumb.o
 .group         0x0000000000000000       0x10 objs/block_stuff.thumb.o
 .group         0x0000000000000000       0x10 objs/block_stuff.thumb.o
 .group         0x0000000000000000       0x10 objs/block_stuff.thumb.o
 .group         0x0000000000000000       0x10 objs/block_stuff.thumb.o
 .group         0x0000000000000000       0x10 objs/block_stuff.thumb.o
 .group         0x0000000000000000       0x10 objs/block_stuff.thumb.o
 .group         0x0000000000000000       0x10 objs/block_stuff.thumb.o
 .group         0x0000000000000000       0x10 objs/block_stuff.thumb.o
 .group         0x0000000000000000       0x10 objs/block_stuff.thumb.o
 .group         0x0000000000000000       0x10 objs/block_stuff.thumb.o
 .group         0x0000000000000000       0x10 objs/block_stuff.thumb.o
 .group         0x0000000000000000       0x10 objs/block_stuff.thumb.o
 .group         0x0000000000000000       0x10 objs/block_stuff.thumb.o
 .group         0x0000000000000000       0x10 objs/block_stuff.thumb.o
 .group         0x0000000000000000       0x10 objs/block_stuff.thumb.o
 .group         0x0000000000000000       0x10 objs/block_stuff.thumb.o
 .group         0x0000000000000000       0x10 objs/block_stuff.thumb.o
 .group         0x0000000000000000       0x10 objs/block_stuff.thumb.o
 .group         0x0000000000000000       0x10 objs/block_stuff.thumb.o
 .group         0x0000000000000000       0x10 objs/block_stuff.thumb.o
 .group         0x0000000000000000       0x10 objs/block_stuff.thumb.o
 .group         0x0000000000000000       0x10 objs/block_stuff.thumb.o
 .group         0x0000000000000000       0x10 objs/block_stuff.thumb.o
 .group         0x0000000000000000       0x10 objs/block_stuff.thumb.o
 .group         0x0000000000000000       0x10 objs/block_stuff.thumb.o
 .group         0x0000000000000000       0x10 objs/block_stuff.thumb.o
 .group         0x0000000000000000        0x8 objs/block_stuff.thumb.o
 .group         0x0000000000000000        0x8 objs/block_stuff.thumb.o
 .group         0x0000000000000000        0x8 objs/block_stuff.thumb.o
 .group         0x0000000000000000        0x8 objs/block_stuff.thumb.o
 .group         0x0000000000000000        0x8 objs/block_stuff.thumb.o
 .group         0x0000000000000000        0x8 objs/block_stuff.thumb.o
 .group         0x0000000000000000        0x8 objs/block_stuff.thumb.o
 .group         0x0000000000000000        0x8 objs/block_stuff.thumb.o
 .group         0x0000000000000000        0x8 objs/block_stuff.thumb.o
 .group         0x0000000000000000        0x8 objs/block_stuff.thumb.o
 .group         0x0000000000000000        0x8 objs/block_stuff.thumb.o
 .group         0x0000000000000000        0x8 objs/block_stuff.thumb.o
 .group         0x0000000000000000        0x8 objs/block_stuff.thumb.o
 .group         0x0000000000000000        0x8 objs/block_stuff.thumb.o
 .group         0x0000000000000000        0x8 objs/block_stuff.thumb.o
 .group         0x0000000000000000        0x8 objs/block_stuff.thumb.o
 .group         0x0000000000000000        0x8 objs/block_stuff.thumb.o
 .group         0x0000000000000000        0x8 objs/block_stuff.thumb.o
 .group         0x0000000000000000        0x8 objs/block_stuff.thumb.o
 .group         0x0000000000000000        0x8 objs/block_stuff.thumb.o
 .group         0x0000000000000000        0x8 objs/block_stuff.thumb.o
 .group         0x0000000000000000        0x8 objs/block_stuff.thumb.o
 .group         0x0000000000000000        0x8 objs/block_stuff.thumb.o
 .group         0x0000000000000000        0x8 objs/block_stuff.thumb.o
 .group         0x0000000000000000        0x8 objs/block_stuff.thumb.o
 .group         0x0000000000000000        0x8 objs/block_stuff.thumb.o
 .group         0x0000000000000000        0x8 objs/block_stuff.thumb.o
 .group         0x0000000000000000        0x8 objs/block_stuff.thumb.o
 .group         0x0000000000000000        0x8 objs/block_stuff.thumb.o
 .group         0x0000000000000000        0x8 objs/block_stuff.thumb.o
 .group         0x0000000000000000        0x8 objs/block_stuff.thumb.o
 .group         0x0000000000000000        0x8 objs/block_stuff.thumb.o
 .group         0x0000000000000000        0x8 objs/block_stuff.thumb.o
 .group         0x0000000000000000        0x8 objs/block_stuff.thumb.o
 .group         0x0000000000000000        0x8 objs/block_stuff.thumb.o
 .group         0x0000000000000000        0x8 objs/block_stuff.thumb.o
 .group         0x0000000000000000        0x8 objs/block_stuff.thumb.o
 .group         0x0000000000000000        0x8 objs/block_stuff.thumb.o
 .group         0x0000000000000000        0x8 objs/block_stuff.thumb.o
 .group         0x0000000000000000        0x8 objs/block_stuff.thumb.o
 .group         0x0000000000000000        0x8 objs/block_stuff.thumb.o
 .group         0x0000000000000000        0x8 objs/block_stuff.thumb.o
 .group         0x0000000000000000        0x8 objs/block_stuff.thumb.o
 .group         0x0000000000000000        0x8 objs/block_stuff.thumb.o
 .group         0x0000000000000000        0x8 objs/block_stuff.thumb.o
 .group         0x0000000000000000        0x8 objs/block_stuff.thumb.o
 .group         0x0000000000000000        0x8 objs/block_stuff.thumb.o
 .group         0x0000000000000000        0x8 objs/block_stuff.thumb.o
 .group         0x0000000000000000        0x8 objs/block_stuff.thumb.o
 .group         0x0000000000000000        0x8 objs/block_stuff.thumb.o
 .group         0x0000000000000000        0x8 objs/block_stuff.thumb.o
 .group         0x0000000000000000        0x8 objs/block_stuff.thumb.o
 .group         0x0000000000000000        0x8 objs/block_stuff.thumb.o
 .group         0x0000000000000000        0x8 objs/block_stuff.thumb.o
 .group         0x0000000000000000       0x10 objs/door_sprite_stuff_class.thumb.o
 .group         0x0000000000000000       0x10 objs/door_sprite_stuff_class.thumb.o
 .group         0x0000000000000000       0x10 objs/door_sprite_stuff_class.thumb.o
 .group         0x0000000000000000       0x10 objs/door_sprite_stuff_class.thumb.o
 .group         0x0000000000000000       0x10 objs/door_sprite_stuff_class.thumb.o
 .group         0x0000000000000000       0x10 objs/door_sprite_stuff_class.thumb.o
 .group         0x0000000000000000       0x10 objs/door_sprite_stuff_class.thumb.o
 .group         0x0000000000000000       0x10 objs/door_sprite_stuff_class.thumb.o
 .group         0x0000000000000000       0x10 objs/gfx_manager_class.thumb.o
 .group         0x0000000000000000       0x10 objs/gfx_manager_class.thumb.o
 .group         0x0000000000000000       0x10 objs/player_sprite_stuff_class.thumb.o
 .group         0x0000000000000000       0x10 objs/player_sprite_stuff_class.thumb.o
 .group         0x0000000000000000       0x10 objs/player_sprite_stuff_class.thumb.o
 .group         0x0000000000000000       0x10 objs/player_sprite_stuff_class.thumb.o
 .group         0x0000000000000000       0x10 objs/player_sprite_stuff_class.thumb.o
 .group         0x0000000000000000       0x10 objs/player_sprite_stuff_class.thumb.o
 .group         0x0000000000000000       0x10 objs/player_sprite_stuff_class.thumb.o
 .group         0x0000000000000000       0x10 objs/sprite_base_stuff_class.thumb.o
 .group         0x0000000000000000       0x10 objs/sprite_base_stuff_class.thumb.o
 .group         0x0000000000000000       0x10 objs/sprite_base_stuff_class.thumb.o
 .group         0x0000000000000000       0x10 objs/sprite_base_stuff_class.thumb.o
 .group         0x0000000000000000       0x10 objs/sprite_base_stuff_class.thumb.o
 .text._ZNK17sprite_base_stuff12get_tile_arrEv
                0x0000000000000000        0x8 objs/sprite_base_stuff_class.thumb.o
 .ARM.extab.text._ZNK17sprite_base_stuff12get_tile_arrEv
                0x0000000000000000        0x0 objs/sprite_base_stuff_class.thumb.o
 .ARM.exidx.text._ZNK17sprite_base_stuff12get_tile_arrEv
                0x0000000000000000        0x8 objs/sprite_base_stuff_class.thumb.o
 .text._ZN17sprite_base_stuff24get_num_active_gfx_tilesEv
                0x0000000000000000        0x4 objs/sprite_base_stuff_class.thumb.o
 .ARM.extab.text._ZN17sprite_base_stuff24get_num_active_gfx_tilesEv
                0x0000000000000000        0x0 objs/sprite_base_stuff_class.thumb.o
 .ARM.exidx.text._ZN17sprite_base_stuff24get_num_active_gfx_tilesEv
                0x0000000000000000        0x8 objs/sprite_base_stuff_class.thumb.o
 .group         0x0000000000000000       0x10 objs/sprite_manager_class.thumb.o
 .group         0x0000000000000000       0x1c objs/sprite_manager_class.thumb.o
 .group         0x0000000000000000       0x10 objs/sprite_manager_class.thumb.o
 .group         0x0000000000000000        0x8 objs/sprite_manager_class.thumb.o
 .group         0x0000000000000000        0x8 objs/sprite_manager_class.thumb.o
 .group         0x0000000000000000        0x8 objs/sprite_manager_class.thumb.o
 .text._ZN12sa_free_listILm256EE3popEv
                0x0000000000000000       0x20 objs/sprite_manager_class.thumb.o
 .ARM.extab.text._ZN12sa_free_listILm256EE3popEv
                0x0000000000000000        0x0 objs/sprite_manager_class.thumb.o
 .ARM.exidx.text._ZN12sa_free_listILm256EE3popEv
                0x0000000000000000        0x8 objs/sprite_manager_class.thumb.o
 .text._ZN28externally_allocated_sa_listI23sprite_init_param_groupLm256EED2Ev
                0x0000000000000000       0xa8 objs/sprite_manager_class.thumb.o
 .ARM.extab.text._ZN28externally_allocated_sa_listI23sprite_init_param_groupLm256EED2Ev
                0x0000000000000000        0x0 objs/sprite_manager_class.thumb.o
 .ARM.exidx.text._ZN28externally_allocated_sa_listI23sprite_init_param_groupLm256EED2Ev
                0x0000000000000000        0x8 objs/sprite_manager_class.thumb.o
 .text._ZN28externally_allocated_sa_listI23sprite_init_param_groupLm256EED0Ev
                0x0000000000000000       0xb4 objs/sprite_manager_class.thumb.o
 .ARM.extab.text._ZN28externally_allocated_sa_listI23sprite_init_param_groupLm256EED0Ev
                0x0000000000000000        0x0 objs/sprite_manager_class.thumb.o
 .ARM.exidx.text._ZN28externally_allocated_sa_listI23sprite_init_param_groupLm256EED0Ev
                0x0000000000000000        0x8 objs/sprite_manager_class.thumb.o
 .rodata._ZTI28externally_allocated_sa_listI23sprite_init_param_groupLm256EE
                0x0000000000000000        0x8 objs/sprite_manager_class.thumb.o
 .rodata._ZTS28externally_allocated_sa_listI23sprite_init_param_groupLm256EE
                0x0000000000000000       0x40 objs/sprite_manager_class.thumb.o
 .rodata._ZTV28externally_allocated_sa_listI23sprite_init_param_groupLm256EE
                0x0000000000000000       0x10 objs/sprite_manager_class.thumb.o
 .group         0x0000000000000000       0x10 objs/sprite_type_stuff.thumb.o
 .group         0x0000000000000000       0x10 objs/sprite_type_stuff.thumb.o
 .group         0x0000000000000000       0x10 objs/sprite_type_stuff.thumb.o
 .group         0x0000000000000000       0x10 objs/sprite_type_stuff.thumb.o
 .group         0x0000000000000000       0x10 objs/sprite_type_stuff.thumb.o
 .group         0x0000000000000000       0x10 objs/sprite_type_stuff.thumb.o
 .group         0x0000000000000000       0x10 objs/sprite_type_stuff.thumb.o
 .group         0x0000000000000000       0x10 objs/sprite_type_stuff.thumb.o
 .group         0x0000000000000000       0x10 objs/sprite_type_stuff.thumb.o
 .group         0x0000000000000000       0x10 objs/sprite_type_stuff.thumb.o
 .group         0x0000000000000000       0x10 objs/sprite_type_stuff.thumb.o
 .group         0x0000000000000000       0x10 objs/sprite_type_stuff.thumb.o
 .group         0x0000000000000000       0x10 objs/sprite_type_stuff.thumb.o
 .group         0x0000000000000000       0x10 objs/sprite_type_stuff.thumb.o
 .group         0x0000000000000000       0x10 objs/sprite_type_stuff.thumb.o
 .group         0x0000000000000000       0x10 objs/sprite_type_stuff.thumb.o
 .group         0x0000000000000000       0x10 objs/sprite_type_stuff.thumb.o
 .group         0x0000000000000000       0x10 objs/sprite_type_stuff.thumb.o
 .group         0x0000000000000000       0x10 objs/sprite_type_stuff.thumb.o
 .group         0x0000000000000000       0x10 objs/sprite_type_stuff.thumb.o
 .group         0x0000000000000000       0x10 objs/sprite_type_stuff.thumb.o
 .group         0x0000000000000000       0x10 objs/sprite_type_stuff.thumb.o
 .group         0x0000000000000000       0x10 objs/sprite_type_stuff.thumb.o
 .group         0x0000000000000000        0x8 objs/sprite_type_stuff.thumb.o
 .group         0x0000000000000000        0x8 objs/sprite_type_stuff.thumb.o
 .group         0x0000000000000000        0x8 objs/sprite_type_stuff.thumb.o
 .group         0x0000000000000000        0x8 objs/sprite_type_stuff.thumb.o
 .group         0x0000000000000000        0x8 objs/sprite_type_stuff.thumb.o
 .group         0x0000000000000000        0x8 objs/sprite_type_stuff.thumb.o
 .group         0x0000000000000000        0x8 objs/sprite_type_stuff.thumb.o
 .group         0x0000000000000000        0x8 objs/sprite_type_stuff.thumb.o
 .group         0x0000000000000000        0x8 objs/sprite_type_stuff.thumb.o
 .group         0x0000000000000000        0x8 objs/sprite_type_stuff.thumb.o
 .group         0x0000000000000000        0x8 objs/sprite_type_stuff.thumb.o
 .group         0x0000000000000000        0x8 objs/sprite_type_stuff.thumb.o
 .text._ZNK17sprite_base_stuff26get_the_initial_shape_sizeEv
                0x0000000000000000        0xc objs/sprite_type_stuff.thumb.o
 .ARM.extab.text._ZNK17sprite_base_stuff26get_the_initial_shape_sizeEv
                0x0000000000000000        0x0 objs/sprite_type_stuff.thumb.o
 .ARM.exidx.text._ZNK17sprite_base_stuff26get_the_initial_shape_sizeEv
                0x0000000000000000        0x8 objs/sprite_type_stuff.thumb.o
 .text._ZNK17sprite_base_stuff29get_the_initial_coll_box_sizeEv
                0x0000000000000000        0x8 objs/sprite_type_stuff.thumb.o
 .ARM.extab.text._ZNK17sprite_base_stuff29get_the_initial_coll_box_sizeEv
                0x0000000000000000        0x0 objs/sprite_type_stuff.thumb.o
 .ARM.exidx.text._ZNK17sprite_base_stuff29get_the_initial_coll_box_sizeEv
                0x0000000000000000        0x8 objs/sprite_type_stuff.thumb.o
 .text._ZNK17sprite_base_stuff29get_the_initial_cb_pos_offsetEv
                0x0000000000000000        0x8 objs/sprite_type_stuff.thumb.o
 .ARM.extab.text._ZNK17sprite_base_stuff29get_the_initial_cb_pos_offsetEv
                0x0000000000000000        0x0 objs/sprite_type_stuff.thumb.o
 .ARM.exidx.text._ZNK17sprite_base_stuff29get_the_initial_cb_pos_offsetEv
                0x0000000000000000        0x8 objs/sprite_type_stuff.thumb.o
 .group         0x0000000000000000       0x10 objs/waffle_sprite_stuff_class.thumb.o
 .group         0x0000000000000000       0x10 objs/waffle_sprite_stuff_class.thumb.o
 .group         0x0000000000000000       0x10 objs/waffle_sprite_stuff_class.thumb.o
 .group         0x0000000000000000       0x10 objs/waffle_sprite_stuff_class.thumb.o
 .group         0x0000000000000000       0x10 objs/waffle_sprite_stuff_class.thumb.o
 .group         0x0000000000000000       0x10 objs/waffle_sprite_stuff_class.thumb.o
 .group         0x0000000000000000       0x10 objs/waffle_sprite_stuff_class.thumb.o
 .group         0x0000000000000000       0x10 objs/waffle_sprite_stuff_class.thumb.o
 .group         0x0000000000000000       0x10 objs/waffle_sprite_stuff_class.thumb.o
 .text._ZNK17sprite_base_stuff26get_the_initial_shape_sizeEv
                0x0000000000000000        0xc objs/waffle_sprite_stuff_class.thumb.o
 .ARM.extab.text._ZNK17sprite_base_stuff26get_the_initial_shape_sizeEv
                0x0000000000000000        0x0 objs/waffle_sprite_stuff_class.thumb.o
 .ARM.exidx.text._ZNK17sprite_base_stuff26get_the_initial_shape_sizeEv
                0x0000000000000000        0x8 objs/waffle_sprite_stuff_class.thumb.o
 .text._ZNK17sprite_base_stuff29get_the_initial_coll_box_sizeEv
                0x0000000000000000        0x8 objs/waffle_sprite_stuff_class.thumb.o
 .ARM.extab.text._ZNK17sprite_base_stuff29get_the_initial_coll_box_sizeEv
                0x0000000000000000        0x0 objs/waffle_sprite_stuff_class.thumb.o
 .ARM.exidx.text._ZNK17sprite_base_stuff29get_the_initial_coll_box_sizeEv
                0x0000000000000000        0x8 objs/waffle_sprite_stuff_class.thumb.o
 .text._ZNK17sprite_base_stuff29get_the_initial_cb_pos_offsetEv
                0x0000000000000000        0x8 objs/waffle_sprite_stuff_class.thumb.o
 .ARM.extab.text._ZNK17sprite_base_stuff29get_the_initial_cb_pos_offsetEv
                0x0000000000000000        0x0 objs/waffle_sprite_stuff_class.thumb.o
 .ARM.exidx.text._ZNK17sprite_base_stuff29get_the_initial_cb_pos_offsetEv
                0x0000000000000000        0x8 objs/waffle_sprite_stuff_class.thumb.o

Memory Configuration

Name             Origin             Length             Attributes
rom              0x0000000008000000 0x0000000002000000
iwram            0x0000000003000000 0x0000000000008000
ewram            0x0000000002000000 0x0000000000040000
sram             0x000000000e000000 0x0000000000010000
*default*        0x0000000000000000 0xffffffffffffffff

Linker script and memory map

LOAD /opt/devkitpro/devkitARM/bin/../lib/gcc/arm-none-eabi/4.9.2/crti.o
LOAD /opt/devkitpro/devkitARM/bin/../lib/gcc/arm-none-eabi/4.9.2/crtbegin.o
LOAD /opt/devkitpro/devkitARM/bin/../lib/gcc/arm-none-eabi/4.9.2/../../../../arm-none-eabi/lib/crt0.o
LOAD objs/active_level_class.thumb.o
LOAD objs/active_level_manager_class.arm.o
LOAD objs/active_level_manager_class.thumb.o
LOAD objs/air_block_stuff_class.thumb.o
LOAD objs/block_base_stuff_class.thumb.o
LOAD objs/block_stuff.thumb.o
LOAD objs/button_stuff.thumb.o
LOAD objs/coll_box_class.arm.o
LOAD objs/coll_box_class.thumb.o
LOAD objs/coll_point_group_class.thumb.o
LOAD objs/crt0.o
LOAD objs/debug_vars.thumb.o
LOAD objs/division_funcs.o
LOAD objs/dma_stuff.thumb.o
LOAD objs/door_sprite_stuff_class.thumb.o
LOAD objs/dud_block_stuff_class.thumb.o
LOAD objs/exclam_block_stuff_classes.thumb.o
LOAD objs/eyes_block_stuff_classes.thumb.o
LOAD objs/fixed_classes.thumb.o
LOAD objs/game_manager_class.thumb.o
LOAD objs/gfx_manager_class.thumb.o
LOAD objs/gfx_reg_stuff.arm.o
LOAD objs/grass_and_dirt_block_stuff_classes.thumb.o
LOAD objs/hud_manager_class.thumb.o
LOAD objs/interrupt_stuff.arm.o
LOAD objs/interrupt_stuff.thumb.o
LOAD objs/level_class.thumb.o
LOAD objs/log_block_stuff_class.thumb.o
LOAD objs/main.thumb.o
LOAD objs/memcpy32_from_tonc.o
LOAD objs/memory_funcs_8bit.o
LOAD objs/muffin_sprite_stuff_classes.thumb.o
LOAD objs/oam_entry_classes.thumb.o
LOAD objs/player_sprite_stuff_class.thumb.o
LOAD objs/practice_17.bin.o
LOAD objs/ram_funcs1.o
LOAD objs/sherwin_gfx.o
LOAD objs/sprite_base_stuff_class.arm.o
LOAD objs/sprite_base_stuff_class.thumb.o
LOAD objs/sprite_class.thumb.o
LOAD objs/sprite_manager_class.arm.o
LOAD objs/sprite_manager_class.thumb.o
LOAD objs/sprite_type_stuff.thumb.o
LOAD objs/sublevel_class.thumb.o
LOAD objs/test_level.thumb.o
LOAD objs/text_8x16_gfx.o
LOAD objs/text_8x8_thick_gfx.o
LOAD objs/text_8x8_thin_gfx.o
LOAD objs/the_block_gfx.o
LOAD objs/the_door_gfx.o
LOAD objs/the_golem_enemy_gfx.o
LOAD objs/the_powerup_gfx.o
LOAD objs/title_screen.o
LOAD objs/waffle_sprite_stuff_class.arm.o
LOAD objs/waffle_sprite_stuff_class.thumb.o
LOAD objs/wood_block_stuff_classes.thumb.o
LOAD /opt/devkitpro/devkitARM/bin/../lib/gcc/arm-none-eabi/4.9.2/libgcc.a
LOAD /opt/devkitpro/devkitARM/bin/../lib/gcc/arm-none-eabi/4.9.2/../../../../arm-none-eabi/lib/libstdc++.a
LOAD ./maxmod/lib/libmm.a
LOAD /opt/devkitpro/devkitARM/bin/../lib/gcc/arm-none-eabi/4.9.2/../../../../arm-none-eabi/lib/libstdc++.a
LOAD /opt/devkitpro/devkitARM/bin/../lib/gcc/arm-none-eabi/4.9.2/../../../../arm-none-eabi/lib/libm.a
LOAD /opt/devkitpro/devkitARM/bin/../lib/gcc/arm-none-eabi/4.9.2/../../../../arm-none-eabi/lib/libc.a
START GROUP
LOAD /opt/devkitpro/devkitARM/bin/../lib/gcc/arm-none-eabi/4.9.2/libgcc.a
LOAD /opt/devkitpro/devkitARM/bin/../lib/gcc/arm-none-eabi/4.9.2/../../../../arm-none-eabi/lib/libc.a
LOAD /opt/devkitpro/devkitARM/bin/../lib/gcc/arm-none-eabi/4.9.2/../../../../arm-none-eabi/lib/libsysbase.a
END GROUP
LOAD /opt/devkitpro/devkitARM/bin/../lib/gcc/arm-none-eabi/4.9.2/crtend.o
LOAD /opt/devkitpro/devkitARM/bin/../lib/gcc/arm-none-eabi/4.9.2/crtn.o
                0x0000000008000000                __text_start = ORIGIN (rom)
                0x0000000002000000                __ewram_start = ORIGIN (ewram)
                0x0000000003000000                __iwram_start = ORIGIN (iwram)
                0x000000000e000000                __sram_start = ORIGIN (sram)
                0x0000000008000000                . = __text_start

.startup        0x0000000008000000      0x254
 *(.startup)
 .startup       0x0000000008000000      0x254 objs/crt0.o
                0x0000000008000000                _start2
                0x0000000008000100                next
 *(.asm_text)
                0x0000000008000254                . = ALIGN (0x4)

.text           0x0000000008000258    0x7c068
 CREATE_OBJECT_SYMBOLS
 *(.text .text.* .gnu.linkonce.t.*)
 .text          0x0000000008000258        0x0 /opt/devkitpro/devkitARM/bin/../lib/gcc/arm-none-eabi/4.9.2/crti.o
 .text          0x0000000008000258      0x108 /opt/devkitpro/devkitARM/bin/../lib/gcc/arm-none-eabi/4.9.2/crtbegin.o
 .text          0x0000000008000360      0x104 /opt/devkitpro/devkitARM/bin/../lib/gcc/arm-none-eabi/4.9.2/../../../../arm-none-eabi/lib/crt0.o
                0x0000000008000360                _mainCRTStartup
                0x0000000008000360                _start
 .text          0x0000000008000464       0x14 objs/active_level_class.thumb.o
                0x0000000008000464                active_level::get_the_current_sublevel_ptr()
 .text._ZN12sa_free_listILm256EE3popEv
                0x0000000008000478       0x20 objs/active_level_class.thumb.o
                0x0000000008000478                sa_free_list<256ul>::pop()
 .text._ZN8sa_stackIiLm256EE3popEv
                0x0000000008000498       0x10 objs/active_level_class.thumb.o
                0x0000000008000498                sa_stack<int, 256ul>::pop()
 .text._ZN28externally_allocated_sa_listI23sprite_init_param_groupLm256EED0Ev
                0x00000000080004a8       0xb4 objs/active_level_class.thumb.o
                0x00000000080004a8                externally_allocated_sa_list<sprite_init_param_group, 256ul>::~externally_allocated_sa_list()
 .text._ZN28externally_allocated_sa_listI23sprite_init_param_groupLm256EED2Ev
                0x000000000800055c       0xa8 objs/active_level_class.thumb.o
                0x000000000800055c                externally_allocated_sa_list<sprite_init_param_group, 256ul>::~externally_allocated_sa_list()
                0x000000000800055c                externally_allocated_sa_list<sprite_init_param_group, 256ul>::~externally_allocated_sa_list()
 .text._ZN17sa_array_of_listsI23sprite_init_param_groupLm256ELm512EED2Ev
                0x0000000008000604      0x10c objs/active_level_class.thumb.o
                0x0000000008000604                sa_array_of_lists<sprite_init_param_group, 256ul, 512ul>::~sa_array_of_lists()
                0x0000000008000604                sa_array_of_lists<sprite_init_param_group, 256ul, 512ul>::~sa_array_of_lists()
 .text._ZN17sa_array_of_listsI23sprite_init_param_groupLm256ELm512EEC2Ev
                0x0000000008000710       0xec objs/active_level_class.thumb.o
                0x0000000008000710                sa_array_of_lists<sprite_init_param_group, 256ul, 512ul>::sa_array_of_lists()
                0x0000000008000710                sa_array_of_lists<sprite_init_param_group, 256ul, 512ul>::sa_array_of_lists()
 .text.startup  0x00000000080007fc       0x68 objs/active_level_class.thumb.o
 .text          0x0000000008000864        0x0 objs/active_level_manager_class.arm.o
 .text          0x0000000008000864        0x0 objs/active_level_manager_class.thumb.o
 .text          0x0000000008000864        0x0 objs/air_block_stuff_class.thumb.o
 .text          0x0000000008000864        0x0 objs/block_base_stuff_class.thumb.o
 .text          0x0000000008000864        0x0 objs/block_stuff.thumb.o
 .text._ZN24grass_single_block_stuff19get_metatile_numberEv
                0x0000000008000864        0x4 objs/block_stuff.thumb.o
                0x0000000008000864                grass_single_block_stuff::get_metatile_number()
 .text._ZN24grass_single_block_stuff18get_palette_numberEv
                0x0000000008000868        0x4 objs/block_stuff.thumb.o
                0x0000000008000868                grass_single_block_stuff::get_palette_number()
 .text._ZN24grass_single_block_stuff26get_metatile_graphics_slotEv
                0x000000000800086c        0x4 objs/block_stuff.thumb.o
                0x000000000800086c                grass_single_block_stuff::get_metatile_graphics_slot()
 .text._ZN26grass_top_left_block_stuff19get_metatile_numberEv
                0x0000000008000870        0x4 objs/block_stuff.thumb.o
                0x0000000008000870                grass_top_left_block_stuff::get_metatile_number()
 .text._ZN26grass_top_left_block_stuff18get_palette_numberEv
                0x0000000008000874        0x4 objs/block_stuff.thumb.o
                0x0000000008000874                grass_top_left_block_stuff::get_palette_number()
 .text._ZN26grass_top_left_block_stuff26get_metatile_graphics_slotEv
                0x0000000008000878        0x4 objs/block_stuff.thumb.o
                0x0000000008000878                grass_top_left_block_stuff::get_metatile_graphics_slot()
 .text._ZN28grass_top_middle_block_stuff19get_metatile_numberEv
                0x000000000800087c        0x4 objs/block_stuff.thumb.o
                0x000000000800087c                grass_top_middle_block_stuff::get_metatile_number()
 .text._ZN28grass_top_middle_block_stuff18get_palette_numberEv
                0x0000000008000880        0x4 objs/block_stuff.thumb.o
                0x0000000008000880                grass_top_middle_block_stuff::get_palette_number()
 .text._ZN28grass_top_middle_block_stuff26get_metatile_graphics_slotEv
                0x0000000008000884        0x4 objs/block_stuff.thumb.o
                0x0000000008000884                grass_top_middle_block_stuff::get_metatile_graphics_slot()
 .text._ZN27grass_top_right_block_stuff19get_metatile_numberEv
                0x0000000008000888        0x4 objs/block_stuff.thumb.o
                0x0000000008000888                grass_top_right_block_stuff::get_metatile_number()
 .text._ZN27grass_top_right_block_stuff18get_palette_numberEv
                0x000000000800088c        0x4 objs/block_stuff.thumb.o
                0x000000000800088c                grass_top_right_block_stuff::get_palette_number()
 .text._ZN27grass_top_right_block_stuff26get_metatile_graphics_slotEv
                0x0000000008000890        0x4 objs/block_stuff.thumb.o
                0x0000000008000890                grass_top_right_block_stuff::get_metatile_graphics_slot()
 .text._ZN28dirt_middle_left_block_stuff19get_metatile_numberEv
                0x0000000008000894        0x4 objs/block_stuff.thumb.o
                0x0000000008000894                dirt_middle_left_block_stuff::get_metatile_number()
 .text._ZN28dirt_middle_left_block_stuff18get_palette_numberEv
                0x0000000008000898        0x4 objs/block_stuff.thumb.o
                0x0000000008000898                dirt_middle_left_block_stuff::get_palette_number()
 .text._ZN28dirt_middle_left_block_stuff26get_metatile_graphics_slotEv
                0x000000000800089c        0x4 objs/block_stuff.thumb.o
                0x000000000800089c                dirt_middle_left_block_stuff::get_metatile_graphics_slot()
 .text._ZN30dirt_middle_middle_block_stuff19get_metatile_numberEv
                0x00000000080008a0        0x4 objs/block_stuff.thumb.o
                0x00000000080008a0                dirt_middle_middle_block_stuff::get_metatile_number()
 .text._ZN30dirt_middle_middle_block_stuff18get_palette_numberEv
                0x00000000080008a4        0x4 objs/block_stuff.thumb.o
                0x00000000080008a4                dirt_middle_middle_block_stuff::get_palette_number()
 .text._ZN30dirt_middle_middle_block_stuff26get_metatile_graphics_slotEv
                0x00000000080008a8        0x4 objs/block_stuff.thumb.o
                0x00000000080008a8                dirt_middle_middle_block_stuff::get_metatile_graphics_slot()
 .text._ZN29dirt_middle_right_block_stuff19get_metatile_numberEv
                0x00000000080008ac        0x4 objs/block_stuff.thumb.o
                0x00000000080008ac                dirt_middle_right_block_stuff::get_metatile_number()
 .text._ZN29dirt_middle_right_block_stuff18get_palette_numberEv
                0x00000000080008b0        0x4 objs/block_stuff.thumb.o
                0x00000000080008b0                dirt_middle_right_block_stuff::get_palette_number()
 .text._ZN29dirt_middle_right_block_stuff26get_metatile_graphics_slotEv
                0x00000000080008b4        0x4 objs/block_stuff.thumb.o
                0x00000000080008b4                dirt_middle_right_block_stuff::get_metatile_graphics_slot()
 .text._ZN28dirt_bottom_left_block_stuff19get_metatile_numberEv
                0x00000000080008b8        0x4 objs/block_stuff.thumb.o
                0x00000000080008b8                dirt_bottom_left_block_stuff::get_metatile_number()
 .text._ZN28dirt_bottom_left_block_stuff18get_palette_numberEv
                0x00000000080008bc        0x4 objs/block_stuff.thumb.o
                0x00000000080008bc                dirt_bottom_left_block_stuff::get_palette_number()
 .text._ZN28dirt_bottom_left_block_stuff26get_metatile_graphics_slotEv
                0x00000000080008c0        0x4 objs/block_stuff.thumb.o
                0x00000000080008c0                dirt_bottom_left_block_stuff::get_metatile_graphics_slot()
 .text._ZN30dirt_bottom_middle_block_stuff19get_metatile_numberEv
                0x00000000080008c4        0x4 objs/block_stuff.thumb.o
                0x00000000080008c4                dirt_bottom_middle_block_stuff::get_metatile_number()
 .text._ZN30dirt_bottom_middle_block_stuff18get_palette_numberEv
                0x00000000080008c8        0x4 objs/block_stuff.thumb.o
                0x00000000080008c8                dirt_bottom_middle_block_stuff::get_palette_number()
 .text._ZN30dirt_bottom_middle_block_stuff26get_metatile_graphics_slotEv
                0x00000000080008cc        0x4 objs/block_stuff.thumb.o
                0x00000000080008cc                dirt_bottom_middle_block_stuff::get_metatile_graphics_slot()
 .text._ZN29dirt_bottom_right_block_stuff19get_metatile_numberEv
                0x00000000080008d0        0x4 objs/block_stuff.thumb.o
                0x00000000080008d0                dirt_bottom_right_block_stuff::get_metatile_number()
 .text._ZN29dirt_bottom_right_block_stuff18get_palette_numberEv
                0x00000000080008d4        0x4 objs/block_stuff.thumb.o
                0x00000000080008d4                dirt_bottom_right_block_stuff::get_palette_number()
 .text._ZN29dirt_bottom_right_block_stuff26get_metatile_graphics_slotEv
                0x00000000080008d8        0x4 objs/block_stuff.thumb.o
                0x00000000080008d8                dirt_bottom_right_block_stuff::get_metatile_graphics_slot()
 .text._ZN31grass_slope_p16_p16_block_stuff19get_metatile_numberEv
                0x00000000080008dc        0x4 objs/block_stuff.thumb.o
                0x00000000080008dc                grass_slope_p16_p16_block_stuff::get_metatile_number()
 .text._ZN31grass_slope_p16_p16_block_stuff18get_palette_numberEv
                0x00000000080008e0        0x4 objs/block_stuff.thumb.o
                0x00000000080008e0                grass_slope_p16_p16_block_stuff::get_palette_number()
 .text._ZN31grass_slope_p16_p16_block_stuff26get_metatile_graphics_slotEv
                0x00000000080008e4        0x4 objs/block_stuff.thumb.o
                0x00000000080008e4                grass_slope_p16_p16_block_stuff::get_metatile_graphics_slot()
 .text._ZN31grass_slope_n16_p16_block_stuff19get_metatile_numberEv
                0x00000000080008e8        0x4 objs/block_stuff.thumb.o
                0x00000000080008e8                grass_slope_n16_p16_block_stuff::get_metatile_number()
 .text._ZN31grass_slope_n16_p16_block_stuff18get_palette_numberEv
                0x00000000080008ec        0x4 objs/block_stuff.thumb.o
                0x00000000080008ec                grass_slope_n16_p16_block_stuff::get_palette_number()
 .text._ZN31grass_slope_n16_p16_block_stuff26get_metatile_graphics_slotEv
                0x00000000080008f0        0x4 objs/block_stuff.thumb.o
                0x00000000080008f0                grass_slope_n16_p16_block_stuff::get_metatile_graphics_slot()
 .text._ZN37grass_slope_p32_p16_short_block_stuff19get_metatile_numberEv
                0x00000000080008f4        0x4 objs/block_stuff.thumb.o
                0x00000000080008f4                grass_slope_p32_p16_short_block_stuff::get_metatile_number()
 .text._ZN37grass_slope_p32_p16_short_block_stuff18get_palette_numberEv
                0x00000000080008f8        0x4 objs/block_stuff.thumb.o
                0x00000000080008f8                grass_slope_p32_p16_short_block_stuff::get_palette_number()
 .text._ZN37grass_slope_p32_p16_short_block_stuff26get_metatile_graphics_slotEv
                0x00000000080008fc        0x4 objs/block_stuff.thumb.o
                0x00000000080008fc                grass_slope_p32_p16_short_block_stuff::get_metatile_graphics_slot()
 .text._ZN36grass_slope_p32_p16_tall_block_stuff19get_metatile_numberEv
                0x0000000008000900        0x4 objs/block_stuff.thumb.o
                0x0000000008000900                grass_slope_p32_p16_tall_block_stuff::get_metatile_number()
 .text._ZN36grass_slope_p32_p16_tall_block_stuff18get_palette_numberEv
                0x0000000008000904        0x4 objs/block_stuff.thumb.o
                0x0000000008000904                grass_slope_p32_p16_tall_block_stuff::get_palette_number()
 .text._ZN36grass_slope_p32_p16_tall_block_stuff26get_metatile_graphics_slotEv
                0x0000000008000908        0x4 objs/block_stuff.thumb.o
                0x0000000008000908                grass_slope_p32_p16_tall_block_stuff::get_metatile_graphics_slot()
 .text._ZN36grass_slope_n32_p16_tall_block_stuff19get_metatile_numberEv
                0x000000000800090c        0x4 objs/block_stuff.thumb.o
                0x000000000800090c                grass_slope_n32_p16_tall_block_stuff::get_metatile_number()
 .text._ZN36grass_slope_n32_p16_tall_block_stuff18get_palette_numberEv
                0x0000000008000910        0x4 objs/block_stuff.thumb.o
                0x0000000008000910                grass_slope_n32_p16_tall_block_stuff::get_palette_number()
 .text._ZN36grass_slope_n32_p16_tall_block_stuff26get_metatile_graphics_slotEv
                0x0000000008000914        0x4 objs/block_stuff.thumb.o
                0x0000000008000914                grass_slope_n32_p16_tall_block_stuff::get_metatile_graphics_slot()
 .text._ZN37grass_slope_n32_p16_short_block_stuff19get_metatile_numberEv
                0x0000000008000918        0x4 objs/block_stuff.thumb.o
                0x0000000008000918                grass_slope_n32_p16_short_block_stuff::get_metatile_number()
 .text._ZN37grass_slope_n32_p16_short_block_stuff18get_palette_numberEv
                0x000000000800091c        0x4 objs/block_stuff.thumb.o
                0x000000000800091c                grass_slope_n32_p16_short_block_stuff::get_palette_number()
 .text._ZN37grass_slope_n32_p16_short_block_stuff26get_metatile_graphics_slotEv
                0x0000000008000920        0x4 objs/block_stuff.thumb.o
                0x0000000008000920                grass_slope_n32_p16_short_block_stuff::get_metatile_graphics_slot()
 .text._ZN31grass_in_slope_left_block_stuff19get_metatile_numberEv
                0x0000000008000924        0x4 objs/block_stuff.thumb.o
                0x0000000008000924                grass_in_slope_left_block_stuff::get_metatile_number()
 .text._ZN31grass_in_slope_left_block_stuff18get_palette_numberEv
                0x0000000008000928        0x4 objs/block_stuff.thumb.o
                0x0000000008000928                grass_in_slope_left_block_stuff::get_palette_number()
 .text._ZN31grass_in_slope_left_block_stuff26get_metatile_graphics_slotEv
                0x000000000800092c        0x4 objs/block_stuff.thumb.o
                0x000000000800092c                grass_in_slope_left_block_stuff::get_metatile_graphics_slot()
 .text._ZN32grass_in_slope_right_block_stuff19get_metatile_numberEv
                0x0000000008000930        0x4 objs/block_stuff.thumb.o
                0x0000000008000930                grass_in_slope_right_block_stuff::get_metatile_number()
 .text._ZN32grass_in_slope_right_block_stuff18get_palette_numberEv
                0x0000000008000934        0x4 objs/block_stuff.thumb.o
                0x0000000008000934                grass_in_slope_right_block_stuff::get_palette_number()
 .text._ZN32grass_in_slope_right_block_stuff26get_metatile_graphics_slotEv
                0x0000000008000938        0x4 objs/block_stuff.thumb.o
                0x0000000008000938                grass_in_slope_right_block_stuff::get_metatile_graphics_slot()
 .text.startup  0x000000000800093c      0x244 objs/block_stuff.thumb.o
 .text          0x0000000008000b80      0x150 objs/button_stuff.thumb.o
                0x0000000008000b80                soft_reset_keys_down()
 .text          0x0000000008000cd0        0x0 objs/coll_box_class.arm.o
 .text          0x0000000008000cd0       0x84 objs/coll_box_class.thumb.o
                0x0000000008000cd0                coll_box::set_side_coords(fixed24p8, fixed24p8, fixed24p8, fixed24p8)
                0x0000000008000ce8                coll_box::get_corners(vec2<fixed24p8>&, vec2<fixed24p8>&, vec2<fixed24p8>&, vec2<fixed24p8>&)
                0x0000000008000d18                coll_box::get_block_coords_intersected_by_corners(vec2<long>&, vec2<long>&, vec2<long>&, vec2<long>&)
 .text          0x0000000008000d54        0x0 objs/coll_point_group_class.thumb.o
 .text          0x0000000008000d54        0x8 objs/crt0.o
                0x0000000008000d54                asm_main
 .text          0x0000000008000d5c        0x0 objs/debug_vars.thumb.o
 .text          0x0000000008000d5c        0x0 objs/division_funcs.o
 .text          0x0000000008000d5c       0xd0 objs/dma_stuff.thumb.o
                0x0000000008000d5c                dma3_cpy
                0x0000000008000da4                dma0_cpy
                0x0000000008000dec                dma3_fill
 .text          0x0000000008000e2c       0x20 objs/door_sprite_stuff_class.thumb.o
                0x0000000008000e2c                door_sprite_stuff::init(sprite&, bool)
 .text._ZNK17door_sprite_stuff15get_sprite_typeEv
                0x0000000008000e4c        0x4 objs/door_sprite_stuff_class.thumb.o
                0x0000000008000e4c                door_sprite_stuff::get_sprite_type() const
 .text._ZN17door_sprite_stuff16get_palette_slotER6sprite
                0x0000000008000e50        0x4 objs/door_sprite_stuff_class.thumb.o
                0x0000000008000e50                door_sprite_stuff::get_palette_slot(sprite&)
 .text._ZN17door_sprite_stuff27get_curr_relative_tile_slotER6sprite
                0x0000000008000e54        0x4 objs/door_sprite_stuff_class.thumb.o
                0x0000000008000e54                door_sprite_stuff::get_curr_relative_tile_slot(sprite&)
 .text._ZN17door_sprite_stuff24get_num_active_gfx_tilesEv
                0x0000000008000e58        0x4 objs/door_sprite_stuff_class.thumb.o
                0x0000000008000e58                door_sprite_stuff::get_num_active_gfx_tiles()
 .text._ZNK17door_sprite_stuff12get_tile_arrEv
                0x0000000008000e5c        0x8 objs/door_sprite_stuff_class.thumb.o
                0x0000000008000e5c                door_sprite_stuff::get_tile_arr() const
 .text._ZNK17door_sprite_stuff26get_the_initial_shape_sizeEv
                0x0000000008000e64        0x4 objs/door_sprite_stuff_class.thumb.o
                0x0000000008000e64                door_sprite_stuff::get_the_initial_shape_size() const
 .text._ZNK17door_sprite_stuff29get_the_initial_coll_box_sizeEv
                0x0000000008000e68        0x8 objs/door_sprite_stuff_class.thumb.o
                0x0000000008000e68                door_sprite_stuff::get_the_initial_coll_box_size() const
 .text._ZNK17door_sprite_stuff29get_the_initial_cb_pos_offsetEv
                0x0000000008000e70        0xc objs/door_sprite_stuff_class.thumb.o
                0x0000000008000e70                door_sprite_stuff::get_the_initial_cb_pos_offset() const
 .text          0x0000000008000e7c        0x0 objs/dud_block_stuff_class.thumb.o
 .text          0x0000000008000e7c        0x0 objs/exclam_block_stuff_classes.thumb.o
 .text          0x0000000008000e7c        0x0 objs/eyes_block_stuff_classes.thumb.o
 .text          0x0000000008000e7c        0x0 objs/fixed_classes.thumb.o
 .text          0x0000000008000e7c      0x2c4 objs/game_manager_class.thumb.o
                0x0000000008000e7c                game_manager::reinit_the_game()
                0x0000000008001020                game_manager::title_screen_func()
 .text          0x0000000008001140       0xbc objs/gfx_manager_class.thumb.o
                0x0000000008001140                gfx_manager::upload_bg_palettes_to_target(unsigned short volatile*)
                0x0000000008001180                gfx_manager::copy_bg_pal_mirror_to_bg_pal_ram()
                0x0000000008001198                gfx_manager::upload_sprite_palettes_to_target(unsigned short volatile*)
                0x00000000080011e0                gfx_manager::copy_obj_pal_mirror_to_obj_pal_ram()
 .text._ZNK17sprite_base_stuff12get_tile_arrEv
                0x00000000080011fc        0x8 objs/gfx_manager_class.thumb.o
                0x00000000080011fc                sprite_base_stuff::get_tile_arr() const
 .text._ZN17sprite_base_stuff24get_num_active_gfx_tilesEv
                0x0000000008001204        0x4 objs/gfx_manager_class.thumb.o
                0x0000000008001204                sprite_base_stuff::get_num_active_gfx_tiles()
 .text          0x0000000008001208        0x0 objs/gfx_reg_stuff.arm.o
 .text          0x0000000008001208        0x0 objs/grass_and_dirt_block_stuff_classes.thumb.o
 .text          0x0000000008001208       0xd0 objs/hud_manager_class.thumb.o
                0x0000000008001208                hud_manager::update_hud_in_screenblock_mirror_2d()
                0x00000000080012bc                hud_manager::copy_hud_from_array_2d_helper_to_vram()
 .text.startup  0x00000000080012d8       0x2c objs/hud_manager_class.thumb.o
 .text          0x0000000008001304        0x0 objs/interrupt_stuff.arm.o
 .text          0x0000000008001304      0x16c objs/interrupt_stuff.thumb.o
                0x0000000008001304                irqEnable
                0x0000000008001354                irqSet
                0x0000000008001404                irq_init()
 .text          0x0000000008001470        0x0 objs/level_class.thumb.o
 .text          0x0000000008001470        0x0 objs/log_block_stuff_class.thumb.o
 .text          0x0000000008001470        0x0 objs/main.thumb.o
 .text.startup  0x0000000008001470       0x8c objs/main.thumb.o
                0x0000000008001470                main
 .text          0x00000000080014fc        0x0 objs/memcpy32_from_tonc.o
 .text          0x00000000080014fc        0x0 objs/memory_funcs_8bit.o
 .text          0x00000000080014fc        0x0 objs/muffin_sprite_stuff_classes.thumb.o
 .text          0x00000000080014fc      0x378 objs/oam_entry_classes.thumb.o
                0x00000000080014fc                oam_entry::set_shape_size(oam_entry::shape_size)
                0x00000000080015e0                oam_entry::get_shape_size() const
                0x0000000008001660                oam_entry::set_shape_size_with_vec2(vec2<unsigned long> const&)
                0x00000000080017ac                oam_entry::get_shape_size_as_vec2() const
 .text          0x0000000008001874      0x46c objs/player_sprite_stuff_class.thumb.o
                0x0000000008001874                player_sprite_stuff::get_curr_relative_tile_slot(sprite&)
                0x0000000008001908                player_sprite_stuff::gfx_update(sprite&)
                0x0000000008001954                player_sprite_stuff::init(sprite&, bool)
                0x00000000080019dc                player_sprite_stuff::update_part_1(sprite&)
                0x0000000008001bc8                player_sprite_stuff::init(sprite&, vec2<fixed24p8> const&, vec2<unsigned long> const&, vec2<short>&, bool)
 .text._ZNK19player_sprite_stuff15get_sprite_typeEv
                0x0000000008001ce0        0x4 objs/player_sprite_stuff_class.thumb.o
                0x0000000008001ce0                player_sprite_stuff::get_sprite_type() const
 .text._ZN19player_sprite_stuff16get_palette_slotER6sprite
                0x0000000008001ce4        0x4 objs/player_sprite_stuff_class.thumb.o
                0x0000000008001ce4                player_sprite_stuff::get_palette_slot(sprite&)
 .text._ZN19player_sprite_stuff24get_num_active_gfx_tilesEv
                0x0000000008001ce8        0x4 objs/player_sprite_stuff_class.thumb.o
                0x0000000008001ce8                player_sprite_stuff::get_num_active_gfx_tiles()
 .text._ZNK19player_sprite_stuff12get_tile_arrEv
                0x0000000008001cec        0x8 objs/player_sprite_stuff_class.thumb.o
                0x0000000008001cec                player_sprite_stuff::get_tile_arr() const
 .text._ZNK19player_sprite_stuff26get_the_initial_shape_sizeEv
                0x0000000008001cf4        0x4 objs/player_sprite_stuff_class.thumb.o
                0x0000000008001cf4                player_sprite_stuff::get_the_initial_shape_size() const
 .text._ZNK19player_sprite_stuff29get_the_initial_coll_box_sizeEv
                0x0000000008001cf8        0x8 objs/player_sprite_stuff_class.thumb.o
                0x0000000008001cf8                player_sprite_stuff::get_the_initial_coll_box_size() const
 .text._ZNK19player_sprite_stuff29get_the_initial_cb_pos_offsetEv
                0x0000000008001d00        0xc objs/player_sprite_stuff_class.thumb.o
                0x0000000008001d00                player_sprite_stuff::get_the_initial_cb_pos_offset() const
 .text          0x0000000008001d0c        0x0 objs/practice_17.bin.o
 .text          0x0000000008001d0c        0x0 objs/ram_funcs1.o
 .text          0x0000000008001d0c        0x0 objs/sherwin_gfx.o
 .text          0x0000000008001d0c        0x0 objs/sprite_base_stuff_class.arm.o
 .text          0x0000000008001d0c      0x260 objs/sprite_base_stuff_class.thumb.o
                0x0000000008001d0c                sprite_base_stuff::get_sprite_type() const
                0x0000000008001d10                sprite_base_stuff::init(sprite&, vec2<fixed24p8> const&, vec2<short> const&, bool)
                0x0000000008001d3c                sprite_base_stuff::init(sprite&, vec2<fixed24p8> const&, vec2<unsigned long> const&, vec2<short>&, bool)
                0x0000000008001d68                sprite_base_stuff::set_initial_shape_size_of_sprite(sprite&) const
                0x0000000008001da8                sprite_base_stuff::set_initial_coll_box_stuff_of_sprite(sprite&) const
                0x0000000008001e08                sprite_base_stuff::init(sprite&, bool)
 .text._ZNK17sprite_base_stuff26get_the_initial_shape_sizeEv
                0x0000000008001f6c        0x4 objs/sprite_base_stuff_class.thumb.o
                0x0000000008001f6c                sprite_base_stuff::get_the_initial_shape_size() const
 .text._ZNK17sprite_base_stuff29get_the_initial_coll_box_sizeEv
                0x0000000008001f70        0x8 objs/sprite_base_stuff_class.thumb.o
                0x0000000008001f70                sprite_base_stuff::get_the_initial_coll_box_size() const
 .text._ZNK17sprite_base_stuff29get_the_initial_cb_pos_offsetEv
                0x0000000008001f78        0xc objs/sprite_base_stuff_class.thumb.o
                0x0000000008001f78                sprite_base_stuff::get_the_initial_cb_pos_offset() const
 .text          0x0000000008001f84      0x180 objs/sprite_class.thumb.o
                0x0000000008001f84                sprite::sprite()
                0x0000000008001f84                sprite::sprite()
                0x0000000008002020                sprite::reinit_with_sprite_ipg(sprite_init_param_group*)
                0x0000000008002090                sprite::reinit_with_sprite_ipg(unsigned long, sprite_init_param_group*)
 .text          0x0000000008002104        0x0 objs/sprite_manager_class.arm.o
 .text          0x0000000008002104      0x84c objs/sprite_manager_class.thumb.o
                0x0000000008002104                sprite_manager::init_the_player(vec2<fixed24p8> const&, vec2<unsigned long> const&, vec2<short>&)
                0x00000000080021c0                sprite_manager::some_sprite_init_thing()
                0x00000000080022c4                sprite_manager::initial_sprite_spawning_shared_code(vec2<short>&)
                0x00000000080023ec                sprite_manager::initial_sprite_spawning_at_start_of_level(vec2<short>&)
                0x000000000800245c                sprite_manager::initial_sprite_spawning_at_intra_sublevel_warp(vec2<short>&, unsigned long)
                0x00000000080024c4                sprite_manager::init_horiz_sublevel_sprite_ipg_lists(sprite_init_param_group const*, unsigned long)
 .text._ZN28externally_allocated_sa_listI23sprite_init_param_groupLm256EE8erase_atEi
                0x0000000008002950       0xdc objs/sprite_manager_class.thumb.o
                0x0000000008002950                externally_allocated_sa_list<sprite_init_param_group, 256ul>::erase_at(int)
 .text.startup  0x0000000008002a2c       0x2c objs/sprite_manager_class.thumb.o
 .text          0x0000000008002a58        0x0 objs/sprite_type_stuff.thumb.o
 .text._ZNK19muffin_sprite_stuff15get_sprite_typeEv
                0x0000000008002a58        0x4 objs/sprite_type_stuff.thumb.o
                0x0000000008002a58                muffin_sprite_stuff::get_sprite_type() const
 .text._ZN19muffin_sprite_stuff16get_palette_slotER6sprite
                0x0000000008002a5c        0x4 objs/sprite_type_stuff.thumb.o
                0x0000000008002a5c                muffin_sprite_stuff::get_palette_slot(sprite&)
 .text._ZN19muffin_sprite_stuff27get_curr_relative_tile_slotER6sprite
                0x0000000008002a60        0x4 objs/sprite_type_stuff.thumb.o
                0x0000000008002a60                muffin_sprite_stuff::get_curr_relative_tile_slot(sprite&)
 .text._ZN19muffin_sprite_stuff24get_num_active_gfx_tilesEv
                0x0000000008002a64        0x4 objs/sprite_type_stuff.thumb.o
                0x0000000008002a64                muffin_sprite_stuff::get_num_active_gfx_tiles()
 .text._ZNK19muffin_sprite_stuff12get_tile_arrEv
                0x0000000008002a68        0x8 objs/sprite_type_stuff.thumb.o
                0x0000000008002a68                muffin_sprite_stuff::get_tile_arr() const
 .text._ZNK24fire_muffin_sprite_stuff15get_sprite_typeEv
                0x0000000008002a70        0x4 objs/sprite_type_stuff.thumb.o
                0x0000000008002a70                fire_muffin_sprite_stuff::get_sprite_type() const
 .text._ZN24fire_muffin_sprite_stuff16get_palette_slotER6sprite
                0x0000000008002a74        0x4 objs/sprite_type_stuff.thumb.o
                0x0000000008002a74                fire_muffin_sprite_stuff::get_palette_slot(sprite&)
 .text._ZN24fire_muffin_sprite_stuff27get_curr_relative_tile_slotER6sprite
                0x0000000008002a78        0x4 objs/sprite_type_stuff.thumb.o
                0x0000000008002a78                fire_muffin_sprite_stuff::get_curr_relative_tile_slot(sprite&)
 .text._ZN24fire_muffin_sprite_stuff24get_num_active_gfx_tilesEv
                0x0000000008002a7c        0x4 objs/sprite_type_stuff.thumb.o
                0x0000000008002a7c                fire_muffin_sprite_stuff::get_num_active_gfx_tiles()
 .text._ZNK24fire_muffin_sprite_stuff12get_tile_arrEv
                0x0000000008002a80        0x8 objs/sprite_type_stuff.thumb.o
                0x0000000008002a80                fire_muffin_sprite_stuff::get_tile_arr() const
 .text._ZNK23ice_muffin_sprite_stuff15get_sprite_typeEv
                0x0000000008002a88        0x4 objs/sprite_type_stuff.thumb.o
                0x0000000008002a88                ice_muffin_sprite_stuff::get_sprite_type() const
 .text._ZN23ice_muffin_sprite_stuff16get_palette_slotER6sprite
                0x0000000008002a8c        0x4 objs/sprite_type_stuff.thumb.o
                0x0000000008002a8c                ice_muffin_sprite_stuff::get_palette_slot(sprite&)
 .text._ZN23ice_muffin_sprite_stuff27get_curr_relative_tile_slotER6sprite
                0x0000000008002a90        0x4 objs/sprite_type_stuff.thumb.o
                0x0000000008002a90                ice_muffin_sprite_stuff::get_curr_relative_tile_slot(sprite&)
 .text._ZN23ice_muffin_sprite_stuff24get_num_active_gfx_tilesEv
                0x0000000008002a94        0x4 objs/sprite_type_stuff.thumb.o
                0x0000000008002a94                ice_muffin_sprite_stuff::get_num_active_gfx_tiles()
 .text._ZNK23ice_muffin_sprite_stuff12get_tile_arrEv
                0x0000000008002a98        0x8 objs/sprite_type_stuff.thumb.o
                0x0000000008002a98                ice_muffin_sprite_stuff::get_tile_arr() const
 .text._ZNK29chocolate_muffin_sprite_stuff15get_sprite_typeEv
                0x0000000008002aa0        0x4 objs/sprite_type_stuff.thumb.o
                0x0000000008002aa0                chocolate_muffin_sprite_stuff::get_sprite_type() const
 .text._ZN29chocolate_muffin_sprite_stuff16get_palette_slotER6sprite
                0x0000000008002aa4        0x4 objs/sprite_type_stuff.thumb.o
                0x0000000008002aa4                chocolate_muffin_sprite_stuff::get_palette_slot(sprite&)
 .text._ZN29chocolate_muffin_sprite_stuff27get_curr_relative_tile_slotER6sprite
                0x0000000008002aa8        0x4 objs/sprite_type_stuff.thumb.o
                0x0000000008002aa8                chocolate_muffin_sprite_stuff::get_curr_relative_tile_slot(sprite&)
 .text._ZN29chocolate_muffin_sprite_stuff24get_num_active_gfx_tilesEv
                0x0000000008002aac        0x4 objs/sprite_type_stuff.thumb.o
                0x0000000008002aac                chocolate_muffin_sprite_stuff::get_num_active_gfx_tiles()
 .text._ZNK29chocolate_muffin_sprite_stuff12get_tile_arrEv
                0x0000000008002ab0        0x8 objs/sprite_type_stuff.thumb.o
                0x0000000008002ab0                chocolate_muffin_sprite_stuff::get_tile_arr() const
 .text          0x0000000008002ab8        0x0 objs/sublevel_class.thumb.o
 .text          0x0000000008002ab8        0x0 objs/test_level.thumb.o
 .text.startup  0x0000000008002ab8      0x120 objs/test_level.thumb.o
 .text          0x0000000008002bd8        0x0 objs/text_8x16_gfx.o
 .text          0x0000000008002bd8        0x0 objs/text_8x8_thick_gfx.o
 .text          0x0000000008002bd8        0x0 objs/text_8x8_thin_gfx.o
 .text          0x0000000008002bd8        0x0 objs/the_block_gfx.o
 .text          0x0000000008002bd8        0x0 objs/the_door_gfx.o
 .text          0x0000000008002bd8        0x0 objs/the_golem_enemy_gfx.o
 .text          0x0000000008002bd8        0x0 objs/the_powerup_gfx.o
 .text          0x0000000008002bd8        0x0 objs/title_screen.o
 .text          0x0000000008002bd8        0x0 objs/waffle_sprite_stuff_class.arm.o
 .text          0x0000000008002bd8        0x0 objs/waffle_sprite_stuff_class.thumb.o
 .text._ZNK19waffle_sprite_stuff15get_sprite_typeEv
                0x0000000008002bd8        0x4 objs/waffle_sprite_stuff_class.thumb.o
                0x0000000008002bd8                waffle_sprite_stuff::get_sprite_type() const
 .text._ZN19waffle_sprite_stuff16get_palette_slotER6sprite
                0x0000000008002bdc        0x4 objs/waffle_sprite_stuff_class.thumb.o
                0x0000000008002bdc                waffle_sprite_stuff::get_palette_slot(sprite&)
 .text._ZN19waffle_sprite_stuff27get_curr_relative_tile_slotER6sprite
                0x0000000008002be0        0x4 objs/waffle_sprite_stuff_class.thumb.o
                0x0000000008002be0                waffle_sprite_stuff::get_curr_relative_tile_slot(sprite&)
 .text._ZN19waffle_sprite_stuff24get_num_active_gfx_tilesEv
                0x0000000008002be4        0x4 objs/waffle_sprite_stuff_class.thumb.o
                0x0000000008002be4                waffle_sprite_stuff::get_num_active_gfx_tiles()
 .text._ZNK19waffle_sprite_stuff12get_tile_arrEv
                0x0000000008002be8        0x8 objs/waffle_sprite_stuff_class.thumb.o
                0x0000000008002be8                waffle_sprite_stuff::get_tile_arr() const
 .text._ZN19waffle_sprite_stuff21block_collision_stuffER6sprite
                0x0000000008002bf0       0x14 objs/waffle_sprite_stuff_class.thumb.o
                0x0000000008002bf0                waffle_sprite_stuff::block_collision_stuff(sprite&)
 .text          0x0000000008002c04        0x0 objs/wood_block_stuff_classes.thumb.o
 .text          0x0000000008002c04      0x148 /opt/devkitpro/devkitARM/bin/../lib/gcc/arm-none-eabi/4.9.2/libgcc.a(_divsi3.o)
                0x0000000008002c04                __aeabi_idiv
                0x0000000008002c04                __divsi3
                0x0000000008002d2c                __aeabi_idivmod
 .text          0x0000000008002d4c        0x4 /opt/devkitpro/devkitARM/bin/../lib/gcc/arm-none-eabi/4.9.2/libgcc.a(_dvmd_tls.o)
                0x0000000008002d4c                __aeabi_ldiv0
                0x0000000008002d4c                __aeabi_idiv0
 .text          0x0000000008002d50     0x10dc /opt/devkitpro/devkitARM/bin/../lib/gcc/arm-none-eabi/4.9.2/libgcc.a(unwind-arm.o)
                0x0000000008003218                _Unwind_GetCFA
                0x0000000008003220                __gnu_Unwind_RaiseException
                0x00000000080032d0                __gnu_Unwind_ForcedUnwind
                0x00000000080032f4                __gnu_Unwind_Resume
                0x0000000008003368                __gnu_Unwind_Resume_or_Rethrow
                0x0000000008003384                _Unwind_Complete
                0x0000000008003388                _Unwind_DeleteException
                0x00000000080033a0                _Unwind_VRS_Get
                0x000000000800342c                _Unwind_VRS_Set
                0x00000000080034bc                __gnu_Unwind_Backtrace
                0x00000000080039dc                __aeabi_unwind_cpp_pr0
                0x00000000080039e4                __aeabi_unwind_cpp_pr1
                0x00000000080039ec                __aeabi_unwind_cpp_pr2
                0x00000000080039f4                _Unwind_VRS_Pop
 .text          0x0000000008003e2c      0x1b0 /opt/devkitpro/devkitARM/bin/../lib/gcc/arm-none-eabi/4.9.2/libgcc.a(libunwind.o)
                0x0000000008003e2c                __restore_core_regs
                0x0000000008003e2c                restore_core_regs
                0x0000000008003e48                __gnu_Unwind_Restore_VFP
                0x0000000008003e50                __gnu_Unwind_Save_VFP
                0x0000000008003e58                __gnu_Unwind_Restore_VFP_D
                0x0000000008003e60                __gnu_Unwind_Save_VFP_D
                0x0000000008003e68                __gnu_Unwind_Restore_VFP_D_16_to_31
                0x0000000008003e70                __gnu_Unwind_Save_VFP_D_16_to_31
                0x0000000008003e78                __gnu_Unwind_Restore_WMMXD
                0x0000000008003ebc                __gnu_Unwind_Save_WMMXD
                0x0000000008003f00                __gnu_Unwind_Restore_WMMXC
                0x0000000008003f14                __gnu_Unwind_Save_WMMXC
                0x0000000008003f28                ___Unwind_RaiseException
                0x0000000008003f28                _Unwind_RaiseException
                0x0000000008003f4c                ___Unwind_Resume
                0x0000000008003f4c                _Unwind_Resume
                0x0000000008003f70                _Unwind_Resume_or_Rethrow
                0x0000000008003f70                ___Unwind_Resume_or_Rethrow
                0x0000000008003f94                ___Unwind_ForcedUnwind
                0x0000000008003f94                _Unwind_ForcedUnwind
                0x0000000008003fb8                _Unwind_Backtrace
                0x0000000008003fb8                ___Unwind_Backtrace
 .text          0x0000000008003fdc      0x4e4 /opt/devkitpro/devkitARM/bin/../lib/gcc/arm-none-eabi/4.9.2/libgcc.a(pr-support.o)
                0x0000000008004070                __gnu_unwind_execute
                0x0000000008004434                __gnu_unwind_frame
                0x000000000800447c                _Unwind_GetRegionStart
                0x0000000008004490                _Unwind_GetLanguageSpecificData
                0x00000000080044b0                _Unwind_GetDataRelBase
                0x00000000080044b8                _Unwind_GetTextRelBase
 .text          0x00000000080044c0        0x0 /opt/devkitpro/devkitARM/bin/../lib/gcc/arm-none-eabi/4.9.2/../../../../arm-none-eabi/lib/libstdc++.a(eh_arm.o)
 .text.__cxa_end_cleanup
                0x00000000080044c0       0x10 /opt/devkitpro/devkitARM/bin/../lib/gcc/arm-none-eabi/4.9.2/../../../../arm-none-eabi/lib/libstdc++.a(eh_arm.o)
                0x00000000080044c0                __cxa_end_cleanup
 .text.__cxa_type_match
                0x00000000080044d0      0x158 /opt/devkitpro/devkitARM/bin/../lib/gcc/arm-none-eabi/4.9.2/../../../../arm-none-eabi/lib/libstdc++.a(eh_arm.o)
                0x00000000080044d0                __cxa_type_match
 .text.__cxa_begin_cleanup
                0x0000000008004628       0xbc /opt/devkitpro/devkitARM/bin/../lib/gcc/arm-none-eabi/4.9.2/../../../../arm-none-eabi/lib/libstdc++.a(eh_arm.o)
                0x0000000008004628                __cxa_begin_cleanup
 .text.__gnu_end_cleanup
                0x00000000080046e4       0xbc /opt/devkitpro/devkitARM/bin/../lib/gcc/arm-none-eabi/4.9.2/../../../../arm-none-eabi/lib/libstdc++.a(eh_arm.o)
                0x00000000080046e4                __gnu_end_cleanup
 .text          0x00000000080047a0        0x0 /opt/devkitpro/devkitARM/bin/../lib/gcc/arm-none-eabi/4.9.2/../../../../arm-none-eabi/lib/libstdc++.a(eh_globals.o)
 .text.__cxa_get_globals_fast
                0x00000000080047a0        0xc /opt/devkitpro/devkitARM/bin/../lib/gcc/arm-none-eabi/4.9.2/../../../../arm-none-eabi/lib/libstdc++.a(eh_globals.o)
                0x00000000080047a0                __cxa_get_globals_fast
 .text.__cxa_get_globals
                0x00000000080047ac        0xc /opt/devkitpro/devkitARM/bin/../lib/gcc/arm-none-eabi/4.9.2/../../../../arm-none-eabi/lib/libstdc++.a(eh_globals.o)
                0x00000000080047ac                __cxa_get_globals
 .text          0x00000000080047b8        0x0 /opt/devkitpro/devkitARM/bin/../lib/gcc/arm-none-eabi/4.9.2/../../../../arm-none-eabi/lib/libstdc++.a(atexit_arm.o)
 .text.__aeabi_atexit
                0x00000000080047b8       0x1c /opt/devkitpro/devkitARM/bin/../lib/gcc/arm-none-eabi/4.9.2/../../../../arm-none-eabi/lib/libstdc++.a(atexit_arm.o)
                0x00000000080047b8                __aeabi_atexit
 .text          0x00000000080047d4        0x0 /opt/devkitpro/devkitARM/bin/../lib/gcc/arm-none-eabi/4.9.2/../../../../arm-none-eabi/lib/libstdc++.a(del_op.o)
 .text._ZdlPv   0x00000000080047d4       0x10 /opt/devkitpro/devkitARM/bin/../lib/gcc/arm-none-eabi/4.9.2/../../../../arm-none-eabi/lib/libstdc++.a(del_op.o)
                0x00000000080047d4                operator delete(void*)
 .text          0x00000000080047e4        0x0 /opt/devkitpro/devkitARM/bin/../lib/gcc/arm-none-eabi/4.9.2/../../../../arm-none-eabi/lib/libstdc++.a(si_class_type_info.o)
 .text._ZN10__cxxabiv120__si_class_type_infoD2Ev
                0x00000000080047e4       0x24 /opt/devkitpro/devkitARM/bin/../lib/gcc/arm-none-eabi/4.9.2/../../../../arm-none-eabi/lib/libstdc++.a(si_class_type_info.o)
                0x00000000080047e4                __cxxabiv1::__si_class_type_info::~__si_class_type_info()
                0x00000000080047e4                __cxxabiv1::__si_class_type_info::~__si_class_type_info()
 .text._ZN10__cxxabiv120__si_class_type_infoD0Ev
                0x0000000008004808       0x2c /opt/devkitpro/devkitARM/bin/../lib/gcc/arm-none-eabi/4.9.2/../../../../arm-none-eabi/lib/libstdc++.a(si_class_type_info.o)
                0x0000000008004808                __cxxabiv1::__si_class_type_info::~__si_class_type_info()
 .text._ZNK10__cxxabiv120__si_class_type_info20__do_find_public_srcEiPKvPKNS_17__class_type_infoES2_
                0x0000000008004834       0x6c /opt/devkitpro/devkitARM/bin/../lib/gcc/arm-none-eabi/4.9.2/../../../../arm-none-eabi/lib/libstdc++.a(si_class_type_info.o)
                0x0000000008004834                __cxxabiv1::__si_class_type_info::__do_find_public_src(int, void const*, __cxxabiv1::__class_type_info const*, void const*) const
 .text._ZNK10__cxxabiv120__si_class_type_info12__do_dyncastEiNS_17__class_type_info10__sub_kindEPKS1_PKvS4_S6_RNS1_16__dyncast_resultE
                0x00000000080048a0       0xe0 /opt/devkitpro/devkitARM/bin/../lib/gcc/arm-none-eabi/4.9.2/../../../../arm-none-eabi/lib/libstdc++.a(si_class_type_info.o)
                0x00000000080048a0                __cxxabiv1::__si_class_type_info::__do_dyncast(int, __cxxabiv1::__class_type_info::__sub_kind, __cxxabiv1::__class_type_info const*, void const*, __cxxabiv1::__class_type_info const*, void const*, __cxxabiv1::__class_type_info::__dyncast_result&) const
 .text._ZNK10__cxxabiv120__si_class_type_info11__do_upcastEPKNS_17__class_type_infoEPKvRNS1_15__upcast_resultE
                0x0000000008004980       0x48 /opt/devkitpro/devkitARM/bin/../lib/gcc/arm-none-eabi/4.9.2/../../../../arm-none-eabi/lib/libstdc++.a(si_class_type_info.o)
                0x0000000008004980                __cxxabiv1::__si_class_type_info::__do_upcast(__cxxabiv1::__class_type_info const*, void const*, __cxxabiv1::__class_type_info::__upcast_result&) const
 .text          0x00000000080049c8        0x0 /opt/devkitpro/devkitARM/bin/../lib/gcc/arm-none-eabi/4.9.2/../../../../arm-none-eabi/lib/libstdc++.a(eh_exception.o)
 .text._ZNSt9exceptionD2Ev
                0x00000000080049c8        0x4 /opt/devkitpro/devkitARM/bin/../lib/gcc/arm-none-eabi/4.9.2/../../../../arm-none-eabi/lib/libstdc++.a(eh_exception.o)
                0x00000000080049c8                std::exception::~exception()
                0x00000000080049c8                std::exception::~exception()
 .text._ZNSt13bad_exceptionD2Ev
                0x00000000080049cc        0x4 /opt/devkitpro/devkitARM/bin/../lib/gcc/arm-none-eabi/4.9.2/../../../../arm-none-eabi/lib/libstdc++.a(eh_exception.o)
                0x00000000080049cc                std::bad_exception::~bad_exception()
                0x00000000080049cc                std::bad_exception::~bad_exception()
 .text._ZNKSt9exception4whatEv
                0x00000000080049d0        0xc /opt/devkitpro/devkitARM/bin/../lib/gcc/arm-none-eabi/4.9.2/../../../../arm-none-eabi/lib/libstdc++.a(eh_exception.o)
                0x00000000080049d0                std::exception::what() const
 .text._ZNKSt13bad_exception4whatEv
                0x00000000080049dc        0xc /opt/devkitpro/devkitARM/bin/../lib/gcc/arm-none-eabi/4.9.2/../../../../arm-none-eabi/lib/libstdc++.a(eh_exception.o)
                0x00000000080049dc                std::bad_exception::what() const
 .text._ZNSt9exceptionD0Ev
                0x00000000080049e8       0x18 /opt/devkitpro/devkitARM/bin/../lib/gcc/arm-none-eabi/4.9.2/../../../../arm-none-eabi/lib/libstdc++.a(eh_exception.o)
                0x00000000080049e8                std::exception::~exception()
 .text._ZNSt13bad_exceptionD0Ev
                0x0000000008004a00       0x18 /opt/devkitpro/devkitARM/bin/../lib/gcc/arm-none-eabi/4.9.2/../../../../arm-none-eabi/lib/libstdc++.a(eh_exception.o)
                0x0000000008004a00                std::bad_exception::~bad_exception()
 .text._ZN10__cxxabiv115__forced_unwindD2Ev
                0x0000000008004a18        0x4 /opt/devkitpro/devkitARM/bin/../lib/gcc/arm-none-eabi/4.9.2/../../../../arm-none-eabi/lib/libstdc++.a(eh_exception.o)
                0x0000000008004a18                __cxxabiv1::__forced_unwind::~__forced_unwind()
                0x0000000008004a18                __cxxabiv1::__forced_unwind::~__forced_unwind()
 .text._ZN10__cxxabiv115__forced_unwindD0Ev
                0x0000000008004a1c       0x18 /opt/devkitpro/devkitARM/bin/../lib/gcc/arm-none-eabi/4.9.2/../../../../arm-none-eabi/lib/libstdc++.a(eh_exception.o)
                0x0000000008004a1c                __cxxabiv1::__forced_unwind::~__forced_unwind()
 .text._ZN10__cxxabiv119__foreign_exceptionD2Ev
                0x0000000008004a34        0x4 /opt/devkitpro/devkitARM/bin/../lib/gcc/arm-none-eabi/4.9.2/../../../../arm-none-eabi/lib/libstdc++.a(eh_exception.o)
                0x0000000008004a34                __cxxabiv1::__foreign_exception::~__foreign_exception()
                0x0000000008004a34                __cxxabiv1::__foreign_exception::~__foreign_exception()
 .text._ZN10__cxxabiv119__foreign_exceptionD0Ev
                0x0000000008004a38       0x18 /opt/devkitpro/devkitARM/bin/../lib/gcc/arm-none-eabi/4.9.2/../../../../arm-none-eabi/lib/libstdc++.a(eh_exception.o)
                0x0000000008004a38                __cxxabiv1::__foreign_exception::~__foreign_exception()
 .text          0x0000000008004a50        0x0 /opt/devkitpro/devkitARM/bin/../lib/gcc/arm-none-eabi/4.9.2/../../../../arm-none-eabi/lib/libstdc++.a(eh_terminate.o)
 .text._ZN10__cxxabiv111__terminateEPFvvE
                0x0000000008004a50       0x34 /opt/devkitpro/devkitARM/bin/../lib/gcc/arm-none-eabi/4.9.2/../../../../arm-none-eabi/lib/libstdc++.a(eh_terminate.o)
                0x0000000008004a50                __cxxabiv1::__terminate(void (*)())
 .text._ZSt9terminatev
                0x0000000008004a84       0x14 /opt/devkitpro/devkitARM/bin/../lib/gcc/arm-none-eabi/4.9.2/../../../../arm-none-eabi/lib/libstdc++.a(eh_terminate.o)
                0x0000000008004a84                std::terminate()
 .text._ZN10__cxxabiv112__unexpectedEPFvvE
                0x0000000008004a98       0x10 /opt/devkitpro/devkitARM/bin/../lib/gcc/arm-none-eabi/4.9.2/../../../../arm-none-eabi/lib/libstdc++.a(eh_terminate.o)
                0x0000000008004a98                __cxxabiv1::__unexpected(void (*)())
 .text._ZSt10unexpectedv
                0x0000000008004aa8       0x14 /opt/devkitpro/devkitARM/bin/../lib/gcc/arm-none-eabi/4.9.2/../../../../arm-none-eabi/lib/libstdc++.a(eh_terminate.o)
                0x0000000008004aa8                std::unexpected()
 .text._ZSt13set_terminatePFvvE
                0x0000000008004abc       0x18 /opt/devkitpro/devkitARM/bin/../lib/gcc/arm-none-eabi/4.9.2/../../../../arm-none-eabi/lib/libstdc++.a(eh_terminate.o)
                0x0000000008004abc                std::set_terminate(void (*)())
 .text._ZSt13get_terminatev
                0x0000000008004ad4       0x10 /opt/devkitpro/devkitARM/bin/../lib/gcc/arm-none-eabi/4.9.2/../../../../arm-none-eabi/lib/libstdc++.a(eh_terminate.o)
                0x0000000008004ad4                std::get_terminate()
 .text._ZSt14set_unexpectedPFvvE
                0x0000000008004ae4       0x18 /opt/devkitpro/devkitARM/bin/../lib/gcc/arm-none-eabi/4.9.2/../../../../arm-none-eabi/lib/libstdc++.a(eh_terminate.o)
                0x0000000008004ae4                std::set_unexpected(void (*)())
 .text._ZSt14get_unexpectedv
                0x0000000008004afc       0x10 /opt/devkitpro/devkitARM/bin/../lib/gcc/arm-none-eabi/4.9.2/../../../../arm-none-eabi/lib/libstdc++.a(eh_terminate.o)
                0x0000000008004afc                std::get_unexpected()
 .text          0x0000000008004b0c        0x0 /opt/devkitpro/devkitARM/bin/../lib/gcc/arm-none-eabi/4.9.2/../../../../arm-none-eabi/lib/libstdc++.a(tinfo.o)
 .text._ZNSt9type_infoD2Ev
                0x0000000008004b0c        0x4 /opt/devkitpro/devkitARM/bin/../lib/gcc/arm-none-eabi/4.9.2/../../../../arm-none-eabi/lib/libstdc++.a(tinfo.o)
                0x0000000008004b0c                std::type_info::~type_info()
                0x0000000008004b0c                std::type_info::~type_info()
 .text._ZNKSt9type_info14__is_pointer_pEv
                0x0000000008004b10        0x8 /opt/devkitpro/devkitARM/bin/../lib/gcc/arm-none-eabi/4.9.2/../../../../arm-none-eabi/lib/libstdc++.a(tinfo.o)
                0x0000000008004b10                std::type_info::__is_pointer_p() const
 .text._ZNKSt9type_info15__is_function_pEv
                0x0000000008004b18        0x8 /opt/devkitpro/devkitARM/bin/../lib/gcc/arm-none-eabi/4.9.2/../../../../arm-none-eabi/lib/libstdc++.a(tinfo.o)
                0x0000000008004b18                std::type_info::__is_function_p() const
 .text._ZNKSt9type_info11__do_upcastEPKN10__cxxabiv117__class_type_infoEPPv
                0x0000000008004b20        0x8 /opt/devkitpro/devkitARM/bin/../lib/gcc/arm-none-eabi/4.9.2/../../../../arm-none-eabi/lib/libstdc++.a(tinfo.o)
                0x0000000008004b20                std::type_info::__do_upcast(__cxxabiv1::__class_type_info const*, void**) const
 .text._ZNSt9type_infoD0Ev
                0x0000000008004b28       0x18 /opt/devkitpro/devkitARM/bin/../lib/gcc/arm-none-eabi/4.9.2/../../../../arm-none-eabi/lib/libstdc++.a(tinfo.o)
                0x0000000008004b28                std::type_info::~type_info()
 .text._ZNKSt9type_infoeqERKS_
                0x0000000008004b40       0x4c /opt/devkitpro/devkitARM/bin/../lib/gcc/arm-none-eabi/4.9.2/../../../../arm-none-eabi/lib/libstdc++.a(tinfo.o)
                0x0000000008004b40                std::type_info::operator==(std::type_info const&) const
 .text._ZNKSt9type_info10__do_catchEPKS_PPvj
                0x0000000008004b8c        0x4 /opt/devkitpro/devkitARM/bin/../lib/gcc/arm-none-eabi/4.9.2/../../../../arm-none-eabi/lib/libstdc++.a(tinfo.o)
                0x0000000008004b8c                std::type_info::__do_catch(std::type_info const*, void**, unsigned int) const
 .text          0x0000000008004b90        0x0 /opt/devkitpro/devkitARM/bin/../lib/gcc/arm-none-eabi/4.9.2/../../../../arm-none-eabi/lib/libstdc++.a(eh_call.o)
 .text._ZN10__cxxabiv1L24__is_gxx_exception_classEPc
                0x0000000008004b90       0x70 /opt/devkitpro/devkitARM/bin/../lib/gcc/arm-none-eabi/4.9.2/../../../../arm-none-eabi/lib/libstdc++.a(eh_call.o)
 .text.__cxa_call_terminate
                0x0000000008004c00       0x2c /opt/devkitpro/devkitARM/bin/../lib/gcc/arm-none-eabi/4.9.2/../../../../arm-none-eabi/lib/libstdc++.a(eh_call.o)
                0x0000000008004c00                __cxa_call_terminate
 .text.__cxa_call_unexpected
                0x0000000008004c2c      0x138 /opt/devkitpro/devkitARM/bin/../lib/gcc/arm-none-eabi/4.9.2/../../../../arm-none-eabi/lib/libstdc++.a(eh_call.o)
                0x0000000008004c2c                __cxa_call_unexpected
 .text          0x0000000008004d64        0x0 /opt/devkitpro/devkitARM/bin/../lib/gcc/arm-none-eabi/4.9.2/../../../../arm-none-eabi/lib/libstdc++.a(new_op.o)
 .text._Znwj    0x0000000008004d64       0x74 /opt/devkitpro/devkitARM/bin/../lib/gcc/arm-none-eabi/4.9.2/../../../../arm-none-eabi/lib/libstdc++.a(new_op.o)
                0x0000000008004d64                operator new(unsigned int)
 .text          0x0000000008004dd8        0x0 /opt/devkitpro/devkitARM/bin/../lib/gcc/arm-none-eabi/4.9.2/../../../../arm-none-eabi/lib/libstdc++.a(new_handler.o)
 .text._ZSt15set_new_handlerPFvvE
                0x0000000008004dd8       0x18 /opt/devkitpro/devkitARM/bin/../lib/gcc/arm-none-eabi/4.9.2/../../../../arm-none-eabi/lib/libstdc++.a(new_handler.o)
                0x0000000008004dd8                std::set_new_handler(void (*)())
 .text._ZSt15get_new_handlerv
                0x0000000008004df0       0x10 /opt/devkitpro/devkitARM/bin/../lib/gcc/arm-none-eabi/4.9.2/../../../../arm-none-eabi/lib/libstdc++.a(new_handler.o)
                0x0000000008004df0                std::get_new_handler()
 .text          0x0000000008004e00        0x0 /opt/devkitpro/devkitARM/bin/../lib/gcc/arm-none-eabi/4.9.2/../../../../arm-none-eabi/lib/libstdc++.a(eh_term_handler.o)
 .text          0x0000000008004e00        0x0 /opt/devkitpro/devkitARM/bin/../lib/gcc/arm-none-eabi/4.9.2/../../../../arm-none-eabi/lib/libstdc++.a(eh_personality.o)
 .text._ZL12read_sleb128PKhPl
                0x0000000008004e00       0x44 /opt/devkitpro/devkitARM/bin/../lib/gcc/arm-none-eabi/4.9.2/../../../../arm-none-eabi/lib/libstdc++.a(eh_personality.o)
 .text._ZL28read_encoded_value_with_basehjPKhPj
                0x0000000008004e44      0x1b0 /opt/devkitpro/devkitARM/bin/../lib/gcc/arm-none-eabi/4.9.2/../../../../arm-none-eabi/lib/libstdc++.a(eh_personality.o)
 .text._ZL21base_of_encoded_valuehP15_Unwind_Context
                0x0000000008004ff4       0x8c /opt/devkitpro/devkitARM/bin/../lib/gcc/arm-none-eabi/4.9.2/../../../../arm-none-eabi/lib/libstdc++.a(eh_personality.o)
 .text._ZL17parse_lsda_headerP15_Unwind_ContextPKhP16lsda_header_info
                0x0000000008005080       0xe0 /opt/devkitpro/devkitARM/bin/../lib/gcc/arm-none-eabi/4.9.2/../../../../arm-none-eabi/lib/libstdc++.a(eh_personality.o)
 .text.__gxx_personality_v0
                0x0000000008005160      0x62c /opt/devkitpro/devkitARM/bin/../lib/gcc/arm-none-eabi/4.9.2/../../../../arm-none-eabi/lib/libstdc++.a(eh_personality.o)
                0x0000000008005160                __gxx_personality_v0
 .text          0x000000000800578c        0x0 /opt/devkitpro/devkitARM/bin/../lib/gcc/arm-none-eabi/4.9.2/../../../../arm-none-eabi/lib/libstdc++.a(class_type_info.o)
 .text._ZNK10__cxxabiv117__class_type_info11__do_upcastEPKS0_PPv
                0x000000000800578c       0x64 /opt/devkitpro/devkitARM/bin/../lib/gcc/arm-none-eabi/4.9.2/../../../../arm-none-eabi/lib/libstdc++.a(class_type_info.o)
                0x000000000800578c                __cxxabiv1::__class_type_info::__do_upcast(__cxxabiv1::__class_type_info const*, void**) const
 .text._ZNK10__cxxabiv117__class_type_info20__do_find_public_srcEiPKvPKS0_S2_
                0x00000000080057f0       0x14 /opt/devkitpro/devkitARM/bin/../lib/gcc/arm-none-eabi/4.9.2/../../../../arm-none-eabi/lib/libstdc++.a(class_type_info.o)
                0x00000000080057f0                __cxxabiv1::__class_type_info::__do_find_public_src(int, void const*, __cxxabiv1::__class_type_info const*, void const*) const
 .text._ZN10__cxxabiv117__class_type_infoD2Ev
                0x0000000008005804       0x24 /opt/devkitpro/devkitARM/bin/../lib/gcc/arm-none-eabi/4.9.2/../../../../arm-none-eabi/lib/libstdc++.a(class_type_info.o)
                0x0000000008005804                __cxxabiv1::__class_type_info::~__class_type_info()
                0x0000000008005804                __cxxabiv1::__class_type_info::~__class_type_info()
 .text._ZN10__cxxabiv117__class_type_infoD0Ev
                0x0000000008005828       0x2c /opt/devkitpro/devkitARM/bin/../lib/gcc/arm-none-eabi/4.9.2/../../../../arm-none-eabi/lib/libstdc++.a(class_type_info.o)
                0x0000000008005828                __cxxabiv1::__class_type_info::~__class_type_info()
 .text._ZNK10__cxxabiv117__class_type_info11__do_upcastEPKS0_PKvRNS0_15__upcast_resultE
                0x0000000008005854       0x30 /opt/devkitpro/devkitARM/bin/../lib/gcc/arm-none-eabi/4.9.2/../../../../arm-none-eabi/lib/libstdc++.a(class_type_info.o)
                0x0000000008005854                __cxxabiv1::__class_type_info::__do_upcast(__cxxabiv1::__class_type_info const*, void const*, __cxxabiv1::__class_type_info::__upcast_result&) const
 .text._ZNK10__cxxabiv117__class_type_info10__do_catchEPKSt9type_infoPPvj
                0x0000000008005884       0x4c /opt/devkitpro/devkitARM/bin/../lib/gcc/arm-none-eabi/4.9.2/../../../../arm-none-eabi/lib/libstdc++.a(class_type_info.o)
                0x0000000008005884                __cxxabiv1::__class_type_info::__do_catch(std::type_info const*, void**, unsigned int) const
 .text._ZNK10__cxxabiv117__class_type_info12__do_dyncastEiNS0_10__sub_kindEPKS0_PKvS3_S5_RNS0_16__dyncast_resultE
                0x00000000080058d0       0x7c /opt/devkitpro/devkitARM/bin/../lib/gcc/arm-none-eabi/4.9.2/../../../../arm-none-eabi/lib/libstdc++.a(class_type_info.o)
                0x00000000080058d0                __cxxabiv1::__class_type_info::__do_dyncast(int, __cxxabiv1::__class_type_info::__sub_kind, __cxxabiv1::__class_type_info const*, void const*, __cxxabiv1::__class_type_info const*, void const*, __cxxabiv1::__class_type_info::__dyncast_result&) const
 .text          0x000000000800594c        0x0 /opt/devkitpro/devkitARM/bin/../lib/gcc/arm-none-eabi/4.9.2/../../../../arm-none-eabi/lib/libstdc++.a(bad_alloc.o)
 .text._ZNKSt9bad_alloc4whatEv
                0x000000000800594c        0xc /opt/devkitpro/devkitARM/bin/../lib/gcc/arm-none-eabi/4.9.2/../../../../arm-none-eabi/lib/libstdc++.a(bad_alloc.o)
                0x000000000800594c                std::bad_alloc::what() const
 .text._ZNSt9bad_allocD2Ev
                0x0000000008005958       0x24 /opt/devkitpro/devkitARM/bin/../lib/gcc/arm-none-eabi/4.9.2/../../../../arm-none-eabi/lib/libstdc++.a(bad_alloc.o)
                0x0000000008005958                std::bad_alloc::~bad_alloc()
                0x0000000008005958                std::bad_alloc::~bad_alloc()
 .text._ZNSt9bad_allocD0Ev
                0x000000000800597c       0x2c /opt/devkitpro/devkitARM/bin/../lib/gcc/arm-none-eabi/4.9.2/../../../../arm-none-eabi/lib/libstdc++.a(bad_alloc.o)
                0x000000000800597c                std::bad_alloc::~bad_alloc()
 .text          0x00000000080059a8        0x0 /opt/devkitpro/devkitARM/bin/../lib/gcc/arm-none-eabi/4.9.2/../../../../arm-none-eabi/lib/libstdc++.a(eh_throw.o)
 .text._ZL23__gxx_exception_cleanup19_Unwind_Reason_CodeP21_Unwind_Control_Block
                0x00000000080059a8       0x3c /opt/devkitpro/devkitARM/bin/../lib/gcc/arm-none-eabi/4.9.2/../../../../arm-none-eabi/lib/libstdc++.a(eh_throw.o)
 .text.__cxa_throw
                0x00000000080059e4       0x9c /opt/devkitpro/devkitARM/bin/../lib/gcc/arm-none-eabi/4.9.2/../../../../arm-none-eabi/lib/libstdc++.a(eh_throw.o)
                0x00000000080059e4                __cxa_throw
 .text.__cxa_rethrow
                0x0000000008005a80       0xb0 /opt/devkitpro/devkitARM/bin/../lib/gcc/arm-none-eabi/4.9.2/../../../../arm-none-eabi/lib/libstdc++.a(eh_throw.o)
                0x0000000008005a80                __cxa_rethrow
 .text          0x0000000008005b30        0x0 /opt/devkitpro/devkitARM/bin/../lib/gcc/arm-none-eabi/4.9.2/../../../../arm-none-eabi/lib/libstdc++.a(vterminate.o)
 .text._ZN9__gnu_cxx27__verbose_terminate_handlerEv
                0x0000000008005b30      0x1b0 /opt/devkitpro/devkitARM/bin/../lib/gcc/arm-none-eabi/4.9.2/../../../../arm-none-eabi/lib/libstdc++.a(vterminate.o)
                0x0000000008005b30                __gnu_cxx::__verbose_terminate_handler()
 .text          0x0000000008005ce0        0x0 /opt/devkitpro/devkitARM/bin/../lib/gcc/arm-none-eabi/4.9.2/../../../../arm-none-eabi/lib/libstdc++.a(eh_catch.o)
 .text.__cxa_get_exception_ptr
                0x0000000008005ce0        0x8 /opt/devkitpro/devkitARM/bin/../lib/gcc/arm-none-eabi/4.9.2/../../../../arm-none-eabi/lib/libstdc++.a(eh_catch.o)
                0x0000000008005ce0                __cxa_get_exception_ptr
 .text.__cxa_begin_catch
                0x0000000008005ce8       0xe4 /opt/devkitpro/devkitARM/bin/../lib/gcc/arm-none-eabi/4.9.2/../../../../arm-none-eabi/lib/libstdc++.a(eh_catch.o)
                0x0000000008005ce8                __cxa_begin_catch
 .text.__cxa_end_catch
                0x0000000008005dcc       0xe4 /opt/devkitpro/devkitARM/bin/../lib/gcc/arm-none-eabi/4.9.2/../../../../arm-none-eabi/lib/libstdc++.a(eh_catch.o)
                0x0000000008005dcc                __cxa_end_catch
 .text._ZSt18uncaught_exceptionv
                0x0000000008005eb0       0x1c /opt/devkitpro/devkitARM/bin/../lib/gcc/arm-none-eabi/4.9.2/../../../../arm-none-eabi/lib/libstdc++.a(eh_catch.o)
                0x0000000008005eb0                std::uncaught_exception()
 .text          0x0000000008005ecc     0xd294 /opt/devkitpro/devkitARM/bin/../lib/gcc/arm-none-eabi/4.9.2/../../../../arm-none-eabi/lib/libstdc++.a(cp-demangle.o)
                0x0000000008012fd8                __cxa_demangle
                0x0000000008013130                __gcclibcxx_demangle_callback
 .text          0x0000000008013160        0x0 /opt/devkitpro/devkitARM/bin/../lib/gcc/arm-none-eabi/4.9.2/../../../../arm-none-eabi/lib/libstdc++.a(pure.o)
 .text.__cxa_pure_virtual
                0x0000000008013160       0x1c /opt/devkitpro/devkitARM/bin/../lib/gcc/arm-none-eabi/4.9.2/../../../../arm-none-eabi/lib/libstdc++.a(pure.o)
                0x0000000008013160                __cxa_pure_virtual
 .text.__cxa_deleted_virtual
                0x000000000801317c       0x1c /opt/devkitpro/devkitARM/bin/../lib/gcc/arm-none-eabi/4.9.2/../../../../arm-none-eabi/lib/libstdc++.a(pure.o)
                0x000000000801317c                __cxa_deleted_virtual
 .text          0x0000000008013198        0x0 /opt/devkitpro/devkitARM/bin/../lib/gcc/arm-none-eabi/4.9.2/../../../../arm-none-eabi/lib/libstdc++.a(eh_type.o)
 .text.__cxa_current_exception_type
                0x0000000008013198       0x30 /opt/devkitpro/devkitARM/bin/../lib/gcc/arm-none-eabi/4.9.2/../../../../arm-none-eabi/lib/libstdc++.a(eh_type.o)
                0x0000000008013198                __cxa_current_exception_type
 .text          0x00000000080131c8        0x0 /opt/devkitpro/devkitARM/bin/../lib/gcc/arm-none-eabi/4.9.2/../../../../arm-none-eabi/lib/libstdc++.a(eh_alloc.o)
 .text.__cxa_allocate_exception
                0x00000000080131c8       0x88 /opt/devkitpro/devkitARM/bin/../lib/gcc/arm-none-eabi/4.9.2/../../../../arm-none-eabi/lib/libstdc++.a(eh_alloc.o)
                0x00000000080131c8                __cxa_allocate_exception
 .text.__cxa_free_exception
                0x0000000008013250       0x64 /opt/devkitpro/devkitARM/bin/../lib/gcc/arm-none-eabi/4.9.2/../../../../arm-none-eabi/lib/libstdc++.a(eh_alloc.o)
                0x0000000008013250                __cxa_free_exception
 .text.__cxa_allocate_dependent_exception
                0x00000000080132b4       0x80 /opt/devkitpro/devkitARM/bin/../lib/gcc/arm-none-eabi/4.9.2/../../../../arm-none-eabi/lib/libstdc++.a(eh_alloc.o)
                0x00000000080132b4                __cxa_allocate_dependent_exception
 .text.__cxa_free_dependent_exception
                0x0000000008013334       0x70 /opt/devkitpro/devkitARM/bin/../lib/gcc/arm-none-eabi/4.9.2/../../../../arm-none-eabi/lib/libstdc++.a(eh_alloc.o)
                0x0000000008013334                __cxa_free_dependent_exception
 .text          0x00000000080133a4        0x0 /opt/devkitpro/devkitARM/bin/../lib/gcc/arm-none-eabi/4.9.2/../../../../arm-none-eabi/lib/libstdc++.a(eh_unex_handler.o)
 .text          0x00000000080133a4      0x140 ./maxmod/lib/libmm.a(mm_main.o)
                0x00000000080133a4                mpp_call_r7
                0x00000000080133a6                mpp_call_r1
                0x00000000080133a8                mpp_call_r2
                0x00000000080133aa                mpp_call_r3
                0x00000000080133ac                mmSetEventHandler
                0x00000000080133b4                mmInit
                0x0000000008013408                mmSetVBlankHandler
                0x000000000801340e                mmFrame
 .text          0x00000000080134e4     0x155c ./maxmod/lib/libmm.a(mm_mas.o)
                0x0000000008013558                mmStart
                0x0000000008013578                mmJingle
                0x000000000801357e                mmPlayModule
                0x0000000008013648                mmPause
                0x0000000008013664                mmResume
                0x0000000008013674                mmActive
                0x000000000801367a                mmActiveSub
                0x0000000008013680                mmSetModuleVolume
                0x0000000008013690                mmSetJingleVolume
                0x00000000080136cc                mmPosition
                0x00000000080136e6                mmSetModuleTempo
                0x0000000008013718                mmSetModulePitch
                0x0000000008013758                mmStop
                0x000000000801381e                mppUpdateSub
                0x000000000801397a                mpp_Process_VolumeCommand
                0x0000000008013bb2                mpp_Process_Effect
                0x0000000008014300                ST3_FREQTABLE
                0x0000000008014720                IT_PitchTable
 .text          0x0000000008014a40       0x54 ./maxmod/lib/libmm.a(mm_init_default.o)
                0x0000000008014a40                mmInitDefault
 .text          0x0000000008014a94      0x1e0 ./maxmod/lib/libmm.a(mm_mixer_gba.o)
                0x0000000008014a94                mmMixerSetSource
                0x0000000008014aa8                mmMixerSetRead
                0x0000000008014ab6                mmMixerSetFreq
                0x0000000008014ac6                mmMixerMulFreq
                0x0000000008014ada                mmMixerStopChannel
                0x0000000008014aec                mmMixerChannelActive
                0x0000000008014afe                mmMixerSetVolume
                0x0000000008014b0c                mmMixerSetPan
                0x0000000008014b1a                mmMixerInit
 .text          0x0000000008014c74      0x300 ./maxmod/lib/libmm.a(mm_effect.o)
                0x0000000008014c74                mmResetEffects
                0x0000000008014ca0                mmEffect
                0x0000000008014cb6                mmEffectEx
                0x0000000008014dd4                mmEffectVolume
                0x0000000008014df0                mmEffectPanning
                0x0000000008014e04                mmEffectRate
                0x0000000008014e18                mmEffectCancel
                0x0000000008014e52                mmEffectRelease
                0x0000000008014e78                mmEffectScaleRate
                0x0000000008014e8c                mmSetEffectsVolume
                0x0000000008014e9a                mmEffectCancelAll
                0x0000000008014eda                mmUpdateEffects
 .text          0x0000000008014f74        0x0 ./maxmod/lib/libmm.a(mm_mas_arm.o)
 .text          0x0000000008014f74        0x0 /opt/devkitpro/devkitARM/bin/../lib/gcc/arm-none-eabi/4.9.2/../../../../arm-none-eabi/lib/libc.a(lib_a-abort.o)
 .text.abort    0x0000000008014f74       0x14 /opt/devkitpro/devkitARM/bin/../lib/gcc/arm-none-eabi/4.9.2/../../../../arm-none-eabi/lib/libc.a(lib_a-abort.o)
                0x0000000008014f74                abort
 .text          0x0000000008014f88        0x0 /opt/devkitpro/devkitARM/bin/../lib/gcc/arm-none-eabi/4.9.2/../../../../arm-none-eabi/lib/libc.a(lib_a-atexit.o)
 .text.atexit   0x0000000008014f88       0x20 /opt/devkitpro/devkitARM/bin/../lib/gcc/arm-none-eabi/4.9.2/../../../../arm-none-eabi/lib/libc.a(lib_a-atexit.o)
                0x0000000008014f88                atexit
 .text          0x0000000008014fa8        0x0 /opt/devkitpro/devkitARM/bin/../lib/gcc/arm-none-eabi/4.9.2/../../../../arm-none-eabi/lib/libc.a(lib_a-cxa_atexit.o)
 .text.__cxa_atexit
                0x0000000008014fa8       0x24 /opt/devkitpro/devkitARM/bin/../lib/gcc/arm-none-eabi/4.9.2/../../../../arm-none-eabi/lib/libc.a(lib_a-cxa_atexit.o)
                0x0000000008014fa8                __cxa_atexit
 .text          0x0000000008014fcc        0x0 /opt/devkitpro/devkitARM/bin/../lib/gcc/arm-none-eabi/4.9.2/../../../../arm-none-eabi/lib/libc.a(lib_a-exit.o)
 .text.exit     0x0000000008014fcc       0x34 /opt/devkitpro/devkitARM/bin/../lib/gcc/arm-none-eabi/4.9.2/../../../../arm-none-eabi/lib/libc.a(lib_a-exit.o)
                0x0000000008014fcc                exit
 .text          0x0000000008015000        0x0 /opt/devkitpro/devkitARM/bin/../lib/gcc/arm-none-eabi/4.9.2/../../../../arm-none-eabi/lib/libc.a(lib_a-fini.o)
 .text.__libc_fini_array
                0x0000000008015000       0x48 /opt/devkitpro/devkitARM/bin/../lib/gcc/arm-none-eabi/4.9.2/../../../../arm-none-eabi/lib/libc.a(lib_a-fini.o)
                0x0000000008015000                __libc_fini_array
 .text          0x0000000008015048        0x0 /opt/devkitpro/devkitARM/bin/../lib/gcc/arm-none-eabi/4.9.2/../../../../arm-none-eabi/lib/libc.a(lib_a-fputc.o)
 .text._fputc_r
                0x0000000008015048       0xac /opt/devkitpro/devkitARM/bin/../lib/gcc/arm-none-eabi/4.9.2/../../../../arm-none-eabi/lib/libc.a(lib_a-fputc.o)
                0x0000000008015048                _fputc_r
 .text.fputc    0x00000000080150f4       0x9c /opt/devkitpro/devkitARM/bin/../lib/gcc/arm-none-eabi/4.9.2/../../../../arm-none-eabi/lib/libc.a(lib_a-fputc.o)
                0x00000000080150f4                fputc
 .text          0x0000000008015190        0x0 /opt/devkitpro/devkitARM/bin/../lib/gcc/arm-none-eabi/4.9.2/../../../../arm-none-eabi/lib/libc.a(lib_a-fputs.o)
 .text._fputs_r
                0x0000000008015190       0xf0 /opt/devkitpro/devkitARM/bin/../lib/gcc/arm-none-eabi/4.9.2/../../../../arm-none-eabi/lib/libc.a(lib_a-fputs.o)
                0x0000000008015190                _fputs_r
 .text.fputs    0x0000000008015280       0x20 /opt/devkitpro/devkitARM/bin/../lib/gcc/arm-none-eabi/4.9.2/../../../../arm-none-eabi/lib/libc.a(lib_a-fputs.o)
                0x0000000008015280                fputs
 .text          0x00000000080152a0        0x0 /opt/devkitpro/devkitARM/bin/../lib/gcc/arm-none-eabi/4.9.2/../../../../arm-none-eabi/lib/libc.a(lib_a-fvwrite.o)
 .text.__sfvwrite_r
                0x00000000080152a0      0x4ec /opt/devkitpro/devkitARM/bin/../lib/gcc/arm-none-eabi/4.9.2/../../../../arm-none-eabi/lib/libc.a(lib_a-fvwrite.o)
                0x00000000080152a0                __sfvwrite_r
 .text          0x000000000801578c        0x0 /opt/devkitpro/devkitARM/bin/../lib/gcc/arm-none-eabi/4.9.2/../../../../arm-none-eabi/lib/libc.a(lib_a-fwrite.o)
 .text._fwrite_r
                0x000000000801578c      0x128 /opt/devkitpro/devkitARM/bin/../lib/gcc/arm-none-eabi/4.9.2/../../../../arm-none-eabi/lib/libc.a(lib_a-fwrite.o)
                0x000000000801578c                _fwrite_r
 .text.fwrite   0x00000000080158b4       0x3c /opt/devkitpro/devkitARM/bin/../lib/gcc/arm-none-eabi/4.9.2/../../../../arm-none-eabi/lib/libc.a(lib_a-fwrite.o)
                0x00000000080158b4                fwrite
 .text          0x00000000080158f0        0x0 /opt/devkitpro/devkitARM/bin/../lib/gcc/arm-none-eabi/4.9.2/../../../../arm-none-eabi/lib/libc.a(lib_a-impure.o)
 .text          0x00000000080158f0        0x0 /opt/devkitpro/devkitARM/bin/../lib/gcc/arm-none-eabi/4.9.2/../../../../arm-none-eabi/lib/libc.a(lib_a-init.o)
 .text.__libc_init_array
                0x00000000080158f0       0x80 /opt/devkitpro/devkitARM/bin/../lib/gcc/arm-none-eabi/4.9.2/../../../../arm-none-eabi/lib/libc.a(lib_a-init.o)
                0x00000000080158f0                __libc_init_array
 .text          0x0000000008015970        0x0 /opt/devkitpro/devkitARM/bin/../lib/gcc/arm-none-eabi/4.9.2/../../../../arm-none-eabi/lib/libc.a(lib_a-malloc.o)
 .text.malloc   0x0000000008015970       0x1c /opt/devkitpro/devkitARM/bin/../lib/gcc/arm-none-eabi/4.9.2/../../../../arm-none-eabi/lib/libc.a(lib_a-malloc.o)
                0x0000000008015970                malloc
 .text.free     0x000000000801598c       0x1c /opt/devkitpro/devkitARM/bin/../lib/gcc/arm-none-eabi/4.9.2/../../../../arm-none-eabi/lib/libc.a(lib_a-malloc.o)
                0x000000000801598c                free
 .text          0x00000000080159a8        0x0 /opt/devkitpro/devkitARM/bin/../lib/gcc/arm-none-eabi/4.9.2/../../../../arm-none-eabi/lib/libc.a(lib_a-mallocr.o)
 .text._malloc_r
                0x00000000080159a8      0x740 /opt/devkitpro/devkitARM/bin/../lib/gcc/arm-none-eabi/4.9.2/../../../../arm-none-eabi/lib/libc.a(lib_a-mallocr.o)
                0x00000000080159a8                _malloc_r
 .text          0x00000000080160e8        0x0 /opt/devkitpro/devkitARM/bin/../lib/gcc/arm-none-eabi/4.9.2/../../../../arm-none-eabi/lib/libc.a(lib_a-memchr.o)
 .text.memchr   0x00000000080160e8      0x118 /opt/devkitpro/devkitARM/bin/../lib/gcc/arm-none-eabi/4.9.2/../../../../arm-none-eabi/lib/libc.a(lib_a-memchr.o)
                0x00000000080160e8                memchr
 .text          0x0000000008016200        0x0 /opt/devkitpro/devkitARM/bin/../lib/gcc/arm-none-eabi/4.9.2/../../../../arm-none-eabi/lib/libc.a(lib_a-memcmp.o)
 .text.memcmp   0x0000000008016200       0xb0 /opt/devkitpro/devkitARM/bin/../lib/gcc/arm-none-eabi/4.9.2/../../../../arm-none-eabi/lib/libc.a(lib_a-memcmp.o)
                0x0000000008016200                memcmp
 .text          0x00000000080162b0        0x0 /opt/devkitpro/devkitARM/bin/../lib/gcc/arm-none-eabi/4.9.2/../../../../arm-none-eabi/lib/libc.a(lib_a-memcpy.o)
 .text.memcpy   0x00000000080162b0       0xf0 /opt/devkitpro/devkitARM/bin/../lib/gcc/arm-none-eabi/4.9.2/../../../../arm-none-eabi/lib/libc.a(lib_a-memcpy.o)
                0x00000000080162b0                memcpy
 .text          0x00000000080163a0        0x0 /opt/devkitpro/devkitARM/bin/../lib/gcc/arm-none-eabi/4.9.2/../../../../arm-none-eabi/lib/libc.a(lib_a-memmove.o)
 .text.memmove  0x00000000080163a0      0x12c /opt/devkitpro/devkitARM/bin/../lib/gcc/arm-none-eabi/4.9.2/../../../../arm-none-eabi/lib/libc.a(lib_a-memmove.o)
                0x00000000080163a0                memmove
 .text          0x00000000080164cc        0x0 /opt/devkitpro/devkitARM/bin/../lib/gcc/arm-none-eabi/4.9.2/../../../../arm-none-eabi/lib/libc.a(lib_a-memset.o)
 .text.memset   0x00000000080164cc       0xf4 /opt/devkitpro/devkitARM/bin/../lib/gcc/arm-none-eabi/4.9.2/../../../../arm-none-eabi/lib/libc.a(lib_a-memset.o)
                0x00000000080164cc                memset
 .text          0x00000000080165c0        0x0 /opt/devkitpro/devkitARM/bin/../lib/gcc/arm-none-eabi/4.9.2/../../../../arm-none-eabi/lib/libc.a(lib_a-mlock.o)
 .text.__malloc_lock
                0x00000000080165c0        0x4 /opt/devkitpro/devkitARM/bin/../lib/gcc/arm-none-eabi/4.9.2/../../../../arm-none-eabi/lib/libc.a(lib_a-mlock.o)
                0x00000000080165c0                __malloc_lock
 .text.__malloc_unlock
                0x00000000080165c4        0x4 /opt/devkitpro/devkitARM/bin/../lib/gcc/arm-none-eabi/4.9.2/../../../../arm-none-eabi/lib/libc.a(lib_a-mlock.o)
                0x00000000080165c4                __malloc_unlock
 .text          0x00000000080165c8        0x0 /opt/devkitpro/devkitARM/bin/../lib/gcc/arm-none-eabi/4.9.2/../../../../arm-none-eabi/lib/libc.a(lib_a-putc.o)
 .text._putc_r  0x00000000080165c8      0x100 /opt/devkitpro/devkitARM/bin/../lib/gcc/arm-none-eabi/4.9.2/../../../../arm-none-eabi/lib/libc.a(lib_a-putc.o)
                0x00000000080165c8                _putc_r
 .text.putc     0x00000000080166c8      0x104 /opt/devkitpro/devkitARM/bin/../lib/gcc/arm-none-eabi/4.9.2/../../../../arm-none-eabi/lib/libc.a(lib_a-putc.o)
                0x00000000080166c8                putc
 .text          0x00000000080167cc        0x0 /opt/devkitpro/devkitARM/bin/../lib/gcc/arm-none-eabi/4.9.2/../../../../arm-none-eabi/lib/libc.a(lib_a-realloc.o)
 .text.realloc  0x00000000080167cc       0x24 /opt/devkitpro/devkitARM/bin/../lib/gcc/arm-none-eabi/4.9.2/../../../../arm-none-eabi/lib/libc.a(lib_a-realloc.o)
                0x00000000080167cc                realloc
 .text          0x00000000080167f0        0x0 /opt/devkitpro/devkitARM/bin/../lib/gcc/arm-none-eabi/4.9.2/../../../../arm-none-eabi/lib/libc.a(lib_a-reallocr.o)
 .text._realloc_r
                0x00000000080167f0      0x4dc /opt/devkitpro/devkitARM/bin/../lib/gcc/arm-none-eabi/4.9.2/../../../../arm-none-eabi/lib/libc.a(lib_a-reallocr.o)
                0x00000000080167f0                _realloc_r
 .text          0x0000000008016ccc        0x0 /opt/devkitpro/devkitARM/bin/../lib/gcc/arm-none-eabi/4.9.2/../../../../arm-none-eabi/lib/libc.a(lib_a-signal.o)
 .text._init_signal_r
                0x0000000008016ccc       0x60 /opt/devkitpro/devkitARM/bin/../lib/gcc/arm-none-eabi/4.9.2/../../../../arm-none-eabi/lib/libc.a(lib_a-signal.o)
                0x0000000008016ccc                _init_signal_r
 .text._signal_r
                0x0000000008016d2c       0x60 /opt/devkitpro/devkitARM/bin/../lib/gcc/arm-none-eabi/4.9.2/../../../../arm-none-eabi/lib/libc.a(lib_a-signal.o)
                0x0000000008016d2c                _signal_r
 .text._raise_r
                0x0000000008016d8c       0x98 /opt/devkitpro/devkitARM/bin/../lib/gcc/arm-none-eabi/4.9.2/../../../../arm-none-eabi/lib/libc.a(lib_a-signal.o)
                0x0000000008016d8c                _raise_r
 .text.__sigtramp_r
                0x0000000008016e24       0x94 /opt/devkitpro/devkitARM/bin/../lib/gcc/arm-none-eabi/4.9.2/../../../../arm-none-eabi/lib/libc.a(lib_a-signal.o)
                0x0000000008016e24                __sigtramp_r
 .text.raise    0x0000000008016eb8       0x18 /opt/devkitpro/devkitARM/bin/../lib/gcc/arm-none-eabi/4.9.2/../../../../arm-none-eabi/lib/libc.a(lib_a-signal.o)
                0x0000000008016eb8                raise
 .text.signal   0x0000000008016ed0       0x20 /opt/devkitpro/devkitARM/bin/../lib/gcc/arm-none-eabi/4.9.2/../../../../arm-none-eabi/lib/libc.a(lib_a-signal.o)
                0x0000000008016ed0                signal
 .text._init_signal
                0x0000000008016ef0       0x10 /opt/devkitpro/devkitARM/bin/../lib/gcc/arm-none-eabi/4.9.2/../../../../arm-none-eabi/lib/libc.a(lib_a-signal.o)
                0x0000000008016ef0                _init_signal
 .text.__sigtramp
                0x0000000008016f00       0x18 /opt/devkitpro/devkitARM/bin/../lib/gcc/arm-none-eabi/4.9.2/../../../../arm-none-eabi/lib/libc.a(lib_a-signal.o)
                0x0000000008016f00                __sigtramp
 .text          0x0000000008016f18        0x0 /opt/devkitpro/devkitARM/bin/../lib/gcc/arm-none-eabi/4.9.2/../../../../arm-none-eabi/lib/libc.a(lib_a-sprintf.o)
 .text._sprintf_r
                0x0000000008016f18       0x68 /opt/devkitpro/devkitARM/bin/../lib/gcc/arm-none-eabi/4.9.2/../../../../arm-none-eabi/lib/libc.a(lib_a-sprintf.o)
                0x0000000008016f18                _sprintf_r
 .text.sprintf  0x0000000008016f80       0x68 /opt/devkitpro/devkitARM/bin/../lib/gcc/arm-none-eabi/4.9.2/../../../../arm-none-eabi/lib/libc.a(lib_a-sprintf.o)
                0x0000000008016f80                sprintf
 .text          0x0000000008016fe8        0x0 /opt/devkitpro/devkitARM/bin/../lib/gcc/arm-none-eabi/4.9.2/../../../../arm-none-eabi/lib/libc.a(lib_a-strcat.o)
 .text.strcat   0x0000000008016fe8       0x84 /opt/devkitpro/devkitARM/bin/../lib/gcc/arm-none-eabi/4.9.2/../../../../arm-none-eabi/lib/libc.a(lib_a-strcat.o)
                0x0000000008016fe8                strcat
 .text          0x000000000801706c      0x224 /opt/devkitpro/devkitARM/bin/../lib/gcc/arm-none-eabi/4.9.2/../../../../arm-none-eabi/lib/libc.a(lib_a-strcmp.o)
                0x000000000801706c                strcmp
 .text          0x0000000008017290        0x0 /opt/devkitpro/devkitARM/bin/../lib/gcc/arm-none-eabi/4.9.2/../../../../arm-none-eabi/lib/libc.a(lib_a-strcpy.o)
 .text.strcpy   0x0000000008017290       0xf0 /opt/devkitpro/devkitARM/bin/../lib/gcc/arm-none-eabi/4.9.2/../../../../arm-none-eabi/lib/libc.a(lib_a-strcpy.o)
                0x0000000008017290                strcpy
 .text          0x0000000008017380        0x0 /opt/devkitpro/devkitARM/bin/../lib/gcc/arm-none-eabi/4.9.2/../../../../arm-none-eabi/lib/libc.a(lib_a-strlen.o)
 .text.strlen   0x0000000008017380       0x60 /opt/devkitpro/devkitARM/bin/../lib/gcc/arm-none-eabi/4.9.2/../../../../arm-none-eabi/lib/libc.a(lib_a-strlen.o)
                0x0000000008017380                strlen
 .text          0x00000000080173e0        0x0 /opt/devkitpro/devkitARM/bin/../lib/gcc/arm-none-eabi/4.9.2/../../../../arm-none-eabi/lib/libc.a(lib_a-strncmp.o)
 .text.strncmp  0x00000000080173e0      0x118 /opt/devkitpro/devkitARM/bin/../lib/gcc/arm-none-eabi/4.9.2/../../../../arm-none-eabi/lib/libc.a(lib_a-strncmp.o)
                0x00000000080173e0                strncmp
 .text          0x00000000080174f8        0x0 /opt/devkitpro/devkitARM/bin/../lib/gcc/arm-none-eabi/4.9.2/../../../../arm-none-eabi/lib/libc.a(lib_a-svfprintf.o)
 .text.get_arg  0x00000000080174f8      0x860 /opt/devkitpro/devkitARM/bin/../lib/gcc/arm-none-eabi/4.9.2/../../../../arm-none-eabi/lib/libc.a(lib_a-svfprintf.o)
 .text._svfprintf_r
                0x0000000008017d58     0x4450 /opt/devkitpro/devkitARM/bin/../lib/gcc/arm-none-eabi/4.9.2/../../../../arm-none-eabi/lib/libc.a(lib_a-svfprintf.o)
                0x0000000008017d58                _svfprintf_r
 .text          0x000000000801c1a8        0x0 /opt/devkitpro/devkitARM/bin/../lib/gcc/arm-none-eabi/4.9.2/../../../../arm-none-eabi/lib/libc.a(lib_a-syswrite.o)
 .text.write    0x000000000801c1a8       0x2c /opt/devkitpro/devkitARM/bin/../lib/gcc/arm-none-eabi/4.9.2/../../../../arm-none-eabi/lib/libc.a(lib_a-syswrite.o)
                0x000000000801c1a8                write
 .text          0x000000000801c1d4        0x0 /opt/devkitpro/devkitARM/bin/../lib/gcc/arm-none-eabi/4.9.2/../../../../arm-none-eabi/lib/libc.a(lib_a-wbuf.o)
 .text.__swbuf_r
                0x000000000801c1d4      0x128 /opt/devkitpro/devkitARM/bin/../lib/gcc/arm-none-eabi/4.9.2/../../../../arm-none-eabi/lib/libc.a(lib_a-wbuf.o)
                0x000000000801c1d4                __swbuf_r
 .text.__swbuf  0x000000000801c2fc       0x20 /opt/devkitpro/devkitARM/bin/../lib/gcc/arm-none-eabi/4.9.2/../../../../arm-none-eabi/lib/libc.a(lib_a-wbuf.o)
                0x000000000801c2fc                __swbuf
 .text          0x000000000801c31c        0x0 /opt/devkitpro/devkitARM/bin/../lib/gcc/arm-none-eabi/4.9.2/../../../../arm-none-eabi/lib/libc.a(lib_a-wcrtomb.o)
 .text._wcrtomb_r
                0x000000000801c31c       0x98 /opt/devkitpro/devkitARM/bin/../lib/gcc/arm-none-eabi/4.9.2/../../../../arm-none-eabi/lib/libc.a(lib_a-wcrtomb.o)
                0x000000000801c31c                _wcrtomb_r
 .text.wcrtomb  0x000000000801c3b4       0xa0 /opt/devkitpro/devkitARM/bin/../lib/gcc/arm-none-eabi/4.9.2/../../../../arm-none-eabi/lib/libc.a(lib_a-wcrtomb.o)
                0x000000000801c3b4                wcrtomb
 .text          0x000000000801c454        0x0 /opt/devkitpro/devkitARM/bin/../lib/gcc/arm-none-eabi/4.9.2/../../../../arm-none-eabi/lib/libc.a(lib_a-wcsrtombs.o)
 .text._wcsrtombs_r
                0x000000000801c454       0x24 /opt/devkitpro/devkitARM/bin/../lib/gcc/arm-none-eabi/4.9.2/../../../../arm-none-eabi/lib/libc.a(lib_a-wcsrtombs.o)
                0x000000000801c454                _wcsrtombs_r
 .text.wcsrtombs
                0x000000000801c478       0x40 /opt/devkitpro/devkitARM/bin/../lib/gcc/arm-none-eabi/4.9.2/../../../../arm-none-eabi/lib/libc.a(lib_a-wcsrtombs.o)
                0x000000000801c478                wcsrtombs
 .text          0x000000000801c4b8        0x0 /opt/devkitpro/devkitARM/bin/../lib/gcc/arm-none-eabi/4.9.2/../../../../arm-none-eabi/lib/libc.a(lib_a-wctomb_r.o)
 .text.__utf8_wctomb
                0x000000000801c4b8      0x114 /opt/devkitpro/devkitARM/bin/../lib/gcc/arm-none-eabi/4.9.2/../../../../arm-none-eabi/lib/libc.a(lib_a-wctomb_r.o)
                0x000000000801c4b8                __utf8_wctomb
 .text._wctomb_r
                0x000000000801c5cc       0x50 /opt/devkitpro/devkitARM/bin/../lib/gcc/arm-none-eabi/4.9.2/../../../../arm-none-eabi/lib/libc.a(lib_a-wctomb_r.o)
                0x000000000801c5cc                _wctomb_r
 .text.__ascii_wctomb
                0x000000000801c61c       0x28 /opt/devkitpro/devkitARM/bin/../lib/gcc/arm-none-eabi/4.9.2/../../../../arm-none-eabi/lib/libc.a(lib_a-wctomb_r.o)
                0x000000000801c61c                __ascii_wctomb
 .text.__sjis_wctomb
                0x000000000801c644       0x8c /opt/devkitpro/devkitARM/bin/../lib/gcc/arm-none-eabi/4.9.2/../../../../arm-none-eabi/lib/libc.a(lib_a-wctomb_r.o)
                0x000000000801c644                __sjis_wctomb
 .text.__eucjp_wctomb
                0x000000000801c6d0       0xd4 /opt/devkitpro/devkitARM/bin/../lib/gcc/arm-none-eabi/4.9.2/../../../../arm-none-eabi/lib/libc.a(lib_a-wctomb_r.o)
                0x000000000801c6d0                __eucjp_wctomb
 .text.__jis_wctomb
                0x000000000801c7a4       0xe0 /opt/devkitpro/devkitARM/bin/../lib/gcc/arm-none-eabi/4.9.2/../../../../arm-none-eabi/lib/libc.a(lib_a-wctomb_r.o)
                0x000000000801c7a4                __jis_wctomb
 .text          0x000000000801c884        0x0 /opt/devkitpro/devkitARM/bin/../lib/gcc/arm-none-eabi/4.9.2/../../../../arm-none-eabi/lib/libc.a(lib_a-wsetup.o)
 .text.__swsetup_r
                0x000000000801c884      0x154 /opt/devkitpro/devkitARM/bin/../lib/gcc/arm-none-eabi/4.9.2/../../../../arm-none-eabi/lib/libc.a(lib_a-wsetup.o)
                0x000000000801c884                __swsetup_r
 .text          0x000000000801c9d8        0x0 /opt/devkitpro/devkitARM/bin/../lib/gcc/arm-none-eabi/4.9.2/../../../../arm-none-eabi/lib/libc.a(lib_a-__atexit.o)
 .text.__register_exitproc
                0x000000000801c9d8       0xe0 /opt/devkitpro/devkitARM/bin/../lib/gcc/arm-none-eabi/4.9.2/../../../../arm-none-eabi/lib/libc.a(lib_a-__atexit.o)
                0x000000000801c9d8                __register_exitproc
 .text          0x000000000801cab8        0x0 /opt/devkitpro/devkitARM/bin/../lib/gcc/arm-none-eabi/4.9.2/../../../../arm-none-eabi/lib/libc.a(lib_a-__call_atexit.o)
 .text.__call_exitprocs
                0x000000000801cab8      0x16c /opt/devkitpro/devkitARM/bin/../lib/gcc/arm-none-eabi/4.9.2/../../../../arm-none-eabi/lib/libc.a(lib_a-__call_atexit.o)
                0x000000000801cab8                __call_exitprocs
 .text          0x000000000801cc24        0x0 /opt/devkitpro/devkitARM/bin/../lib/gcc/arm-none-eabi/4.9.2/../../../../arm-none-eabi/lib/libc.a(lib_a-dtoa.o)
 .text.quorem   0x000000000801cc24      0x1d8 /opt/devkitpro/devkitARM/bin/../lib/gcc/arm-none-eabi/4.9.2/../../../../arm-none-eabi/lib/libc.a(lib_a-dtoa.o)
 *fill*         0x000000000801cdfc        0x4 
 .text._dtoa_r  0x000000000801ce00     0x16a0 /opt/devkitpro/devkitARM/bin/../lib/gcc/arm-none-eabi/4.9.2/../../../../arm-none-eabi/lib/libc.a(lib_a-dtoa.o)
                0x000000000801ce00                _dtoa_r
 .text          0x000000000801e4a0        0x0 /opt/devkitpro/devkitARM/bin/../lib/gcc/arm-none-eabi/4.9.2/../../../../arm-none-eabi/lib/libc.a(lib_a-fflush.o)
 .text.__sflush_r
                0x000000000801e4a0      0x240 /opt/devkitpro/devkitARM/bin/../lib/gcc/arm-none-eabi/4.9.2/../../../../arm-none-eabi/lib/libc.a(lib_a-fflush.o)
                0x000000000801e4a0                __sflush_r
 .text._fflush_r
                0x000000000801e6e0       0x98 /opt/devkitpro/devkitARM/bin/../lib/gcc/arm-none-eabi/4.9.2/../../../../arm-none-eabi/lib/libc.a(lib_a-fflush.o)
                0x000000000801e6e0                _fflush_r
 .text.fflush   0x000000000801e778       0x3c /opt/devkitpro/devkitARM/bin/../lib/gcc/arm-none-eabi/4.9.2/../../../../arm-none-eabi/lib/libc.a(lib_a-fflush.o)
                0x000000000801e778                fflush
 .text          0x000000000801e7b4        0x0 /opt/devkitpro/devkitARM/bin/../lib/gcc/arm-none-eabi/4.9.2/../../../../arm-none-eabi/lib/libc.a(lib_a-findfp.o)
 .text._cleanup_r
                0x000000000801e7b4       0x18 /opt/devkitpro/devkitARM/bin/../lib/gcc/arm-none-eabi/4.9.2/../../../../arm-none-eabi/lib/libc.a(lib_a-findfp.o)
                0x000000000801e7b4                _cleanup_r
 .text.__fp_lock
                0x000000000801e7cc       0x1c /opt/devkitpro/devkitARM/bin/../lib/gcc/arm-none-eabi/4.9.2/../../../../arm-none-eabi/lib/libc.a(lib_a-findfp.o)
 .text.__fp_unlock
                0x000000000801e7e8       0x1c /opt/devkitpro/devkitARM/bin/../lib/gcc/arm-none-eabi/4.9.2/../../../../arm-none-eabi/lib/libc.a(lib_a-findfp.o)
 .text.__sinit.part.1
                0x000000000801e804      0x160 /opt/devkitpro/devkitARM/bin/../lib/gcc/arm-none-eabi/4.9.2/../../../../arm-none-eabi/lib/libc.a(lib_a-findfp.o)
 .text.__sfmoreglue
                0x000000000801e964       0x50 /opt/devkitpro/devkitARM/bin/../lib/gcc/arm-none-eabi/4.9.2/../../../../arm-none-eabi/lib/libc.a(lib_a-findfp.o)
                0x000000000801e964                __sfmoreglue
 .text.__sfp    0x000000000801e9b4       0xec /opt/devkitpro/devkitARM/bin/../lib/gcc/arm-none-eabi/4.9.2/../../../../arm-none-eabi/lib/libc.a(lib_a-findfp.o)
                0x000000000801e9b4                __sfp
 .text._cleanup
                0x000000000801eaa0       0x24 /opt/devkitpro/devkitARM/bin/../lib/gcc/arm-none-eabi/4.9.2/../../../../arm-none-eabi/lib/libc.a(lib_a-findfp.o)
                0x000000000801eaa0                _cleanup
 .text.__sinit  0x000000000801eac4       0x10 /opt/devkitpro/devkitARM/bin/../lib/gcc/arm-none-eabi/4.9.2/../../../../arm-none-eabi/lib/libc.a(lib_a-findfp.o)
                0x000000000801eac4                __sinit
 .text.__sfp_lock_acquire
                0x000000000801ead4        0x4 /opt/devkitpro/devkitARM/bin/../lib/gcc/arm-none-eabi/4.9.2/../../../../arm-none-eabi/lib/libc.a(lib_a-findfp.o)
                0x000000000801ead4                __sfp_lock_acquire
 .text.__sfp_lock_release
                0x000000000801ead8        0x4 /opt/devkitpro/devkitARM/bin/../lib/gcc/arm-none-eabi/4.9.2/../../../../arm-none-eabi/lib/libc.a(lib_a-findfp.o)
                0x000000000801ead8                __sfp_lock_release
 .text.__sinit_lock_acquire
                0x000000000801eadc        0x4 /opt/devkitpro/devkitARM/bin/../lib/gcc/arm-none-eabi/4.9.2/../../../../arm-none-eabi/lib/libc.a(lib_a-findfp.o)
                0x000000000801eadc                __sinit_lock_acquire
 .text.__sinit_lock_release
                0x000000000801eae0        0x4 /opt/devkitpro/devkitARM/bin/../lib/gcc/arm-none-eabi/4.9.2/../../../../arm-none-eabi/lib/libc.a(lib_a-findfp.o)
                0x000000000801eae0                __sinit_lock_release
 .text.__fp_lock_all
                0x000000000801eae4       0x1c /opt/devkitpro/devkitARM/bin/../lib/gcc/arm-none-eabi/4.9.2/../../../../arm-none-eabi/lib/libc.a(lib_a-findfp.o)
                0x000000000801eae4                __fp_lock_all
 .text.__fp_unlock_all
                0x000000000801eb00       0x1c /opt/devkitpro/devkitARM/bin/../lib/gcc/arm-none-eabi/4.9.2/../../../../arm-none-eabi/lib/libc.a(lib_a-findfp.o)
                0x000000000801eb00                __fp_unlock_all
 .text          0x000000000801eb1c        0x0 /opt/devkitpro/devkitARM/bin/../lib/gcc/arm-none-eabi/4.9.2/../../../../arm-none-eabi/lib/libc.a(lib_a-freer.o)
 .text._malloc_trim_r
                0x000000000801eb1c      0x100 /opt/devkitpro/devkitARM/bin/../lib/gcc/arm-none-eabi/4.9.2/../../../../arm-none-eabi/lib/libc.a(lib_a-freer.o)
                0x000000000801eb1c                _malloc_trim_r
 .text._free_r  0x000000000801ec1c      0x2bc /opt/devkitpro/devkitARM/bin/../lib/gcc/arm-none-eabi/4.9.2/../../../../arm-none-eabi/lib/libc.a(lib_a-freer.o)
                0x000000000801ec1c                _free_r
 .text          0x000000000801eed8        0x0 /opt/devkitpro/devkitARM/bin/../lib/gcc/arm-none-eabi/4.9.2/../../../../arm-none-eabi/lib/libc.a(lib_a-fwalk.o)
 .text._fwalk   0x000000000801eed8       0x84 /opt/devkitpro/devkitARM/bin/../lib/gcc/arm-none-eabi/4.9.2/../../../../arm-none-eabi/lib/libc.a(lib_a-fwalk.o)
                0x000000000801eed8                _fwalk
 .text._fwalk_reent
                0x000000000801ef5c       0x8c /opt/devkitpro/devkitARM/bin/../lib/gcc/arm-none-eabi/4.9.2/../../../../arm-none-eabi/lib/libc.a(lib_a-fwalk.o)
                0x000000000801ef5c                _fwalk_reent
 .text          0x000000000801efe8        0x0 /opt/devkitpro/devkitARM/bin/../lib/gcc/arm-none-eabi/4.9.2/../../../../arm-none-eabi/lib/libc.a(lib_a-locale.o)
 .text.__get_locale_env
                0x000000000801efe8       0x94 /opt/devkitpro/devkitARM/bin/../lib/gcc/arm-none-eabi/4.9.2/../../../../arm-none-eabi/lib/libc.a(lib_a-locale.o)
 .text.loadlocale
                0x000000000801f07c      0x8ac /opt/devkitpro/devkitARM/bin/../lib/gcc/arm-none-eabi/4.9.2/../../../../arm-none-eabi/lib/libc.a(lib_a-locale.o)
 .text.currentlocale
                0x000000000801f928       0x90 /opt/devkitpro/devkitARM/bin/../lib/gcc/arm-none-eabi/4.9.2/../../../../arm-none-eabi/lib/libc.a(lib_a-locale.o)
 .text._setlocale_r
                0x000000000801f9b8      0x308 /opt/devkitpro/devkitARM/bin/../lib/gcc/arm-none-eabi/4.9.2/../../../../arm-none-eabi/lib/libc.a(lib_a-locale.o)
                0x000000000801f9b8                _setlocale_r
 .text.__locale_charset
                0x000000000801fcc0        0xc /opt/devkitpro/devkitARM/bin/../lib/gcc/arm-none-eabi/4.9.2/../../../../arm-none-eabi/lib/libc.a(lib_a-locale.o)
                0x000000000801fcc0                __locale_charset
 .text.__locale_mb_cur_max
                0x000000000801fccc       0x10 /opt/devkitpro/devkitARM/bin/../lib/gcc/arm-none-eabi/4.9.2/../../../../arm-none-eabi/lib/libc.a(lib_a-locale.o)
                0x000000000801fccc                __locale_mb_cur_max
 .text.__locale_msgcharset
                0x000000000801fcdc        0xc /opt/devkitpro/devkitARM/bin/../lib/gcc/arm-none-eabi/4.9.2/../../../../arm-none-eabi/lib/libc.a(lib_a-locale.o)
                0x000000000801fcdc                __locale_msgcharset
 .text.__locale_cjk_lang
                0x000000000801fce8       0x10 /opt/devkitpro/devkitARM/bin/../lib/gcc/arm-none-eabi/4.9.2/../../../../arm-none-eabi/lib/libc.a(lib_a-locale.o)
                0x000000000801fce8                __locale_cjk_lang
 .text._localeconv_r
                0x000000000801fcf8        0xc /opt/devkitpro/devkitARM/bin/../lib/gcc/arm-none-eabi/4.9.2/../../../../arm-none-eabi/lib/libc.a(lib_a-locale.o)
                0x000000000801fcf8                _localeconv_r
 .text.setlocale
                0x000000000801fd04       0x20 /opt/devkitpro/devkitARM/bin/../lib/gcc/arm-none-eabi/4.9.2/../../../../arm-none-eabi/lib/libc.a(lib_a-locale.o)
                0x000000000801fd04                setlocale
 .text.localeconv
                0x000000000801fd24       0x18 /opt/devkitpro/devkitARM/bin/../lib/gcc/arm-none-eabi/4.9.2/../../../../arm-none-eabi/lib/libc.a(lib_a-locale.o)
                0x000000000801fd24                localeconv
 .text          0x000000000801fd3c        0x0 /opt/devkitpro/devkitARM/bin/../lib/gcc/arm-none-eabi/4.9.2/../../../../arm-none-eabi/lib/libc.a(lib_a-makebuf.o)
 .text.__smakebuf_r
                0x000000000801fd3c      0x168 /opt/devkitpro/devkitARM/bin/../lib/gcc/arm-none-eabi/4.9.2/../../../../arm-none-eabi/lib/libc.a(lib_a-makebuf.o)
                0x000000000801fd3c                __smakebuf_r
 .text          0x000000000801fea4        0x0 /opt/devkitpro/devkitARM/bin/../lib/gcc/arm-none-eabi/4.9.2/../../../../arm-none-eabi/lib/libc.a(lib_a-mbtowc_r.o)
 .text.__utf8_mbtowc
                0x000000000801fea4      0x304 /opt/devkitpro/devkitARM/bin/../lib/gcc/arm-none-eabi/4.9.2/../../../../arm-none-eabi/lib/libc.a(lib_a-mbtowc_r.o)
                0x000000000801fea4                __utf8_mbtowc
 .text._mbtowc_r
                0x00000000080201a8       0x54 /opt/devkitpro/devkitARM/bin/../lib/gcc/arm-none-eabi/4.9.2/../../../../arm-none-eabi/lib/libc.a(lib_a-mbtowc_r.o)
                0x00000000080201a8                _mbtowc_r
 .text.__ascii_mbtowc
                0x00000000080201fc       0x4c /opt/devkitpro/devkitARM/bin/../lib/gcc/arm-none-eabi/4.9.2/../../../../arm-none-eabi/lib/libc.a(lib_a-mbtowc_r.o)
                0x00000000080201fc                __ascii_mbtowc
 .text.__sjis_mbtowc
                0x0000000008020248       0xdc /opt/devkitpro/devkitARM/bin/../lib/gcc/arm-none-eabi/4.9.2/../../../../arm-none-eabi/lib/libc.a(lib_a-mbtowc_r.o)
                0x0000000008020248                __sjis_mbtowc
 .text.__eucjp_mbtowc
                0x0000000008020324      0x150 /opt/devkitpro/devkitARM/bin/../lib/gcc/arm-none-eabi/4.9.2/../../../../arm-none-eabi/lib/libc.a(lib_a-mbtowc_r.o)
                0x0000000008020324                __eucjp_mbtowc
 .text.__jis_mbtowc
                0x0000000008020474      0x1bc /opt/devkitpro/devkitARM/bin/../lib/gcc/arm-none-eabi/4.9.2/../../../../arm-none-eabi/lib/libc.a(lib_a-mbtowc_r.o)
                0x0000000008020474                __jis_mbtowc
 .text          0x0000000008020630        0x0 /opt/devkitpro/devkitARM/bin/../lib/gcc/arm-none-eabi/4.9.2/../../../../arm-none-eabi/lib/libc.a(lib_a-mprec.o)
 .text._Balloc  0x0000000008020630       0x90 /opt/devkitpro/devkitARM/bin/../lib/gcc/arm-none-eabi/4.9.2/../../../../arm-none-eabi/lib/libc.a(lib_a-mprec.o)
                0x0000000008020630                _Balloc
 .text._Bfree   0x00000000080206c0       0x1c /opt/devkitpro/devkitARM/bin/../lib/gcc/arm-none-eabi/4.9.2/../../../../arm-none-eabi/lib/libc.a(lib_a-mprec.o)
                0x00000000080206c0                _Bfree
 .text.__multadd
                0x00000000080206dc       0xdc /opt/devkitpro/devkitARM/bin/../lib/gcc/arm-none-eabi/4.9.2/../../../../arm-none-eabi/lib/libc.a(lib_a-mprec.o)
                0x00000000080206dc                __multadd
 .text.__s2b    0x00000000080207b8       0xe8 /opt/devkitpro/devkitARM/bin/../lib/gcc/arm-none-eabi/4.9.2/../../../../arm-none-eabi/lib/libc.a(lib_a-mprec.o)
                0x00000000080207b8                __s2b
 .text.__hi0bits
                0x00000000080208a0       0x5c /opt/devkitpro/devkitARM/bin/../lib/gcc/arm-none-eabi/4.9.2/../../../../arm-none-eabi/lib/libc.a(lib_a-mprec.o)
                0x00000000080208a0                __hi0bits
 .text.__lo0bits
                0x00000000080208fc       0x94 /opt/devkitpro/devkitARM/bin/../lib/gcc/arm-none-eabi/4.9.2/../../../../arm-none-eabi/lib/libc.a(lib_a-mprec.o)
                0x00000000080208fc                __lo0bits
 .text.__i2b    0x0000000008020990       0x24 /opt/devkitpro/devkitARM/bin/../lib/gcc/arm-none-eabi/4.9.2/../../../../arm-none-eabi/lib/libc.a(lib_a-mprec.o)
                0x0000000008020990                __i2b
 .text.__multiply
                0x00000000080209b4      0x1f0 /opt/devkitpro/devkitARM/bin/../lib/gcc/arm-none-eabi/4.9.2/../../../../arm-none-eabi/lib/libc.a(lib_a-mprec.o)
                0x00000000080209b4                __multiply
 .text.__pow5mult
                0x0000000008020ba4      0x104 /opt/devkitpro/devkitARM/bin/../lib/gcc/arm-none-eabi/4.9.2/../../../../arm-none-eabi/lib/libc.a(lib_a-mprec.o)
                0x0000000008020ba4                __pow5mult
 .text.__lshift
                0x0000000008020ca8       0xf8 /opt/devkitpro/devkitARM/bin/../lib/gcc/arm-none-eabi/4.9.2/../../../../arm-none-eabi/lib/libc.a(lib_a-mprec.o)
                0x0000000008020ca8                __lshift
 .text.__mcmp   0x0000000008020da0       0x64 /opt/devkitpro/devkitARM/bin/../lib/gcc/arm-none-eabi/4.9.2/../../../../arm-none-eabi/lib/libc.a(lib_a-mprec.o)
                0x0000000008020da0                __mcmp
 .text.__mdiff  0x0000000008020e04      0x154 /opt/devkitpro/devkitARM/bin/../lib/gcc/arm-none-eabi/4.9.2/../../../../arm-none-eabi/lib/libc.a(lib_a-mprec.o)
                0x0000000008020e04                __mdiff
 .text.__ulp    0x0000000008020f58       0x64 /opt/devkitpro/devkitARM/bin/../lib/gcc/arm-none-eabi/4.9.2/../../../../arm-none-eabi/lib/libc.a(lib_a-mprec.o)
                0x0000000008020f58                __ulp
 .text.__b2d    0x0000000008020fbc       0xfc /opt/devkitpro/devkitARM/bin/../lib/gcc/arm-none-eabi/4.9.2/../../../../arm-none-eabi/lib/libc.a(lib_a-mprec.o)
                0x0000000008020fbc                __b2d
 .text.__d2b    0x00000000080210b8      0x10c /opt/devkitpro/devkitARM/bin/../lib/gcc/arm-none-eabi/4.9.2/../../../../arm-none-eabi/lib/libc.a(lib_a-mprec.o)
                0x00000000080210b8                __d2b
 .text.__ratio  0x00000000080211c4       0x98 /opt/devkitpro/devkitARM/bin/../lib/gcc/arm-none-eabi/4.9.2/../../../../arm-none-eabi/lib/libc.a(lib_a-mprec.o)
                0x00000000080211c4                __ratio
 .text._mprec_log10
                0x000000000802125c       0x54 /opt/devkitpro/devkitARM/bin/../lib/gcc/arm-none-eabi/4.9.2/../../../../arm-none-eabi/lib/libc.a(lib_a-mprec.o)
                0x000000000802125c                _mprec_log10
 .text.__copybits
                0x00000000080212b0       0x70 /opt/devkitpro/devkitARM/bin/../lib/gcc/arm-none-eabi/4.9.2/../../../../arm-none-eabi/lib/libc.a(lib_a-mprec.o)
                0x00000000080212b0                __copybits
 .text.__any_on
                0x0000000008021320       0x80 /opt/devkitpro/devkitARM/bin/../lib/gcc/arm-none-eabi/4.9.2/../../../../arm-none-eabi/lib/libc.a(lib_a-mprec.o)
                0x0000000008021320                __any_on
 .text          0x00000000080213a0        0x0 /opt/devkitpro/devkitARM/bin/../lib/gcc/arm-none-eabi/4.9.2/../../../../arm-none-eabi/lib/libc.a(lib_a-s_fpclassify.o)
 .text.__fpclassifyd
                0x00000000080213a0       0x6c /opt/devkitpro/devkitARM/bin/../lib/gcc/arm-none-eabi/4.9.2/../../../../arm-none-eabi/lib/libc.a(lib_a-s_fpclassify.o)
                0x00000000080213a0                __fpclassifyd
 .text          0x000000000802140c        0x0 /opt/devkitpro/devkitARM/bin/../lib/gcc/arm-none-eabi/4.9.2/../../../../arm-none-eabi/lib/libc.a(lib_a-s_frexp.o)
 .text.frexp    0x000000000802140c       0xa8 /opt/devkitpro/devkitARM/bin/../lib/gcc/arm-none-eabi/4.9.2/../../../../arm-none-eabi/lib/libc.a(lib_a-s_frexp.o)
                0x000000000802140c                frexp
 .text          0x00000000080214b4        0x0 /opt/devkitpro/devkitARM/bin/../lib/gcc/arm-none-eabi/4.9.2/../../../../arm-none-eabi/lib/libc.a(lib_a-stdio.o)
 .text.__sread  0x00000000080214b4       0x34 /opt/devkitpro/devkitARM/bin/../lib/gcc/arm-none-eabi/4.9.2/../../../../arm-none-eabi/lib/libc.a(lib_a-stdio.o)
                0x00000000080214b4                __sread
 .text.__seofread
                0x00000000080214e8        0x8 /opt/devkitpro/devkitARM/bin/../lib/gcc/arm-none-eabi/4.9.2/../../../../arm-none-eabi/lib/libc.a(lib_a-stdio.o)
                0x00000000080214e8                __seofread
 .text.__swrite
                0x00000000080214f0       0x58 /opt/devkitpro/devkitARM/bin/../lib/gcc/arm-none-eabi/4.9.2/../../../../arm-none-eabi/lib/libc.a(lib_a-stdio.o)
                0x00000000080214f0                __swrite
 .text.__sseek  0x0000000008021548       0x30 /opt/devkitpro/devkitARM/bin/../lib/gcc/arm-none-eabi/4.9.2/../../../../arm-none-eabi/lib/libc.a(lib_a-stdio.o)
                0x0000000008021548                __sseek
 .text.__sclose
                0x0000000008021578       0x14 /opt/devkitpro/devkitARM/bin/../lib/gcc/arm-none-eabi/4.9.2/../../../../arm-none-eabi/lib/libc.a(lib_a-stdio.o)
                0x0000000008021578                __sclose
 .text          0x000000000802158c        0x0 /opt/devkitpro/devkitARM/bin/../lib/gcc/arm-none-eabi/4.9.2/../../../../arm-none-eabi/lib/libc.a(lib_a-strcasecmp.o)
 .text.strcasecmp
                0x000000000802158c       0x6c /opt/devkitpro/devkitARM/bin/../lib/gcc/arm-none-eabi/4.9.2/../../../../arm-none-eabi/lib/libc.a(lib_a-strcasecmp.o)
                0x000000000802158c                strcasecmp
 .text          0x00000000080215f8        0x0 /opt/devkitpro/devkitARM/bin/../lib/gcc/arm-none-eabi/4.9.2/../../../../arm-none-eabi/lib/libc.a(lib_a-strchr.o)
 .text.strchr   0x00000000080215f8      0x160 /opt/devkitpro/devkitARM/bin/../lib/gcc/arm-none-eabi/4.9.2/../../../../arm-none-eabi/lib/libc.a(lib_a-strchr.o)
                0x00000000080215f8                strchr
 .text          0x0000000008021758        0x0 /opt/devkitpro/devkitARM/bin/../lib/gcc/arm-none-eabi/4.9.2/../../../../arm-none-eabi/lib/libc.a(lib_a-strlcpy.o)
 .text.strlcpy  0x0000000008021758       0x48 /opt/devkitpro/devkitARM/bin/../lib/gcc/arm-none-eabi/4.9.2/../../../../arm-none-eabi/lib/libc.a(lib_a-strlcpy.o)
                0x0000000008021758                strlcpy
 .text          0x00000000080217a0        0x0 /opt/devkitpro/devkitARM/bin/../lib/gcc/arm-none-eabi/4.9.2/../../../../arm-none-eabi/lib/libc.a(lib_a-strncasecmp.o)
 .text.strncasecmp
                0x00000000080217a0       0x94 /opt/devkitpro/devkitARM/bin/../lib/gcc/arm-none-eabi/4.9.2/../../../../arm-none-eabi/lib/libc.a(lib_a-strncasecmp.o)
                0x00000000080217a0                strncasecmp
 .text          0x0000000008021834        0x0 /opt/devkitpro/devkitARM/bin/../lib/gcc/arm-none-eabi/4.9.2/../../../../arm-none-eabi/lib/libc.a(lib_a-strncpy.o)
 .text.strncpy  0x0000000008021834       0xe4 /opt/devkitpro/devkitARM/bin/../lib/gcc/arm-none-eabi/4.9.2/../../../../arm-none-eabi/lib/libc.a(lib_a-strncpy.o)
                0x0000000008021834                strncpy
 .text          0x0000000008021918        0x0 /opt/devkitpro/devkitARM/bin/../lib/gcc/arm-none-eabi/4.9.2/../../../../arm-none-eabi/lib/libc.a(lib_a-strtol.o)
 .text._strtol_r
                0x0000000008021918      0x1dc /opt/devkitpro/devkitARM/bin/../lib/gcc/arm-none-eabi/4.9.2/../../../../arm-none-eabi/lib/libc.a(lib_a-strtol.o)
                0x0000000008021918                _strtol_r
 .text.strtol   0x0000000008021af4       0x28 /opt/devkitpro/devkitARM/bin/../lib/gcc/arm-none-eabi/4.9.2/../../../../arm-none-eabi/lib/libc.a(lib_a-strtol.o)
                0x0000000008021af4                strtol
 .text          0x0000000008021b1c        0x0 /opt/devkitpro/devkitARM/bin/../lib/gcc/arm-none-eabi/4.9.2/../../../../arm-none-eabi/lib/libc.a(lib_a-svfiprintf.o)
 .text.get_arg  0x0000000008021b1c      0x860 /opt/devkitpro/devkitARM/bin/../lib/gcc/arm-none-eabi/4.9.2/../../../../arm-none-eabi/lib/libc.a(lib_a-svfiprintf.o)
 .text.__ssprint_r
                0x000000000802237c      0x1b0 /opt/devkitpro/devkitARM/bin/../lib/gcc/arm-none-eabi/4.9.2/../../../../arm-none-eabi/lib/libc.a(lib_a-svfiprintf.o)
                0x000000000802237c                __ssprint_r
 .text._svfiprintf_r
                0x000000000802252c     0x2e94 /opt/devkitpro/devkitARM/bin/../lib/gcc/arm-none-eabi/4.9.2/../../../../arm-none-eabi/lib/libc.a(lib_a-svfiprintf.o)
                0x000000000802252c                _svfiprintf_r
 .text          0x00000000080253c0        0x0 /opt/devkitpro/devkitARM/bin/../lib/gcc/arm-none-eabi/4.9.2/../../../../arm-none-eabi/lib/libc.a(lib_a-wcsnrtombs.o)
 .text._wcsnrtombs_r
                0x00000000080253c0      0x194 /opt/devkitpro/devkitARM/bin/../lib/gcc/arm-none-eabi/4.9.2/../../../../arm-none-eabi/lib/libc.a(lib_a-wcsnrtombs.o)
                0x00000000080253c0                _wcsnrtombs_r
 .text.wcsnrtombs
                0x0000000008025554       0x44 /opt/devkitpro/devkitARM/bin/../lib/gcc/arm-none-eabi/4.9.2/../../../../arm-none-eabi/lib/libc.a(lib_a-wcsnrtombs.o)
                0x0000000008025554                wcsnrtombs
 .text          0x0000000008025598        0x0 /opt/devkitpro/devkitARM/bin/../lib/gcc/arm-none-eabi/4.9.2/../../../../arm-none-eabi/lib/libc.a(lib_a-callocr.o)
 .text._calloc_r
                0x0000000008025598       0x9c /opt/devkitpro/devkitARM/bin/../lib/gcc/arm-none-eabi/4.9.2/../../../../arm-none-eabi/lib/libc.a(lib_a-callocr.o)
                0x0000000008025598                _calloc_r
 .text          0x0000000008025634        0x0 /opt/devkitpro/devkitARM/bin/../lib/gcc/arm-none-eabi/4.9.2/../../../../arm-none-eabi/lib/libc.a(lib_a-ctype_.o)
 .text.__set_ctype
                0x0000000008025634       0x18 /opt/devkitpro/devkitARM/bin/../lib/gcc/arm-none-eabi/4.9.2/../../../../arm-none-eabi/lib/libc.a(lib_a-ctype_.o)
                0x0000000008025634                __set_ctype
 .text          0x000000000802564c        0x0 /opt/devkitpro/devkitARM/bin/../lib/gcc/arm-none-eabi/4.9.2/../../../../arm-none-eabi/lib/libc.a(lib_a-fclose.o)
 .text._fclose_r
                0x000000000802564c      0x11c /opt/devkitpro/devkitARM/bin/../lib/gcc/arm-none-eabi/4.9.2/../../../../arm-none-eabi/lib/libc.a(lib_a-fclose.o)
                0x000000000802564c                _fclose_r
 .text.fclose   0x0000000008025768       0x18 /opt/devkitpro/devkitARM/bin/../lib/gcc/arm-none-eabi/4.9.2/../../../../arm-none-eabi/lib/libc.a(lib_a-fclose.o)
                0x0000000008025768                fclose
 .text          0x0000000008025780        0x0 /opt/devkitpro/devkitARM/bin/../lib/gcc/arm-none-eabi/4.9.2/../../../../arm-none-eabi/lib/libc.a(lib_a-getenv_r.o)
 .text._findenv_r
                0x0000000008025780       0xd0 /opt/devkitpro/devkitARM/bin/../lib/gcc/arm-none-eabi/4.9.2/../../../../arm-none-eabi/lib/libc.a(lib_a-getenv_r.o)
                0x0000000008025780                _findenv_r
 .text._getenv_r
                0x0000000008025850       0x1c /opt/devkitpro/devkitARM/bin/../lib/gcc/arm-none-eabi/4.9.2/../../../../arm-none-eabi/lib/libc.a(lib_a-getenv_r.o)
                0x0000000008025850                _getenv_r
 .text          0x000000000802586c        0x0 /opt/devkitpro/devkitARM/bin/../lib/gcc/arm-none-eabi/4.9.2/../../../../arm-none-eabi/lib/libc.a(lib_a-environ.o)
 .text          0x000000000802586c        0x0 /opt/devkitpro/devkitARM/bin/../lib/gcc/arm-none-eabi/4.9.2/../../../../arm-none-eabi/lib/libc.a(lib_a-envlock.o)
 .text.__env_lock
                0x000000000802586c        0x4 /opt/devkitpro/devkitARM/bin/../lib/gcc/arm-none-eabi/4.9.2/../../../../arm-none-eabi/lib/libc.a(lib_a-envlock.o)
                0x000000000802586c                __env_lock
 .text.__env_unlock
                0x0000000008025870        0x4 /opt/devkitpro/devkitARM/bin/../lib/gcc/arm-none-eabi/4.9.2/../../../../arm-none-eabi/lib/libc.a(lib_a-envlock.o)
                0x0000000008025870                __env_unlock
 .text          0x0000000008025874      0x114 /opt/devkitpro/devkitARM/bin/../lib/gcc/arm-none-eabi/4.9.2/libgcc.a(_udivsi3.o)
                0x0000000008025874                __udivsi3
                0x0000000008025874                __aeabi_uidiv
                0x0000000008025968                __aeabi_uidivmod
 .text          0x0000000008025988       0x3c /opt/devkitpro/devkitARM/bin/../lib/gcc/arm-none-eabi/4.9.2/libgcc.a(_call_via_rX.o)
                0x0000000008025988                _call_via_r0
                0x000000000802598c                _call_via_r1
                0x0000000008025990                _call_via_r2
                0x0000000008025994                _call_via_r3
                0x0000000008025998                _call_via_r4
                0x000000000802599c                _call_via_r5
                0x00000000080259a0                _call_via_r6
                0x00000000080259a4                _call_via_r7
                0x00000000080259a8                _call_via_r8
                0x00000000080259ac                _call_via_r9
                0x00000000080259b0                _call_via_sl
                0x00000000080259b4                _call_via_fp
                0x00000000080259b8                _call_via_ip
                0x00000000080259bc                _call_via_sp
                0x00000000080259c0                _call_via_lr
 .text          0x00000000080259c4      0x41c /opt/devkitpro/devkitARM/bin/../lib/gcc/arm-none-eabi/4.9.2/libgcc.a(_arm_addsubdf3.o)
                0x00000000080259c4                __aeabi_drsub
                0x00000000080259cc                __aeabi_dsub
                0x00000000080259cc                __subdf3
                0x00000000080259d0                __adddf3
                0x00000000080259d0                __aeabi_dadd
                0x0000000008025ce0                __aeabi_ui2d
                0x0000000008025ce0                __floatunsidf
                0x0000000008025d04                __floatsidf
                0x0000000008025d04                __aeabi_i2d
                0x0000000008025d2c                __extendsfdf2
                0x0000000008025d2c                __aeabi_f2d
                0x0000000008025d6c                __aeabi_ul2d
                0x0000000008025d6c                __floatundidf
                0x0000000008025d80                __floatdidf
                0x0000000008025d80                __aeabi_l2d
 .text          0x0000000008025de0      0x49c /opt/devkitpro/devkitARM/bin/../lib/gcc/arm-none-eabi/4.9.2/libgcc.a(_arm_muldivdf3.o)
                0x0000000008025de0                __aeabi_dmul
                0x0000000008025de0                __muldf3
                0x0000000008026070                __aeabi_ddiv
                0x0000000008026070                __divdf3
 .text          0x000000000802627c      0x144 /opt/devkitpro/devkitARM/bin/../lib/gcc/arm-none-eabi/4.9.2/libgcc.a(_arm_cmpdf2.o)
                0x000000000802627c                __gtdf2
                0x000000000802627c                __gedf2
                0x0000000008026284                __ltdf2
                0x0000000008026284                __ledf2
                0x000000000802628c                __cmpdf2
                0x000000000802628c                __eqdf2
                0x000000000802628c                __nedf2
                0x0000000008026314                __aeabi_cdrcmple
                0x0000000008026330                __aeabi_cdcmple
                0x0000000008026330                __aeabi_cdcmpeq
                0x0000000008026348                __aeabi_dcmpeq
                0x0000000008026360                __aeabi_dcmplt
                0x0000000008026378                __aeabi_dcmple
                0x0000000008026390                __aeabi_dcmpge
                0x00000000080263a8                __aeabi_dcmpgt
 .text          0x00000000080263c0       0x5c /opt/devkitpro/devkitARM/bin/../lib/gcc/arm-none-eabi/4.9.2/libgcc.a(_arm_fixdfsi.o)
                0x00000000080263c0                __fixdfsi
                0x00000000080263c0                __aeabi_d2iz
 .text          0x000000000802641c       0x3c /opt/devkitpro/devkitARM/bin/../lib/gcc/arm-none-eabi/4.9.2/libgcc.a(_aeabi_uldivmod.o)
                0x000000000802641c                __aeabi_uldivmod
 .text          0x0000000008026458       0x84 /opt/devkitpro/devkitARM/bin/../lib/gcc/arm-none-eabi/4.9.2/libgcc.a(bpabi.o)
                0x0000000008026458                __gnu_ldivmod_helper
                0x000000000802649c                __gnu_uldivmod_helper
 .text          0x00000000080264dc      0x178 /opt/devkitpro/devkitARM/bin/../lib/gcc/arm-none-eabi/4.9.2/libgcc.a(_divdi3.o)
                0x00000000080264dc                __divdi3
 .text          0x0000000008026654      0x120 /opt/devkitpro/devkitARM/bin/../lib/gcc/arm-none-eabi/4.9.2/libgcc.a(_udivdi3.o)
                0x0000000008026654                __udivdi3
 .text          0x0000000008026774       0x28 /opt/devkitpro/devkitARM/bin/../lib/gcc/arm-none-eabi/4.9.2/libgcc.a(_clzdi2.o)
                0x0000000008026774                __clzdi2
 .text          0x000000000802679c       0x48 /opt/devkitpro/devkitARM/bin/../lib/gcc/arm-none-eabi/4.9.2/libgcc.a(_clzsi2.o)
                0x000000000802679c                __clzsi2
 .text          0x00000000080267e4       0x88 /opt/devkitpro/devkitARM/bin/../lib/gcc/arm-none-eabi/4.9.2/../../../../arm-none-eabi/lib/libsysbase.a(close.o)
                0x00000000080267e4                _close_r
 .text          0x000000000802686c       0x70 /opt/devkitpro/devkitARM/bin/../lib/gcc/arm-none-eabi/4.9.2/../../../../arm-none-eabi/lib/libsysbase.a(fstat.o)
                0x000000000802686c                _fstat_r
 .text          0x00000000080268dc       0x10 /opt/devkitpro/devkitARM/bin/../lib/gcc/arm-none-eabi/4.9.2/../../../../arm-none-eabi/lib/libsysbase.a(getpid.o)
                0x00000000080268dc                _getpid_r
 .text          0x00000000080268ec        0x8 /opt/devkitpro/devkitARM/bin/../lib/gcc/arm-none-eabi/4.9.2/../../../../arm-none-eabi/lib/libsysbase.a(isatty.o)
                0x00000000080268ec                _isatty_r
 .text          0x00000000080268f4       0x10 /opt/devkitpro/devkitARM/bin/../lib/gcc/arm-none-eabi/4.9.2/../../../../arm-none-eabi/lib/libsysbase.a(kill.o)
                0x00000000080268f4                _kill_r
 .text          0x0000000008026904       0x78 /opt/devkitpro/devkitARM/bin/../lib/gcc/arm-none-eabi/4.9.2/../../../../arm-none-eabi/lib/libsysbase.a(lseek.o)
                0x0000000008026904                _lseek_r
 .text          0x000000000802697c       0x78 /opt/devkitpro/devkitARM/bin/../lib/gcc/arm-none-eabi/4.9.2/../../../../arm-none-eabi/lib/libsysbase.a(read.o)
                0x000000000802697c                _read_r
 .text          0x00000000080269f4       0x70 /opt/devkitpro/devkitARM/bin/../lib/gcc/arm-none-eabi/4.9.2/../../../../arm-none-eabi/lib/libsysbase.a(sbrk.o)
                0x00000000080269f4                _sbrk_r
 .text          0x0000000008026a64       0x78 /opt/devkitpro/devkitARM/bin/../lib/gcc/arm-none-eabi/4.9.2/../../../../arm-none-eabi/lib/libsysbase.a(write.o)
                0x0000000008026a64                _write_r
 .text          0x0000000008026adc       0x20 /opt/devkitpro/devkitARM/bin/../lib/gcc/arm-none-eabi/4.9.2/../../../../arm-none-eabi/lib/libsysbase.a(_exit.o)
                0x0000000008026adc                _exit
 .text          0x0000000008026afc        0x0 /opt/devkitpro/devkitARM/bin/../lib/gcc/arm-none-eabi/4.9.2/../../../../arm-none-eabi/lib/libsysbase.a(malloc_vars.o)
 .text          0x0000000008026afc        0x8 /opt/devkitpro/devkitARM/bin/../lib/gcc/arm-none-eabi/4.9.2/../../../../arm-none-eabi/lib/libsysbase.a(flock.o)
                0x0000000008026afc                __flockfile
                0x0000000008026b00                __funlockfile
 .text          0x0000000008026b04      0x100 /opt/devkitpro/devkitARM/bin/../lib/gcc/arm-none-eabi/4.9.2/../../../../arm-none-eabi/lib/libsysbase.a(syscall_support.o)
                0x0000000008026b04                __libc_lock_init
                0x0000000008026b1c                __libc_lock_acquire
                0x0000000008026b34                __libc_lock_try_acquire
                0x0000000008026b54                __libc_lock_release
                0x0000000008026b6c                __libc_lock_close
                0x0000000008026b84                __libc_lock_init_recursive
                0x0000000008026b9c                __libc_lock_acquire_recursive
                0x0000000008026bb4                __libc_lock_try_acquire_recursive
                0x0000000008026bd4                __libc_lock_release_recursive
                0x0000000008026bec                __libc_lock_close_recursive
 .text          0x0000000008026c04      0x27c /opt/devkitpro/devkitARM/bin/../lib/gcc/arm-none-eabi/4.9.2/../../../../arm-none-eabi/lib/libsysbase.a(handle_manager.o)
                0x0000000008026c04                __free_handle
                0x0000000008026c50                __release_handle
                0x0000000008026c80                __alloc_handle
                0x0000000008026cf0                __get_handle
                0x0000000008026d0c                dup
                0x0000000008026da0                dup2
 .text          0x0000000008026e80       0x24 /opt/devkitpro/devkitARM/bin/../lib/gcc/arm-none-eabi/4.9.2/../../../../arm-none-eabi/lib/libsysbase.a(getreent.o)
                0x0000000008026e80                __getreent
 .text          0x0000000008026ea4      0x1c4 /opt/devkitpro/devkitARM/bin/../lib/gcc/arm-none-eabi/4.9.2/../../../../arm-none-eabi/lib/libsysbase.a(iosupport.o)
                0x0000000008026ea4                setDefaultDevice
                0x0000000008026ebc                FindDevice
                0x0000000008026f74                RemoveDevice
                0x0000000008026fa4                AddDevice
                0x0000000008027040                GetDeviceOpTab
 .text          0x0000000008027068        0x0 /opt/devkitpro/devkitARM/bin/../lib/gcc/arm-none-eabi/4.9.2/../../../../arm-none-eabi/lib/libc.a(lib_a-errno.o)
 .text.__errno  0x0000000008027068       0x10 /opt/devkitpro/devkitARM/bin/../lib/gcc/arm-none-eabi/4.9.2/../../../../arm-none-eabi/lib/libc.a(lib_a-errno.o)
                0x0000000008027068                __errno
 .text          0x0000000008027078        0x0 /opt/devkitpro/devkitARM/bin/../lib/gcc/arm-none-eabi/4.9.2/crtend.o
 .text          0x0000000008027078        0x0 /opt/devkitpro/devkitARM/bin/../lib/gcc/arm-none-eabi/4.9.2/crtn.o
 *(.plt)
 *(.gnu_warning)
 *(.glue_7t)
 .glue_7t       0x0000000008027078        0x0 linker stubs
 *(.glue_7)
 .glue_7        0x0000000008027078        0x0 linker stubs
                0x0000000008027078                . = ALIGN (0x4)
 *crtbegin.o(.ctors)
 *(EXCLUDE_FILE(*crtend.o) .ctors)
 *(SORT(.ctors.*))
 *crtend.o(.ctors)
 *ctrbegin.o(.dtors)
 *(EXCLUDE_FILE(*crtend.o) .dtors)
 *(SORT(.dtors.*))
 *ctrend.o(.dtors)
 *(.rodata .rodata.* .gnu.linkonce.r.*)
 .rodata._ZTI28externally_allocated_sa_listI23sprite_init_param_groupLm256EE
                0x0000000008027078        0x8 objs/active_level_class.thumb.o
                0x0000000008027078                typeinfo for externally_allocated_sa_list<sprite_init_param_group, 256ul>
 .rodata._ZTS28externally_allocated_sa_listI23sprite_init_param_groupLm256EE
                0x0000000008027080       0x40 objs/active_level_class.thumb.o
                0x0000000008027080                typeinfo name for externally_allocated_sa_list<sprite_init_param_group, 256ul>
 .rodata._ZTI8sa_stackIiLm256EE
                0x00000000080270c0        0x8 objs/active_level_class.thumb.o
                0x00000000080270c0                typeinfo for sa_stack<int, 256ul>
 .rodata._ZTS8sa_stackIiLm256EE
                0x00000000080270c8       0x14 objs/active_level_class.thumb.o
                0x00000000080270c8                typeinfo name for sa_stack<int, 256ul>
 .rodata._ZTI12sa_free_listILm256EE
                0x00000000080270dc        0xc objs/active_level_class.thumb.o
                0x00000000080270dc                typeinfo for sa_free_list<256ul>
 .rodata._ZTS12sa_free_listILm256EE
                0x00000000080270e8       0x18 objs/active_level_class.thumb.o
                0x00000000080270e8                typeinfo name for sa_free_list<256ul>
 .rodata._ZTV28externally_allocated_sa_listI23sprite_init_param_groupLm256EE
                0x0000000008027100       0x10 objs/active_level_class.thumb.o
                0x0000000008027100                vtable for externally_allocated_sa_list<sprite_init_param_group, 256ul>
 .rodata._ZTV8sa_stackIiLm256EE
                0x0000000008027110       0x10 objs/active_level_class.thumb.o
                0x0000000008027110                vtable for sa_stack<int, 256ul>
 .rodata._ZTV12sa_free_listILm256EE
                0x0000000008027120       0x10 objs/active_level_class.thumb.o
                0x0000000008027120                vtable for sa_free_list<256ul>
 .rodata        0x0000000008027130       0x40 objs/air_block_stuff_class.thumb.o
                0x0000000008027130                typeinfo name for air_block_stuff
                0x0000000008027144                typeinfo for air_block_stuff
                0x0000000008027150                vtable for air_block_stuff
 .rodata        0x0000000008027170       0x40 objs/block_base_stuff_class.thumb.o
                0x0000000008027170                typeinfo name for block_base_stuff
                0x0000000008027184                typeinfo for block_base_stuff
                0x0000000008027190                vtable for block_base_stuff
 .rodata._ZTI24grass_single_block_stuff
                0x00000000080271b0        0xc objs/block_stuff.thumb.o
                0x00000000080271b0                typeinfo for grass_single_block_stuff
 .rodata._ZTS24grass_single_block_stuff
                0x00000000080271bc       0x1c objs/block_stuff.thumb.o
                0x00000000080271bc                typeinfo name for grass_single_block_stuff
 .rodata._ZTI26grass_top_left_block_stuff
                0x00000000080271d8        0xc objs/block_stuff.thumb.o
                0x00000000080271d8                typeinfo for grass_top_left_block_stuff
 .rodata._ZTS26grass_top_left_block_stuff
                0x00000000080271e4       0x20 objs/block_stuff.thumb.o
                0x00000000080271e4                typeinfo name for grass_top_left_block_stuff
 .rodata._ZTI28grass_top_middle_block_stuff
                0x0000000008027204        0xc objs/block_stuff.thumb.o
                0x0000000008027204                typeinfo for grass_top_middle_block_stuff
 .rodata._ZTS28grass_top_middle_block_stuff
                0x0000000008027210       0x20 objs/block_stuff.thumb.o
                0x0000000008027210                typeinfo name for grass_top_middle_block_stuff
 .rodata._ZTI27grass_top_right_block_stuff
                0x0000000008027230        0xc objs/block_stuff.thumb.o
                0x0000000008027230                typeinfo for grass_top_right_block_stuff
 .rodata._ZTS27grass_top_right_block_stuff
                0x000000000802723c       0x20 objs/block_stuff.thumb.o
                0x000000000802723c                typeinfo name for grass_top_right_block_stuff
 .rodata._ZTI28dirt_middle_left_block_stuff
                0x000000000802725c        0xc objs/block_stuff.thumb.o
                0x000000000802725c                typeinfo for dirt_middle_left_block_stuff
 .rodata._ZTS28dirt_middle_left_block_stuff
                0x0000000008027268       0x20 objs/block_stuff.thumb.o
                0x0000000008027268                typeinfo name for dirt_middle_left_block_stuff
 .rodata._ZTI30dirt_middle_middle_block_stuff
                0x0000000008027288        0xc objs/block_stuff.thumb.o
                0x0000000008027288                typeinfo for dirt_middle_middle_block_stuff
 .rodata._ZTS30dirt_middle_middle_block_stuff
                0x0000000008027294       0x24 objs/block_stuff.thumb.o
                0x0000000008027294                typeinfo name for dirt_middle_middle_block_stuff
 .rodata._ZTI29dirt_middle_right_block_stuff
                0x00000000080272b8        0xc objs/block_stuff.thumb.o
                0x00000000080272b8                typeinfo for dirt_middle_right_block_stuff
 .rodata._ZTS29dirt_middle_right_block_stuff
                0x00000000080272c4       0x20 objs/block_stuff.thumb.o
                0x00000000080272c4                typeinfo name for dirt_middle_right_block_stuff
 .rodata._ZTI28dirt_bottom_left_block_stuff
                0x00000000080272e4        0xc objs/block_stuff.thumb.o
                0x00000000080272e4                typeinfo for dirt_bottom_left_block_stuff
 .rodata._ZTS28dirt_bottom_left_block_stuff
                0x00000000080272f0       0x20 objs/block_stuff.thumb.o
                0x00000000080272f0                typeinfo name for dirt_bottom_left_block_stuff
 .rodata._ZTI30dirt_bottom_middle_block_stuff
                0x0000000008027310        0xc objs/block_stuff.thumb.o
                0x0000000008027310                typeinfo for dirt_bottom_middle_block_stuff
 .rodata._ZTS30dirt_bottom_middle_block_stuff
                0x000000000802731c       0x24 objs/block_stuff.thumb.o
                0x000000000802731c                typeinfo name for dirt_bottom_middle_block_stuff
 .rodata._ZTI29dirt_bottom_right_block_stuff
                0x0000000008027340        0xc objs/block_stuff.thumb.o
                0x0000000008027340                typeinfo for dirt_bottom_right_block_stuff
 .rodata._ZTS29dirt_bottom_right_block_stuff
                0x000000000802734c       0x20 objs/block_stuff.thumb.o
                0x000000000802734c                typeinfo name for dirt_bottom_right_block_stuff
 .rodata._ZTI31grass_slope_p16_p16_block_stuff
                0x000000000802736c        0xc objs/block_stuff.thumb.o
                0x000000000802736c                typeinfo for grass_slope_p16_p16_block_stuff
 .rodata._ZTS31grass_slope_p16_p16_block_stuff
                0x0000000008027378       0x24 objs/block_stuff.thumb.o
                0x0000000008027378                typeinfo name for grass_slope_p16_p16_block_stuff
 .rodata._ZTI31grass_slope_n16_p16_block_stuff
                0x000000000802739c        0xc objs/block_stuff.thumb.o
                0x000000000802739c                typeinfo for grass_slope_n16_p16_block_stuff
 .rodata._ZTS31grass_slope_n16_p16_block_stuff
                0x00000000080273a8       0x24 objs/block_stuff.thumb.o
                0x00000000080273a8                typeinfo name for grass_slope_n16_p16_block_stuff
 .rodata._ZTI37grass_slope_p32_p16_short_block_stuff
                0x00000000080273cc        0xc objs/block_stuff.thumb.o
                0x00000000080273cc                typeinfo for grass_slope_p32_p16_short_block_stuff
 .rodata._ZTS37grass_slope_p32_p16_short_block_stuff
                0x00000000080273d8       0x28 objs/block_stuff.thumb.o
                0x00000000080273d8                typeinfo name for grass_slope_p32_p16_short_block_stuff
 .rodata._ZTI36grass_slope_p32_p16_tall_block_stuff
                0x0000000008027400        0xc objs/block_stuff.thumb.o
                0x0000000008027400                typeinfo for grass_slope_p32_p16_tall_block_stuff
 .rodata._ZTS36grass_slope_p32_p16_tall_block_stuff
                0x000000000802740c       0x28 objs/block_stuff.thumb.o
                0x000000000802740c                typeinfo name for grass_slope_p32_p16_tall_block_stuff
 .rodata._ZTI36grass_slope_n32_p16_tall_block_stuff
                0x0000000008027434        0xc objs/block_stuff.thumb.o
                0x0000000008027434                typeinfo for grass_slope_n32_p16_tall_block_stuff
 .rodata._ZTS36grass_slope_n32_p16_tall_block_stuff
                0x0000000008027440       0x28 objs/block_stuff.thumb.o
                0x0000000008027440                typeinfo name for grass_slope_n32_p16_tall_block_stuff
 .rodata._ZTI37grass_slope_n32_p16_short_block_stuff
                0x0000000008027468        0xc objs/block_stuff.thumb.o
                0x0000000008027468                typeinfo for grass_slope_n32_p16_short_block_stuff
 .rodata._ZTS37grass_slope_n32_p16_short_block_stuff
                0x0000000008027474       0x28 objs/block_stuff.thumb.o
                0x0000000008027474                typeinfo name for grass_slope_n32_p16_short_block_stuff
 .rodata._ZTI31grass_in_slope_left_block_stuff
                0x000000000802749c        0xc objs/block_stuff.thumb.o
                0x000000000802749c                typeinfo for grass_in_slope_left_block_stuff
 .rodata._ZTS31grass_in_slope_left_block_stuff
                0x00000000080274a8       0x24 objs/block_stuff.thumb.o
                0x00000000080274a8                typeinfo name for grass_in_slope_left_block_stuff
 .rodata._ZTI32grass_in_slope_right_block_stuff
                0x00000000080274cc        0xc objs/block_stuff.thumb.o
                0x00000000080274cc                typeinfo for grass_in_slope_right_block_stuff
 .rodata._ZTS32grass_in_slope_right_block_stuff
                0x00000000080274d8       0x24 objs/block_stuff.thumb.o
                0x00000000080274d8                typeinfo name for grass_in_slope_right_block_stuff
 *fill*         0x00000000080274fc        0x4 
 .rodata._ZTV24grass_single_block_stuff
                0x0000000008027500       0x20 objs/block_stuff.thumb.o
                0x0000000008027500                vtable for grass_single_block_stuff
 .rodata._ZTV26grass_top_left_block_stuff
                0x0000000008027520       0x20 objs/block_stuff.thumb.o
                0x0000000008027520                vtable for grass_top_left_block_stuff
 .rodata._ZTV28grass_top_middle_block_stuff
                0x0000000008027540       0x20 objs/block_stuff.thumb.o
                0x0000000008027540                vtable for grass_top_middle_block_stuff
 .rodata._ZTV27grass_top_right_block_stuff
                0x0000000008027560       0x20 objs/block_stuff.thumb.o
                0x0000000008027560                vtable for grass_top_right_block_stuff
 .rodata._ZTV28dirt_middle_left_block_stuff
                0x0000000008027580       0x20 objs/block_stuff.thumb.o
                0x0000000008027580                vtable for dirt_middle_left_block_stuff
 .rodata._ZTV30dirt_middle_middle_block_stuff
                0x00000000080275a0       0x20 objs/block_stuff.thumb.o
                0x00000000080275a0                vtable for dirt_middle_middle_block_stuff
 .rodata._ZTV29dirt_middle_right_block_stuff
                0x00000000080275c0       0x20 objs/block_stuff.thumb.o
                0x00000000080275c0                vtable for dirt_middle_right_block_stuff
 .rodata._ZTV28dirt_bottom_left_block_stuff
                0x00000000080275e0       0x20 objs/block_stuff.thumb.o
                0x00000000080275e0                vtable for dirt_bottom_left_block_stuff
 .rodata._ZTV30dirt_bottom_middle_block_stuff
                0x0000000008027600       0x20 objs/block_stuff.thumb.o
                0x0000000008027600                vtable for dirt_bottom_middle_block_stuff
 .rodata._ZTV29dirt_bottom_right_block_stuff
                0x0000000008027620       0x20 objs/block_stuff.thumb.o
                0x0000000008027620                vtable for dirt_bottom_right_block_stuff
 .rodata._ZTV31grass_slope_p16_p16_block_stuff
                0x0000000008027640       0x20 objs/block_stuff.thumb.o
                0x0000000008027640                vtable for grass_slope_p16_p16_block_stuff
 .rodata._ZTV31grass_slope_n16_p16_block_stuff
                0x0000000008027660       0x20 objs/block_stuff.thumb.o
                0x0000000008027660                vtable for grass_slope_n16_p16_block_stuff
 .rodata._ZTV37grass_slope_p32_p16_short_block_stuff
                0x0000000008027680       0x20 objs/block_stuff.thumb.o
                0x0000000008027680                vtable for grass_slope_p32_p16_short_block_stuff
 .rodata._ZTV36grass_slope_p32_p16_tall_block_stuff
                0x00000000080276a0       0x20 objs/block_stuff.thumb.o
                0x00000000080276a0                vtable for grass_slope_p32_p16_tall_block_stuff
 .rodata._ZTV36grass_slope_n32_p16_tall_block_stuff
                0x00000000080276c0       0x20 objs/block_stuff.thumb.o
                0x00000000080276c0                vtable for grass_slope_n32_p16_tall_block_stuff
 .rodata._ZTV37grass_slope_n32_p16_short_block_stuff
                0x00000000080276e0       0x20 objs/block_stuff.thumb.o
                0x00000000080276e0                vtable for grass_slope_n32_p16_short_block_stuff
 .rodata._ZTV31grass_in_slope_left_block_stuff
                0x0000000008027700       0x20 objs/block_stuff.thumb.o
                0x0000000008027700                vtable for grass_in_slope_left_block_stuff
 .rodata._ZTV32grass_in_slope_right_block_stuff
                0x0000000008027720       0x20 objs/block_stuff.thumb.o
                0x0000000008027720                vtable for grass_in_slope_right_block_stuff
 .rodata        0x0000000008027740    0x403f8 objs/crt0.o
                0x0000000008027740                div_table
                0x0000000008067738                sin_table
 .rodata        0x0000000008067b38       0x10 objs/dma_stuff.thumb.o
 .rodata        0x0000000008067b48       0xc8 objs/door_sprite_stuff_class.thumb.o
                0x0000000008067b48                door_sprite_stuff::the_initial_coll_box_size
                0x0000000008067b50                door_sprite_stuff::the_initial_cb_pos_offset
                0x0000000008067b58                typeinfo name for door_sprite_stuff
                0x0000000008067b6c                typeinfo for door_sprite_stuff
                0x0000000008067b78                vtable for door_sprite_stuff
 .rodata        0x0000000008067c10       0x40 objs/dud_block_stuff_class.thumb.o
                0x0000000008067c10                typeinfo name for dud_block_stuff
                0x0000000008067c24                typeinfo for dud_block_stuff
                0x0000000008067c30                vtable for dud_block_stuff
 .rodata        0x0000000008067c50       0x48 objs/exclam_block_stuff_classes.thumb.o
                0x0000000008067c50                typeinfo name for exclam_block_stuff
                0x0000000008067c68                typeinfo for exclam_block_stuff
                0x0000000008067c78                vtable for exclam_block_stuff
 .rodata        0x0000000008067c98      0x1e0 objs/eyes_block_stuff_classes.thumb.o
                0x0000000008067c98                typeinfo name for eyes_block_stuff
                0x0000000008067cac                typeinfo for eyes_block_stuff
                0x0000000008067cb8                typeinfo name for eyes_block_with_st_waffle_stuff
                0x0000000008067cdc                typeinfo for eyes_block_with_st_waffle_stuff
                0x0000000008067ce8                typeinfo name for eyes_block_with_st_muffin_stuff
                0x0000000008067d0c                typeinfo for eyes_block_with_st_muffin_stuff
                0x0000000008067d18                typeinfo name for eyes_block_with_st_fire_muffin_stuff
                0x0000000008067d40                typeinfo for eyes_block_with_st_fire_muffin_stuff
                0x0000000008067d4c                typeinfo name for eyes_block_with_st_ice_muffin_stuff
                0x0000000008067d74                typeinfo for eyes_block_with_st_ice_muffin_stuff
                0x0000000008067d80                typeinfo name for eyes_block_with_st_chocolate_muffin_stuff
                0x0000000008067dac                typeinfo for eyes_block_with_st_chocolate_muffin_stuff
                0x0000000008067db8                vtable for eyes_block_stuff
                0x0000000008067dd8                vtable for eyes_block_with_st_waffle_stuff
                0x0000000008067df8                vtable for eyes_block_with_st_muffin_stuff
                0x0000000008067e18                vtable for eyes_block_with_st_fire_muffin_stuff
                0x0000000008067e38                vtable for eyes_block_with_st_ice_muffin_stuff
                0x0000000008067e58                vtable for eyes_block_with_st_chocolate_muffin_stuff
 .rodata        0x0000000008067e78       0x1c objs/game_manager_class.thumb.o
                0x0000000008067e78                game_manager::sram_init_str_size
                0x0000000008067e7c                game_manager::sram_const_init_str
 .rodata        0x0000000008067e94      0x180 objs/grass_and_dirt_block_stuff_classes.thumb.o
                0x0000000008067e94                grass_slope_n32_p16_short_block_stuff::height_mask
                0x0000000008067ed4                grass_slope_n32_p16_tall_block_stuff::height_mask
                0x0000000008067f14                grass_slope_p32_p16_tall_block_stuff::height_mask
                0x0000000008067f54                grass_slope_p32_p16_short_block_stuff::height_mask
                0x0000000008067f94                grass_slope_n16_p16_block_stuff::height_mask
                0x0000000008067fd4                grass_slope_p16_p16_block_stuff::height_mask
 .rodata        0x0000000008068014        0xc objs/hud_manager_class.thumb.o
 .rodata        0x0000000008068020       0x40 objs/log_block_stuff_class.thumb.o
                0x0000000008068020                typeinfo name for log_block_stuff
                0x0000000008068034                typeinfo for log_block_stuff
                0x0000000008068040                vtable for log_block_stuff
 .rodata        0x0000000008068060       0x30 objs/oam_entry_classes.thumb.o
 .rodata        0x0000000008068090       0xe8 objs/player_sprite_stuff_class.thumb.o
                0x0000000008068090                player_sprite_stuff::the_initial_coll_box_size
                0x0000000008068098                player_sprite_stuff::the_initial_cb_pos_offset
                0x00000000080680a0                player_sprite_stuff::frame_slot_to_frame_arr
                0x00000000080680a8                typeinfo name for player_sprite_stuff
                0x00000000080680c0                typeinfo for player_sprite_stuff
                0x00000000080680d0                vtable for player_sprite_stuff
                0x0000000008068164                player_sprite_stuff::the_relative_metatile_slot_arr_size
                0x0000000008068168                player_sprite_stuff::the_relative_metatile_slot_arr
 .rodata        0x0000000008068178     0x2cb8 objs/practice_17.bin.o
                0x0000000008068178                practice_17_bin
                0x000000000806ae2c                practice_17_bin_end
                0x000000000806ae2c                practice_17_bin_size
 .rodata        0x000000000806ae30     0x1020 objs/sherwin_gfx.o
                0x000000000806ae30                sherwin_gfxTiles
                0x000000000806be30                sherwin_gfxPal
 .rodata        0x000000000806be50       0xc8 objs/sprite_base_stuff_class.thumb.o
                0x000000000806be50                sprite_base_stuff::the_initial_coll_box_size
                0x000000000806be58                sprite_base_stuff::the_initial_cb_pos_offset
                0x000000000806be60                typeinfo name for sprite_base_stuff
                0x000000000806be74                typeinfo for sprite_base_stuff
                0x000000000806be80                vtable for sprite_base_stuff
                0x000000000806bf14                sprite_base_stuff::the_initial_shape_size
 .rodata        0x000000000806bf18       0x60 objs/sprite_class.thumb.o
 .rodata._ZTI19muffin_sprite_stuff
                0x000000000806bf78        0xc objs/sprite_type_stuff.thumb.o
                0x000000000806bf78                typeinfo for muffin_sprite_stuff
 .rodata._ZTS19muffin_sprite_stuff
                0x000000000806bf84       0x18 objs/sprite_type_stuff.thumb.o
                0x000000000806bf84                typeinfo name for muffin_sprite_stuff
 .rodata._ZTI24fire_muffin_sprite_stuff
                0x000000000806bf9c        0xc objs/sprite_type_stuff.thumb.o
                0x000000000806bf9c                typeinfo for fire_muffin_sprite_stuff
 .rodata._ZTS24fire_muffin_sprite_stuff
                0x000000000806bfa8       0x1c objs/sprite_type_stuff.thumb.o
                0x000000000806bfa8                typeinfo name for fire_muffin_sprite_stuff
 .rodata._ZTI23ice_muffin_sprite_stuff
                0x000000000806bfc4        0xc objs/sprite_type_stuff.thumb.o
                0x000000000806bfc4                typeinfo for ice_muffin_sprite_stuff
 .rodata._ZTS23ice_muffin_sprite_stuff
                0x000000000806bfd0       0x1c objs/sprite_type_stuff.thumb.o
                0x000000000806bfd0                typeinfo name for ice_muffin_sprite_stuff
 .rodata._ZTI29chocolate_muffin_sprite_stuff
                0x000000000806bfec        0xc objs/sprite_type_stuff.thumb.o
                0x000000000806bfec                typeinfo for chocolate_muffin_sprite_stuff
 .rodata._ZTS29chocolate_muffin_sprite_stuff
                0x000000000806bff8       0x20 objs/sprite_type_stuff.thumb.o
                0x000000000806bff8                typeinfo name for chocolate_muffin_sprite_stuff
 .rodata._ZTV19muffin_sprite_stuff
                0x000000000806c018       0x98 objs/sprite_type_stuff.thumb.o
                0x000000000806c018                vtable for muffin_sprite_stuff
 .rodata._ZTV24fire_muffin_sprite_stuff
                0x000000000806c0b0       0x98 objs/sprite_type_stuff.thumb.o
                0x000000000806c0b0                vtable for fire_muffin_sprite_stuff
 .rodata._ZTV23ice_muffin_sprite_stuff
                0x000000000806c148       0x98 objs/sprite_type_stuff.thumb.o
                0x000000000806c148                vtable for ice_muffin_sprite_stuff
 .rodata._ZTV29chocolate_muffin_sprite_stuff
                0x000000000806c1e0       0x98 objs/sprite_type_stuff.thumb.o
                0x000000000806c1e0                vtable for chocolate_muffin_sprite_stuff
 .rodata        0x000000000806c278     0x6788 objs/test_level.thumb.o
                0x000000000806c278                test_level_sublevel_0
                0x000000000806e780                test_level_sublevel_1
                0x0000000008070918                test_level_sublevel_2
 .rodata        0x0000000008072a00     0x1820 objs/text_8x16_gfx.o
                0x0000000008072a00                text_8x16_gfxTiles
                0x0000000008074200                text_8x16_gfxPal
 .rodata        0x0000000008074220      0xc20 objs/text_8x8_thick_gfx.o
                0x0000000008074220                text_8x8_thick_gfxTiles
                0x0000000008074e20                text_8x8_thick_gfxPal
 .rodata        0x0000000008074e40      0xc20 objs/text_8x8_thin_gfx.o
                0x0000000008074e40                text_8x8_thin_gfxTiles
                0x0000000008075a40                text_8x8_thin_gfxPal
 .rodata        0x0000000008075a60     0x3020 objs/the_block_gfx.o
                0x0000000008075a60                the_block_gfxTiles
                0x0000000008078a60                the_block_gfxPal
 .rodata        0x0000000008078a80      0x120 objs/the_door_gfx.o
                0x0000000008078a80                the_door_gfxTiles
                0x0000000008078b80                the_door_gfxPal
 .rodata        0x0000000008078ba0     0x1060 objs/the_golem_enemy_gfx.o
                0x0000000008078ba0                the_golem_enemy_gfxTiles
                0x0000000008079ba0                the_golem_enemy_gfxPal
 .rodata        0x0000000008079c00      0x2a0 objs/the_powerup_gfx.o
                0x0000000008079c00                the_powerup_gfxTiles
                0x0000000008079e80                the_powerup_gfxPal
 .rodata        0x0000000008079ea0      0x658 objs/title_screen.o
                0x0000000008079ea0                title_screenTiles
                0x000000000807a290                title_screenMap
                0x000000000807a4d8                title_screenPal
 .rodata        0x000000000807a4f8       0xc0 objs/waffle_sprite_stuff_class.thumb.o
                0x000000000807a4f8                typeinfo name for waffle_sprite_stuff
                0x000000000807a510                typeinfo for waffle_sprite_stuff
                0x000000000807a520                vtable for waffle_sprite_stuff
 .rodata        0x000000000807a5b8      0x230 objs/wood_block_stuff_classes.thumb.o
                0x000000000807a5b8                typeinfo name for wood_block_stuff
                0x000000000807a5cc                typeinfo for wood_block_stuff
                0x000000000807a5d8                typeinfo name for wood_block_with_bt_dud_stuff
                0x000000000807a5f8                typeinfo for wood_block_with_bt_dud_stuff
                0x000000000807a604                typeinfo name for wood_block_with_st_waffle_stuff
                0x000000000807a628                typeinfo for wood_block_with_st_waffle_stuff
                0x000000000807a634                typeinfo name for wood_block_with_st_muffin_stuff
                0x000000000807a658                typeinfo for wood_block_with_st_muffin_stuff
                0x000000000807a664                typeinfo name for wood_block_with_st_fire_muffin_stuff
                0x000000000807a68c                typeinfo for wood_block_with_st_fire_muffin_stuff
                0x000000000807a698                typeinfo name for wood_block_with_st_ice_muffin_stuff
                0x000000000807a6c0                typeinfo for wood_block_with_st_ice_muffin_stuff
                0x000000000807a6cc                typeinfo name for wood_block_with_st_chocolate_muffin_stuff
                0x000000000807a6f8                typeinfo for wood_block_with_st_chocolate_muffin_stuff
                0x000000000807a708                vtable for wood_block_stuff
                0x000000000807a728                vtable for wood_block_with_bt_dud_stuff
                0x000000000807a748                vtable for wood_block_with_st_waffle_stuff
                0x000000000807a768                vtable for wood_block_with_st_muffin_stuff
                0x000000000807a788                vtable for wood_block_with_st_fire_muffin_stuff
                0x000000000807a7a8                vtable for wood_block_with_st_ice_muffin_stuff
                0x000000000807a7c8                vtable for wood_block_with_st_chocolate_muffin_stuff
 .rodata._ZTVN10__cxxabiv120__si_class_type_infoE
                0x000000000807a7e8       0x30 /opt/devkitpro/devkitARM/bin/../lib/gcc/arm-none-eabi/4.9.2/../../../../arm-none-eabi/lib/libstdc++.a(si_class_type_info.o)
                0x000000000807a7e8                vtable for __cxxabiv1::__si_class_type_info
 .rodata._ZTIN10__cxxabiv120__si_class_type_infoE
                0x000000000807a818        0xc /opt/devkitpro/devkitARM/bin/../lib/gcc/arm-none-eabi/4.9.2/../../../../arm-none-eabi/lib/libstdc++.a(si_class_type_info.o)
                0x000000000807a818                typeinfo for __cxxabiv1::__si_class_type_info
 .rodata._ZTSN10__cxxabiv120__si_class_type_infoE
                0x000000000807a824       0x28 /opt/devkitpro/devkitARM/bin/../lib/gcc/arm-none-eabi/4.9.2/../../../../arm-none-eabi/lib/libstdc++.a(si_class_type_info.o)
                0x000000000807a824                typeinfo name for __cxxabiv1::__si_class_type_info
 *fill*         0x000000000807a84c        0x4 
 .rodata._ZTVN10__cxxabiv115__forced_unwindE
                0x000000000807a850       0x18 /opt/devkitpro/devkitARM/bin/../lib/gcc/arm-none-eabi/4.9.2/../../../../arm-none-eabi/lib/libstdc++.a(eh_exception.o)
                0x000000000807a850                vtable for __cxxabiv1::__forced_unwind
 .rodata._ZTVN10__cxxabiv119__foreign_exceptionE
                0x000000000807a868       0x18 /opt/devkitpro/devkitARM/bin/../lib/gcc/arm-none-eabi/4.9.2/../../../../arm-none-eabi/lib/libstdc++.a(eh_exception.o)
                0x000000000807a868                vtable for __cxxabiv1::__foreign_exception
 .rodata._ZTSN10__cxxabiv115__forced_unwindE
                0x000000000807a880       0x20 /opt/devkitpro/devkitARM/bin/../lib/gcc/arm-none-eabi/4.9.2/../../../../arm-none-eabi/lib/libstdc++.a(eh_exception.o)
                0x000000000807a880                typeinfo name for __cxxabiv1::__forced_unwind
 .rodata._ZTIN10__cxxabiv115__forced_unwindE
                0x000000000807a8a0        0x8 /opt/devkitpro/devkitARM/bin/../lib/gcc/arm-none-eabi/4.9.2/../../../../arm-none-eabi/lib/libstdc++.a(eh_exception.o)
                0x000000000807a8a0                typeinfo for __cxxabiv1::__forced_unwind
 .rodata._ZTISt9exception
                0x000000000807a8a8        0x8 /opt/devkitpro/devkitARM/bin/../lib/gcc/arm-none-eabi/4.9.2/../../../../arm-none-eabi/lib/libstdc++.a(eh_exception.o)
                0x000000000807a8a8                typeinfo for std::exception
 .rodata._ZTSN10__cxxabiv119__foreign_exceptionE
                0x000000000807a8b0       0x24 /opt/devkitpro/devkitARM/bin/../lib/gcc/arm-none-eabi/4.9.2/../../../../arm-none-eabi/lib/libstdc++.a(eh_exception.o)
                0x000000000807a8b0                typeinfo name for __cxxabiv1::__foreign_exception
 .rodata.str1.4
                0x000000000807a8d4       0x23 /opt/devkitpro/devkitARM/bin/../lib/gcc/arm-none-eabi/4.9.2/../../../../arm-none-eabi/lib/libstdc++.a(eh_exception.o)
                                         0x24 (size before relaxing)
 *fill*         0x000000000807a8f7        0x1 
 .rodata._ZTIN10__cxxabiv119__foreign_exceptionE
                0x000000000807a8f8        0x8 /opt/devkitpro/devkitARM/bin/../lib/gcc/arm-none-eabi/4.9.2/../../../../arm-none-eabi/lib/libstdc++.a(eh_exception.o)
                0x000000000807a8f8                typeinfo for __cxxabiv1::__foreign_exception
 .rodata._ZTVSt9exception
                0x000000000807a900       0x18 /opt/devkitpro/devkitARM/bin/../lib/gcc/arm-none-eabi/4.9.2/../../../../arm-none-eabi/lib/libstdc++.a(eh_exception.o)
                0x000000000807a900                vtable for std::exception
 .rodata._ZTVSt13bad_exception
                0x000000000807a918       0x18 /opt/devkitpro/devkitARM/bin/../lib/gcc/arm-none-eabi/4.9.2/../../../../arm-none-eabi/lib/libstdc++.a(eh_exception.o)
                0x000000000807a918                vtable for std::bad_exception
 .rodata._ZTSSt9exception
                0x000000000807a930       0x10 /opt/devkitpro/devkitARM/bin/../lib/gcc/arm-none-eabi/4.9.2/../../../../arm-none-eabi/lib/libstdc++.a(eh_exception.o)
                0x000000000807a930                typeinfo name for std::exception
 .rodata._ZTSSt13bad_exception
                0x000000000807a940       0x14 /opt/devkitpro/devkitARM/bin/../lib/gcc/arm-none-eabi/4.9.2/../../../../arm-none-eabi/lib/libstdc++.a(eh_exception.o)
                0x000000000807a940                typeinfo name for std::bad_exception
 .rodata._ZTISt13bad_exception
                0x000000000807a954        0xc /opt/devkitpro/devkitARM/bin/../lib/gcc/arm-none-eabi/4.9.2/../../../../arm-none-eabi/lib/libstdc++.a(eh_exception.o)
                0x000000000807a954                typeinfo for std::bad_exception
 .rodata._ZTISt9type_info
                0x000000000807a960        0x8 /opt/devkitpro/devkitARM/bin/../lib/gcc/arm-none-eabi/4.9.2/../../../../arm-none-eabi/lib/libstdc++.a(tinfo.o)
                0x000000000807a960                typeinfo for std::type_info
 .rodata._ZTSSt9type_info
                0x000000000807a968       0x10 /opt/devkitpro/devkitARM/bin/../lib/gcc/arm-none-eabi/4.9.2/../../../../arm-none-eabi/lib/libstdc++.a(tinfo.o)
                0x000000000807a968                typeinfo name for std::type_info
 .rodata._ZTVSt9type_info
                0x000000000807a978       0x20 /opt/devkitpro/devkitARM/bin/../lib/gcc/arm-none-eabi/4.9.2/../../../../arm-none-eabi/lib/libstdc++.a(tinfo.o)
                0x000000000807a978                vtable for std::type_info
 .rodata._ZSt7nothrow
                0x000000000807a998        0x4 /opt/devkitpro/devkitARM/bin/../lib/gcc/arm-none-eabi/4.9.2/../../../../arm-none-eabi/lib/libstdc++.a(new_handler.o)
                0x000000000807a998                std::nothrow
 *fill*         0x000000000807a99c        0x4 
 .rodata._ZTVN10__cxxabiv117__class_type_infoE
                0x000000000807a9a0       0x30 /opt/devkitpro/devkitARM/bin/../lib/gcc/arm-none-eabi/4.9.2/../../../../arm-none-eabi/lib/libstdc++.a(class_type_info.o)
                0x000000000807a9a0                vtable for __cxxabiv1::__class_type_info
 .rodata._ZTIN10__cxxabiv117__class_type_infoE
                0x000000000807a9d0        0xc /opt/devkitpro/devkitARM/bin/../lib/gcc/arm-none-eabi/4.9.2/../../../../arm-none-eabi/lib/libstdc++.a(class_type_info.o)
                0x000000000807a9d0                typeinfo for __cxxabiv1::__class_type_info
 .rodata._ZTSN10__cxxabiv117__class_type_infoE
                0x000000000807a9dc       0x24 /opt/devkitpro/devkitARM/bin/../lib/gcc/arm-none-eabi/4.9.2/../../../../arm-none-eabi/lib/libstdc++.a(class_type_info.o)
                0x000000000807a9dc                typeinfo name for __cxxabiv1::__class_type_info
 .rodata._ZTVSt9bad_alloc
                0x000000000807aa00       0x18 /opt/devkitpro/devkitARM/bin/../lib/gcc/arm-none-eabi/4.9.2/../../../../arm-none-eabi/lib/libstdc++.a(bad_alloc.o)
                0x000000000807aa00                vtable for std::bad_alloc
 .rodata._ZTISt9bad_alloc
                0x000000000807aa18        0xc /opt/devkitpro/devkitARM/bin/../lib/gcc/arm-none-eabi/4.9.2/../../../../arm-none-eabi/lib/libstdc++.a(bad_alloc.o)
                0x000000000807aa18                typeinfo for std::bad_alloc
 .rodata.str1.4
                0x000000000807aa24        0xf /opt/devkitpro/devkitARM/bin/../lib/gcc/arm-none-eabi/4.9.2/../../../../arm-none-eabi/lib/libstdc++.a(bad_alloc.o)
                                         0x10 (size before relaxing)
 *fill*         0x000000000807aa33        0x1 
 .rodata._ZTSSt9bad_alloc
                0x000000000807aa34       0x10 /opt/devkitpro/devkitARM/bin/../lib/gcc/arm-none-eabi/4.9.2/../../../../arm-none-eabi/lib/libstdc++.a(bad_alloc.o)
                0x000000000807aa34                typeinfo name for std::bad_alloc
 .rodata.str1.4
                0x000000000807aa44       0x94 /opt/devkitpro/devkitARM/bin/../lib/gcc/arm-none-eabi/4.9.2/../../../../arm-none-eabi/lib/libstdc++.a(vterminate.o)
 .rodata        0x000000000807aad8      0x738 /opt/devkitpro/devkitARM/bin/../lib/gcc/arm-none-eabi/4.9.2/../../../../arm-none-eabi/lib/libstdc++.a(cp-demangle.o)
 .rodata.str1.4
                0x000000000807b210      0x7ea /opt/devkitpro/devkitARM/bin/../lib/gcc/arm-none-eabi/4.9.2/../../../../arm-none-eabi/lib/libstdc++.a(cp-demangle.o)
                                        0x840 (size before relaxing)
 *fill*         0x000000000807b9fa        0x2 
 .rodata.str1.4
                0x000000000807b9fc       0x3b /opt/devkitpro/devkitARM/bin/../lib/gcc/arm-none-eabi/4.9.2/../../../../arm-none-eabi/lib/libstdc++.a(pure.o)
                                         0x3c (size before relaxing)
 *fill*         0x000000000807ba37        0x1 
 .rodata.str1.4
                0x000000000807ba38        0x2 /opt/devkitpro/devkitARM/bin/../lib/gcc/arm-none-eabi/4.9.2/../../../../arm-none-eabi/lib/libc.a(lib_a-impure.o)
                                          0x4 (size before relaxing)
 *fill*         0x000000000807ba3a        0x2 
 .rodata._global_impure_ptr
                0x000000000807ba3c        0x4 /opt/devkitpro/devkitARM/bin/../lib/gcc/arm-none-eabi/4.9.2/../../../../arm-none-eabi/lib/libc.a(lib_a-impure.o)
                0x000000000807ba3c                _global_impure_ptr
 .rodata.zeroes.7037
                0x000000000807ba40       0x10 /opt/devkitpro/devkitARM/bin/../lib/gcc/arm-none-eabi/4.9.2/../../../../arm-none-eabi/lib/libc.a(lib_a-svfprintf.o)
 .rodata.str1.4
                0x000000000807ba50       0x42 /opt/devkitpro/devkitARM/bin/../lib/gcc/arm-none-eabi/4.9.2/../../../../arm-none-eabi/lib/libc.a(lib_a-svfprintf.o)
                                         0x44 (size before relaxing)
 *fill*         0x000000000807ba92        0x2 
 .rodata.blanks.7036
                0x000000000807ba94       0x10 /opt/devkitpro/devkitARM/bin/../lib/gcc/arm-none-eabi/4.9.2/../../../../arm-none-eabi/lib/libc.a(lib_a-svfprintf.o)
 .rodata.str1.4
                0x000000000807baa4       0x10 /opt/devkitpro/devkitARM/bin/../lib/gcc/arm-none-eabi/4.9.2/../../../../arm-none-eabi/lib/libc.a(lib_a-dtoa.o)
                                         0x14 (size before relaxing)
 .rodata.str1.4
                0x000000000807bab4      0x120 /opt/devkitpro/devkitARM/bin/../lib/gcc/arm-none-eabi/4.9.2/../../../../arm-none-eabi/lib/libc.a(lib_a-locale.o)
                                        0x130 (size before relaxing)
 .rodata.categories
                0x000000000807bbd4       0x1c /opt/devkitpro/devkitARM/bin/../lib/gcc/arm-none-eabi/4.9.2/../../../../arm-none-eabi/lib/libc.a(lib_a-locale.o)
 .rodata.JIS_state_table
                0x000000000807bbf0       0x48 /opt/devkitpro/devkitARM/bin/../lib/gcc/arm-none-eabi/4.9.2/../../../../arm-none-eabi/lib/libc.a(lib_a-mbtowc_r.o)
 .rodata.JIS_action_table
                0x000000000807bc38       0x48 /opt/devkitpro/devkitARM/bin/../lib/gcc/arm-none-eabi/4.9.2/../../../../arm-none-eabi/lib/libc.a(lib_a-mbtowc_r.o)
 .rodata.p05.5298
                0x000000000807bc80        0xc /opt/devkitpro/devkitARM/bin/../lib/gcc/arm-none-eabi/4.9.2/../../../../arm-none-eabi/lib/libc.a(lib_a-mprec.o)
 *fill*         0x000000000807bc8c        0x4 
 .rodata.__mprec_tens
                0x000000000807bc90       0xc8 /opt/devkitpro/devkitARM/bin/../lib/gcc/arm-none-eabi/4.9.2/../../../../arm-none-eabi/lib/libc.a(lib_a-mprec.o)
                0x000000000807bc90                __mprec_tens
 .rodata.__mprec_bigtens
                0x000000000807bd58       0x28 /opt/devkitpro/devkitARM/bin/../lib/gcc/arm-none-eabi/4.9.2/../../../../arm-none-eabi/lib/libc.a(lib_a-mprec.o)
                0x000000000807bd58                __mprec_bigtens
 .rodata.__mprec_tinytens
                0x000000000807bd80       0x28 /opt/devkitpro/devkitARM/bin/../lib/gcc/arm-none-eabi/4.9.2/../../../../arm-none-eabi/lib/libc.a(lib_a-mprec.o)
                0x000000000807bd80                __mprec_tinytens
 .rodata.__state_table
                0x000000000807bda8       0x6c /opt/devkitpro/devkitARM/bin/../lib/gcc/arm-none-eabi/4.9.2/../../../../arm-none-eabi/lib/libc.a(lib_a-svfiprintf.o)
                0x000000000807bda8                __state_table
 .rodata.blanks.7015
                0x000000000807be14       0x10 /opt/devkitpro/devkitARM/bin/../lib/gcc/arm-none-eabi/4.9.2/../../../../arm-none-eabi/lib/libc.a(lib_a-svfiprintf.o)
 .rodata.__chclass
                0x000000000807be24      0x100 /opt/devkitpro/devkitARM/bin/../lib/gcc/arm-none-eabi/4.9.2/../../../../arm-none-eabi/lib/libc.a(lib_a-svfiprintf.o)
                0x000000000807be24                __chclass
 .rodata.str1.4
                0x000000000807bf24       0x30 /opt/devkitpro/devkitARM/bin/../lib/gcc/arm-none-eabi/4.9.2/../../../../arm-none-eabi/lib/libc.a(lib_a-svfiprintf.o)
 .rodata.__action_table
                0x000000000807bf24       0x6c /opt/devkitpro/devkitARM/bin/../lib/gcc/arm-none-eabi/4.9.2/../../../../arm-none-eabi/lib/libc.a(lib_a-svfiprintf.o)
                0x000000000807bf24                __action_table
 .rodata.zeroes.7016
                0x000000000807bf90       0x10 /opt/devkitpro/devkitARM/bin/../lib/gcc/arm-none-eabi/4.9.2/../../../../arm-none-eabi/lib/libc.a(lib_a-svfiprintf.o)
 .rodata._ctype_
                0x000000000807bfa0      0x104 /opt/devkitpro/devkitARM/bin/../lib/gcc/arm-none-eabi/4.9.2/../../../../arm-none-eabi/lib/libc.a(lib_a-ctype_.o)
                0x000000000807bfa0                _ctype_
 .rodata        0x000000000807c0a4       0x68 /opt/devkitpro/devkitARM/bin/../lib/gcc/arm-none-eabi/4.9.2/../../../../arm-none-eabi/lib/libsysbase.a(iosupport.o)
                0x000000000807c0a4                dotab_stdnull
 .rodata.str1.4
                0x000000000807c10c        0x8 /opt/devkitpro/devkitARM/bin/../lib/gcc/arm-none-eabi/4.9.2/../../../../arm-none-eabi/lib/libsysbase.a(iosupport.o)
 *(.init)
 .init          0x000000000807c114        0xc /opt/devkitpro/devkitARM/bin/../lib/gcc/arm-none-eabi/4.9.2/crti.o
                0x000000000807c114                _init
 .init          0x000000000807c120        0xc /opt/devkitpro/devkitARM/bin/../lib/gcc/arm-none-eabi/4.9.2/crtn.o
 *(.fini)
 .fini          0x000000000807c12c        0xc /opt/devkitpro/devkitARM/bin/../lib/gcc/arm-none-eabi/4.9.2/crti.o
                0x000000000807c12c                _fini
 .fini          0x000000000807c138        0xc /opt/devkitpro/devkitARM/bin/../lib/gcc/arm-none-eabi/4.9.2/crtn.o
 *fill*         0x000000000807c144        0x4 
 .fini.__stub   0x000000000807c148      0x150 linker stubs

.vfp11_veneer   0x000000000807c2c0        0x0
 .vfp11_veneer  0x000000000807c2c0        0x0 linker stubs

.v4_bx          0x000000000807c2c0        0x0
 .v4_bx         0x000000000807c2c0        0x0 linker stubs

.iplt           0x000000000807c2c0        0x0
 .iplt          0x000000000807c2c0        0x0 /opt/devkitpro/devkitARM/bin/../lib/gcc/arm-none-eabi/4.9.2/crtbegin.o

.ARM.extab      0x000000000807c2c0      0x214
 *(.ARM.extab* .gnu.linkonce.armextab.*)
 .ARM.extab     0x000000000807c2c0        0x0 /opt/devkitpro/devkitARM/bin/../lib/gcc/arm-none-eabi/4.9.2/../../../../arm-none-eabi/lib/crt0.o
 .ARM.extab.text._ZN12sa_free_listILm256EE3popEv
                0x000000000807c2c0        0x0 objs/active_level_class.thumb.o
 .ARM.extab.text._ZN8sa_stackIiLm256EE3popEv
                0x000000000807c2c0        0x0 objs/active_level_class.thumb.o
 .ARM.extab.text._ZN28externally_allocated_sa_listI23sprite_init_param_groupLm256EED0Ev
                0x000000000807c2c0        0x0 objs/active_level_class.thumb.o
 .ARM.extab.text._ZN28externally_allocated_sa_listI23sprite_init_param_groupLm256EED2Ev
                0x000000000807c2c0        0x0 objs/active_level_class.thumb.o
 .ARM.extab.text._ZN17sa_array_of_listsI23sprite_init_param_groupLm256ELm512EED2Ev
                0x000000000807c2c0        0x0 objs/active_level_class.thumb.o
 .ARM.extab     0x000000000807c2c0        0x0 objs/active_level_class.thumb.o
 .ARM.extab.text._ZN17sa_array_of_listsI23sprite_init_param_groupLm256ELm512EEC2Ev
                0x000000000807c2c0       0x18 objs/active_level_class.thumb.o
 .ARM.extab.text.startup
                0x000000000807c2d8        0x0 objs/active_level_class.thumb.o
 .ARM.extab.iwram_code
                0x000000000807c2d8        0xc objs/active_level_manager_class.arm.o
 .ARM.extab.iwram_code
                0x000000000807c2e4        0x0 objs/air_block_stuff_class.thumb.o
 .ARM.extab.iwram_code
                0x000000000807c2e4        0x0 objs/block_base_stuff_class.thumb.o
 .ARM.extab.text._ZN24grass_single_block_stuff19get_metatile_numberEv
                0x000000000807c2e4        0x0 objs/block_stuff.thumb.o
 .ARM.extab.text._ZN24grass_single_block_stuff18get_palette_numberEv
                0x000000000807c2e4        0x0 objs/block_stuff.thumb.o
 .ARM.extab.text._ZN24grass_single_block_stuff26get_metatile_graphics_slotEv
                0x000000000807c2e4        0x0 objs/block_stuff.thumb.o
 .ARM.extab.text._ZN26grass_top_left_block_stuff19get_metatile_numberEv
                0x000000000807c2e4        0x0 objs/block_stuff.thumb.o
 .ARM.extab.text._ZN26grass_top_left_block_stuff18get_palette_numberEv
                0x000000000807c2e4        0x0 objs/block_stuff.thumb.o
 .ARM.extab.text._ZN26grass_top_left_block_stuff26get_metatile_graphics_slotEv
                0x000000000807c2e4        0x0 objs/block_stuff.thumb.o
 .ARM.extab.text._ZN28grass_top_middle_block_stuff19get_metatile_numberEv
                0x000000000807c2e4        0x0 objs/block_stuff.thumb.o
 .ARM.extab.text._ZN28grass_top_middle_block_stuff18get_palette_numberEv
                0x000000000807c2e4        0x0 objs/block_stuff.thumb.o
 .ARM.extab.text._ZN28grass_top_middle_block_stuff26get_metatile_graphics_slotEv
                0x000000000807c2e4        0x0 objs/block_stuff.thumb.o
 .ARM.extab.text._ZN27grass_top_right_block_stuff19get_metatile_numberEv
                0x000000000807c2e4        0x0 objs/block_stuff.thumb.o
 .ARM.extab.text._ZN27grass_top_right_block_stuff18get_palette_numberEv
                0x000000000807c2e4        0x0 objs/block_stuff.thumb.o
 .ARM.extab.text._ZN27grass_top_right_block_stuff26get_metatile_graphics_slotEv
                0x000000000807c2e4        0x0 objs/block_stuff.thumb.o
 .ARM.extab.text._ZN28dirt_middle_left_block_stuff19get_metatile_numberEv
                0x000000000807c2e4        0x0 objs/block_stuff.thumb.o
 .ARM.extab.text._ZN28dirt_middle_left_block_stuff18get_palette_numberEv
                0x000000000807c2e4        0x0 objs/block_stuff.thumb.o
 .ARM.extab.text._ZN28dirt_middle_left_block_stuff26get_metatile_graphics_slotEv
                0x000000000807c2e4        0x0 objs/block_stuff.thumb.o
 .ARM.extab.text._ZN30dirt_middle_middle_block_stuff19get_metatile_numberEv
                0x000000000807c2e4        0x0 objs/block_stuff.thumb.o
 .ARM.extab.text._ZN30dirt_middle_middle_block_stuff18get_palette_numberEv
                0x000000000807c2e4        0x0 objs/block_stuff.thumb.o
 .ARM.extab.text._ZN30dirt_middle_middle_block_stuff26get_metatile_graphics_slotEv
                0x000000000807c2e4        0x0 objs/block_stuff.thumb.o
 .ARM.extab.text._ZN29dirt_middle_right_block_stuff19get_metatile_numberEv
                0x000000000807c2e4        0x0 objs/block_stuff.thumb.o
 .ARM.extab.text._ZN29dirt_middle_right_block_stuff18get_palette_numberEv
                0x000000000807c2e4        0x0 objs/block_stuff.thumb.o
 .ARM.extab.text._ZN29dirt_middle_right_block_stuff26get_metatile_graphics_slotEv
                0x000000000807c2e4        0x0 objs/block_stuff.thumb.o
 .ARM.extab.text._ZN28dirt_bottom_left_block_stuff19get_metatile_numberEv
                0x000000000807c2e4        0x0 objs/block_stuff.thumb.o
 .ARM.extab.text._ZN28dirt_bottom_left_block_stuff18get_palette_numberEv
                0x000000000807c2e4        0x0 objs/block_stuff.thumb.o
 .ARM.extab.text._ZN28dirt_bottom_left_block_stuff26get_metatile_graphics_slotEv
                0x000000000807c2e4        0x0 objs/block_stuff.thumb.o
 .ARM.extab.text._ZN30dirt_bottom_middle_block_stuff19get_metatile_numberEv
                0x000000000807c2e4        0x0 objs/block_stuff.thumb.o
 .ARM.extab.text._ZN30dirt_bottom_middle_block_stuff18get_palette_numberEv
                0x000000000807c2e4        0x0 objs/block_stuff.thumb.o
 .ARM.extab.text._ZN30dirt_bottom_middle_block_stuff26get_metatile_graphics_slotEv
                0x000000000807c2e4        0x0 objs/block_stuff.thumb.o
 .ARM.extab.text._ZN29dirt_bottom_right_block_stuff19get_metatile_numberEv
                0x000000000807c2e4        0x0 objs/block_stuff.thumb.o
 .ARM.extab.text._ZN29dirt_bottom_right_block_stuff18get_palette_numberEv
                0x000000000807c2e4        0x0 objs/block_stuff.thumb.o
 .ARM.extab.text._ZN29dirt_bottom_right_block_stuff26get_metatile_graphics_slotEv
                0x000000000807c2e4        0x0 objs/block_stuff.thumb.o
 .ARM.extab.text._ZN31grass_slope_p16_p16_block_stuff19get_metatile_numberEv
                0x000000000807c2e4        0x0 objs/block_stuff.thumb.o
 .ARM.extab.text._ZN31grass_slope_p16_p16_block_stuff18get_palette_numberEv
                0x000000000807c2e4        0x0 objs/block_stuff.thumb.o
 .ARM.extab.text._ZN31grass_slope_p16_p16_block_stuff26get_metatile_graphics_slotEv
                0x000000000807c2e4        0x0 objs/block_stuff.thumb.o
 .ARM.extab.text._ZN31grass_slope_n16_p16_block_stuff19get_metatile_numberEv
                0x000000000807c2e4        0x0 objs/block_stuff.thumb.o
 .ARM.extab.text._ZN31grass_slope_n16_p16_block_stuff18get_palette_numberEv
                0x000000000807c2e4        0x0 objs/block_stuff.thumb.o
 .ARM.extab.text._ZN31grass_slope_n16_p16_block_stuff26get_metatile_graphics_slotEv
                0x000000000807c2e4        0x0 objs/block_stuff.thumb.o
 .ARM.extab.text._ZN37grass_slope_p32_p16_short_block_stuff19get_metatile_numberEv
                0x000000000807c2e4        0x0 objs/block_stuff.thumb.o
 .ARM.extab.text._ZN37grass_slope_p32_p16_short_block_stuff18get_palette_numberEv
                0x000000000807c2e4        0x0 objs/block_stuff.thumb.o
 .ARM.extab.text._ZN37grass_slope_p32_p16_short_block_stuff26get_metatile_graphics_slotEv
                0x000000000807c2e4        0x0 objs/block_stuff.thumb.o
 .ARM.extab.text._ZN36grass_slope_p32_p16_tall_block_stuff19get_metatile_numberEv
                0x000000000807c2e4        0x0 objs/block_stuff.thumb.o
 .ARM.extab.text._ZN36grass_slope_p32_p16_tall_block_stuff18get_palette_numberEv
                0x000000000807c2e4        0x0 objs/block_stuff.thumb.o
 .ARM.extab.text._ZN36grass_slope_p32_p16_tall_block_stuff26get_metatile_graphics_slotEv
                0x000000000807c2e4        0x0 objs/block_stuff.thumb.o
 .ARM.extab.text._ZN36grass_slope_n32_p16_tall_block_stuff19get_metatile_numberEv
                0x000000000807c2e4        0x0 objs/block_stuff.thumb.o
 .ARM.extab.text._ZN36grass_slope_n32_p16_tall_block_stuff18get_palette_numberEv
                0x000000000807c2e4        0x0 objs/block_stuff.thumb.o
 .ARM.extab.text._ZN36grass_slope_n32_p16_tall_block_stuff26get_metatile_graphics_slotEv
                0x000000000807c2e4        0x0 objs/block_stuff.thumb.o
 .ARM.extab.text._ZN37grass_slope_n32_p16_short_block_stuff19get_metatile_numberEv
                0x000000000807c2e4        0x0 objs/block_stuff.thumb.o
 .ARM.extab.text._ZN37grass_slope_n32_p16_short_block_stuff18get_palette_numberEv
                0x000000000807c2e4        0x0 objs/block_stuff.thumb.o
 .ARM.extab.text._ZN37grass_slope_n32_p16_short_block_stuff26get_metatile_graphics_slotEv
                0x000000000807c2e4        0x0 objs/block_stuff.thumb.o
 .ARM.extab.text._ZN31grass_in_slope_left_block_stuff19get_metatile_numberEv
                0x000000000807c2e4        0x0 objs/block_stuff.thumb.o
 .ARM.extab.text._ZN31grass_in_slope_left_block_stuff18get_palette_numberEv
                0x000000000807c2e4        0x0 objs/block_stuff.thumb.o
 .ARM.extab.text._ZN31grass_in_slope_left_block_stuff26get_metatile_graphics_slotEv
                0x000000000807c2e4        0x0 objs/block_stuff.thumb.o
 .ARM.extab.text._ZN32grass_in_slope_right_block_stuff19get_metatile_numberEv
                0x000000000807c2e4        0x0 objs/block_stuff.thumb.o
 .ARM.extab.text._ZN32grass_in_slope_right_block_stuff18get_palette_numberEv
                0x000000000807c2e4        0x0 objs/block_stuff.thumb.o
 .ARM.extab.text._ZN32grass_in_slope_right_block_stuff26get_metatile_graphics_slotEv
                0x000000000807c2e4        0x0 objs/block_stuff.thumb.o
 .ARM.extab.text.startup
                0x000000000807c2e4        0x0 objs/block_stuff.thumb.o
 .ARM.extab     0x000000000807c2e4        0x0 objs/button_stuff.thumb.o
 .ARM.extab.iwram_code
                0x000000000807c2e4        0x0 objs/coll_box_class.arm.o
 .ARM.extab.iwram_code
                0x000000000807c2e4        0x0 objs/coll_box_class.thumb.o
 .ARM.extab     0x000000000807c2e4        0x0 objs/coll_box_class.thumb.o
 .ARM.extab.iwram_code
                0x000000000807c2e4        0x0 objs/coll_point_group_class.thumb.o
 .ARM.extab.iwram_code
                0x000000000807c2e4        0xc objs/debug_vars.thumb.o
 .ARM.extab.iwram_code
                0x000000000807c2f0        0x0 objs/division_funcs.o
 .ARM.extab     0x000000000807c2f0        0x0 objs/dma_stuff.thumb.o
 .ARM.extab.text._ZNK17door_sprite_stuff15get_sprite_typeEv
                0x000000000807c2f0        0x0 objs/door_sprite_stuff_class.thumb.o
 .ARM.extab.text._ZN17door_sprite_stuff16get_palette_slotER6sprite
                0x000000000807c2f0        0x0 objs/door_sprite_stuff_class.thumb.o
 .ARM.extab.text._ZN17door_sprite_stuff27get_curr_relative_tile_slotER6sprite
                0x000000000807c2f0        0x0 objs/door_sprite_stuff_class.thumb.o
 .ARM.extab.text._ZN17door_sprite_stuff24get_num_active_gfx_tilesEv
                0x000000000807c2f0        0x0 objs/door_sprite_stuff_class.thumb.o
 .ARM.extab.text._ZNK17door_sprite_stuff12get_tile_arrEv
                0x000000000807c2f0        0x0 objs/door_sprite_stuff_class.thumb.o
 .ARM.extab.text._ZNK17door_sprite_stuff26get_the_initial_shape_sizeEv
                0x000000000807c2f0        0x0 objs/door_sprite_stuff_class.thumb.o
 .ARM.extab.text._ZNK17door_sprite_stuff29get_the_initial_coll_box_sizeEv
                0x000000000807c2f0        0x0 objs/door_sprite_stuff_class.thumb.o
 .ARM.extab.text._ZNK17door_sprite_stuff29get_the_initial_cb_pos_offsetEv
                0x000000000807c2f0        0x0 objs/door_sprite_stuff_class.thumb.o
 .ARM.extab     0x000000000807c2f0        0x0 objs/door_sprite_stuff_class.thumb.o
 .ARM.extab.iwram_code
                0x000000000807c2f0        0x0 objs/dud_block_stuff_class.thumb.o
 .ARM.extab.iwram_code
                0x000000000807c2f0        0x0 objs/exclam_block_stuff_classes.thumb.o
 .ARM.extab.iwram_code
                0x000000000807c2f0        0x0 objs/eyes_block_stuff_classes.thumb.o
 .ARM.extab.iwram_code
                0x000000000807c2f0        0xc objs/fixed_classes.thumb.o
 .ARM.extab.iwram_code
                0x000000000807c2fc        0x0 objs/game_manager_class.thumb.o
 .ARM.extab     0x000000000807c2fc        0x0 objs/game_manager_class.thumb.o
 .ARM.extab.text._ZNK17sprite_base_stuff12get_tile_arrEv
                0x000000000807c2fc        0x0 objs/gfx_manager_class.thumb.o
 .ARM.extab.text._ZN17sprite_base_stuff24get_num_active_gfx_tilesEv
                0x000000000807c2fc        0x0 objs/gfx_manager_class.thumb.o
 .ARM.extab     0x000000000807c2fc       0x18 objs/gfx_manager_class.thumb.o
 .ARM.extab.iwram_code
                0x000000000807c314       0x24 objs/gfx_manager_class.thumb.o
 .ARM.extab.iwram_code
                0x000000000807c338        0x0 objs/hud_manager_class.thumb.o
 .ARM.extab     0x000000000807c338       0x18 objs/hud_manager_class.thumb.o
 .ARM.extab.text.startup
                0x000000000807c350        0x0 objs/hud_manager_class.thumb.o
 .ARM.extab.iwram_code
                0x000000000807c350        0x0 objs/interrupt_stuff.arm.o
 .ARM.extab.iwram_code
                0x000000000807c350        0x0 objs/interrupt_stuff.thumb.o
 .ARM.extab     0x000000000807c350        0x0 objs/interrupt_stuff.thumb.o
 .ARM.extab.iwram_code
                0x000000000807c350        0x0 objs/log_block_stuff_class.thumb.o
 .ARM.extab.text.startup
                0x000000000807c350        0x0 objs/main.thumb.o
 .ARM.extab.iwram_code
                0x000000000807c350        0x0 objs/memory_funcs_8bit.o
 .ARM.extab     0x000000000807c350        0x0 objs/oam_entry_classes.thumb.o
 .ARM.extab.text._ZNK19player_sprite_stuff15get_sprite_typeEv
                0x000000000807c350        0x0 objs/player_sprite_stuff_class.thumb.o
 .ARM.extab.text._ZN19player_sprite_stuff16get_palette_slotER6sprite
                0x000000000807c350        0x0 objs/player_sprite_stuff_class.thumb.o
 .ARM.extab.text._ZN19player_sprite_stuff24get_num_active_gfx_tilesEv
                0x000000000807c350        0x0 objs/player_sprite_stuff_class.thumb.o
 .ARM.extab.text._ZNK19player_sprite_stuff12get_tile_arrEv
                0x000000000807c350        0x0 objs/player_sprite_stuff_class.thumb.o
 .ARM.extab.text._ZNK19player_sprite_stuff26get_the_initial_shape_sizeEv
                0x000000000807c350        0x0 objs/player_sprite_stuff_class.thumb.o
 .ARM.extab.text._ZNK19player_sprite_stuff29get_the_initial_coll_box_sizeEv
                0x000000000807c350        0x0 objs/player_sprite_stuff_class.thumb.o
 .ARM.extab.text._ZNK19player_sprite_stuff29get_the_initial_cb_pos_offsetEv
                0x000000000807c350        0x0 objs/player_sprite_stuff_class.thumb.o
 .ARM.extab.iwram_code
                0x000000000807c350       0x18 objs/player_sprite_stuff_class.thumb.o
 .ARM.extab     0x000000000807c368        0x0 objs/player_sprite_stuff_class.thumb.o
 .ARM.extab.iwram_code
                0x000000000807c368        0x0 objs/sprite_base_stuff_class.arm.o
 .ARM.extab.text._ZNK17sprite_base_stuff26get_the_initial_shape_sizeEv
                0x000000000807c368        0x0 objs/sprite_base_stuff_class.thumb.o
 .ARM.extab.text._ZNK17sprite_base_stuff29get_the_initial_coll_box_sizeEv
                0x000000000807c368        0x0 objs/sprite_base_stuff_class.thumb.o
 .ARM.extab.text._ZNK17sprite_base_stuff29get_the_initial_cb_pos_offsetEv
                0x000000000807c368        0x0 objs/sprite_base_stuff_class.thumb.o
 .ARM.extab     0x000000000807c368        0x0 objs/sprite_base_stuff_class.thumb.o
 .ARM.extab.iwram_code
                0x000000000807c368        0x0 objs/sprite_base_stuff_class.thumb.o
 .ARM.extab     0x000000000807c368        0x0 objs/sprite_class.thumb.o
 .ARM.extab.iwram_code
                0x000000000807c368        0xc objs/sprite_class.thumb.o
 .ARM.extab.iwram_code
                0x000000000807c374        0x0 objs/sprite_manager_class.arm.o
 .ARM.extab     0x000000000807c374       0x40 objs/sprite_manager_class.thumb.o
 .ARM.extab.text._ZN28externally_allocated_sa_listI23sprite_init_param_groupLm256EE8erase_atEi
                0x000000000807c3b4        0x0 objs/sprite_manager_class.thumb.o
 .ARM.extab.text.startup
                0x000000000807c3b4        0x0 objs/sprite_manager_class.thumb.o
 .ARM.extab.text._ZNK19muffin_sprite_stuff15get_sprite_typeEv
                0x000000000807c3b4        0x0 objs/sprite_type_stuff.thumb.o
 .ARM.extab.text._ZN19muffin_sprite_stuff16get_palette_slotER6sprite
                0x000000000807c3b4        0x0 objs/sprite_type_stuff.thumb.o
 .ARM.extab.text._ZN19muffin_sprite_stuff27get_curr_relative_tile_slotER6sprite
                0x000000000807c3b4        0x0 objs/sprite_type_stuff.thumb.o
 .ARM.extab.text._ZN19muffin_sprite_stuff24get_num_active_gfx_tilesEv
                0x000000000807c3b4        0x0 objs/sprite_type_stuff.thumb.o
 .ARM.extab.text._ZNK19muffin_sprite_stuff12get_tile_arrEv
                0x000000000807c3b4        0x0 objs/sprite_type_stuff.thumb.o
 .ARM.extab.text._ZNK24fire_muffin_sprite_stuff15get_sprite_typeEv
                0x000000000807c3b4        0x0 objs/sprite_type_stuff.thumb.o
 .ARM.extab.text._ZN24fire_muffin_sprite_stuff16get_palette_slotER6sprite
                0x000000000807c3b4        0x0 objs/sprite_type_stuff.thumb.o
 .ARM.extab.text._ZN24fire_muffin_sprite_stuff27get_curr_relative_tile_slotER6sprite
                0x000000000807c3b4        0x0 objs/sprite_type_stuff.thumb.o
 .ARM.extab.text._ZN24fire_muffin_sprite_stuff24get_num_active_gfx_tilesEv
                0x000000000807c3b4        0x0 objs/sprite_type_stuff.thumb.o
 .ARM.extab.text._ZNK24fire_muffin_sprite_stuff12get_tile_arrEv
                0x000000000807c3b4        0x0 objs/sprite_type_stuff.thumb.o
 .ARM.extab.text._ZNK23ice_muffin_sprite_stuff15get_sprite_typeEv
                0x000000000807c3b4        0x0 objs/sprite_type_stuff.thumb.o
 .ARM.extab.text._ZN23ice_muffin_sprite_stuff16get_palette_slotER6sprite
                0x000000000807c3b4        0x0 objs/sprite_type_stuff.thumb.o
 .ARM.extab.text._ZN23ice_muffin_sprite_stuff27get_curr_relative_tile_slotER6sprite
                0x000000000807c3b4        0x0 objs/sprite_type_stuff.thumb.o
 .ARM.extab.text._ZN23ice_muffin_sprite_stuff24get_num_active_gfx_tilesEv
                0x000000000807c3b4        0x0 objs/sprite_type_stuff.thumb.o
 .ARM.extab.text._ZNK23ice_muffin_sprite_stuff12get_tile_arrEv
                0x000000000807c3b4        0x0 objs/sprite_type_stuff.thumb.o
 .ARM.extab.text._ZNK29chocolate_muffin_sprite_stuff15get_sprite_typeEv
                0x000000000807c3b4        0x0 objs/sprite_type_stuff.thumb.o
 .ARM.extab.text._ZN29chocolate_muffin_sprite_stuff16get_palette_slotER6sprite
                0x000000000807c3b4        0x0 objs/sprite_type_stuff.thumb.o
 .ARM.extab.text._ZN29chocolate_muffin_sprite_stuff27get_curr_relative_tile_slotER6sprite
                0x000000000807c3b4        0x0 objs/sprite_type_stuff.thumb.o
 .ARM.extab.text._ZN29chocolate_muffin_sprite_stuff24get_num_active_gfx_tilesEv
                0x000000000807c3b4        0x0 objs/sprite_type_stuff.thumb.o
 .ARM.extab.text._ZNK29chocolate_muffin_sprite_stuff12get_tile_arrEv
                0x000000000807c3b4        0x0 objs/sprite_type_stuff.thumb.o
 .ARM.extab.text.startup
                0x000000000807c3b4        0x0 objs/test_level.thumb.o
 .ARM.extab.text._ZNK19waffle_sprite_stuff15get_sprite_typeEv
                0x000000000807c3b4        0x0 objs/waffle_sprite_stuff_class.thumb.o
 .ARM.extab.text._ZN19waffle_sprite_stuff16get_palette_slotER6sprite
                0x000000000807c3b4        0x0 objs/waffle_sprite_stuff_class.thumb.o
 .ARM.extab.text._ZN19waffle_sprite_stuff27get_curr_relative_tile_slotER6sprite
                0x000000000807c3b4        0x0 objs/waffle_sprite_stuff_class.thumb.o
 .ARM.extab.text._ZN19waffle_sprite_stuff24get_num_active_gfx_tilesEv
                0x000000000807c3b4        0x0 objs/waffle_sprite_stuff_class.thumb.o
 .ARM.extab.text._ZNK19waffle_sprite_stuff12get_tile_arrEv
                0x000000000807c3b4        0x0 objs/waffle_sprite_stuff_class.thumb.o
 .ARM.extab.text._ZN19waffle_sprite_stuff21block_collision_stuffER6sprite
                0x000000000807c3b4        0xc objs/waffle_sprite_stuff_class.thumb.o
 .ARM.extab.iwram_code
                0x000000000807c3c0        0x0 objs/waffle_sprite_stuff_class.thumb.o
 .ARM.extab.iwram_code
                0x000000000807c3c0        0x0 objs/wood_block_stuff_classes.thumb.o
 .ARM.extab.text.__cxa_type_match
                0x000000000807c3c0        0x0 /opt/devkitpro/devkitARM/bin/../lib/gcc/arm-none-eabi/4.9.2/../../../../arm-none-eabi/lib/libstdc++.a(eh_arm.o)
 .ARM.extab.text.__cxa_begin_cleanup
                0x000000000807c3c0        0x0 /opt/devkitpro/devkitARM/bin/../lib/gcc/arm-none-eabi/4.9.2/../../../../arm-none-eabi/lib/libstdc++.a(eh_arm.o)
 .ARM.extab.text.__gnu_end_cleanup
                0x000000000807c3c0        0x0 /opt/devkitpro/devkitARM/bin/../lib/gcc/arm-none-eabi/4.9.2/../../../../arm-none-eabi/lib/libstdc++.a(eh_arm.o)
 .ARM.extab.text.__cxa_get_globals_fast
                0x000000000807c3c0        0x0 /opt/devkitpro/devkitARM/bin/../lib/gcc/arm-none-eabi/4.9.2/../../../../arm-none-eabi/lib/libstdc++.a(eh_globals.o)
 .ARM.extab.text.__cxa_get_globals
                0x000000000807c3c0        0x0 /opt/devkitpro/devkitARM/bin/../lib/gcc/arm-none-eabi/4.9.2/../../../../arm-none-eabi/lib/libstdc++.a(eh_globals.o)
 .ARM.extab.text.__aeabi_atexit
                0x000000000807c3c0        0x0 /opt/devkitpro/devkitARM/bin/../lib/gcc/arm-none-eabi/4.9.2/../../../../arm-none-eabi/lib/libstdc++.a(atexit_arm.o)
 .ARM.extab.text._ZdlPv
                0x000000000807c3c0        0x0 /opt/devkitpro/devkitARM/bin/../lib/gcc/arm-none-eabi/4.9.2/../../../../arm-none-eabi/lib/libstdc++.a(del_op.o)
 .ARM.extab.text._ZN10__cxxabiv120__si_class_type_infoD2Ev
                0x000000000807c3c0        0x0 /opt/devkitpro/devkitARM/bin/../lib/gcc/arm-none-eabi/4.9.2/../../../../arm-none-eabi/lib/libstdc++.a(si_class_type_info.o)
 .ARM.extab.text._ZN10__cxxabiv120__si_class_type_infoD0Ev
                0x000000000807c3c0        0x0 /opt/devkitpro/devkitARM/bin/../lib/gcc/arm-none-eabi/4.9.2/../../../../arm-none-eabi/lib/libstdc++.a(si_class_type_info.o)
 .ARM.extab.text._ZNK10__cxxabiv120__si_class_type_info20__do_find_public_srcEiPKvPKNS_17__class_type_infoES2_
                0x000000000807c3c0        0x0 /opt/devkitpro/devkitARM/bin/../lib/gcc/arm-none-eabi/4.9.2/../../../../arm-none-eabi/lib/libstdc++.a(si_class_type_info.o)
 .ARM.extab.text._ZNK10__cxxabiv120__si_class_type_info12__do_dyncastEiNS_17__class_type_info10__sub_kindEPKS1_PKvS4_S6_RNS1_16__dyncast_resultE
                0x000000000807c3c0        0x0 /opt/devkitpro/devkitARM/bin/../lib/gcc/arm-none-eabi/4.9.2/../../../../arm-none-eabi/lib/libstdc++.a(si_class_type_info.o)
 .ARM.extab.text._ZNK10__cxxabiv120__si_class_type_info11__do_upcastEPKNS_17__class_type_infoEPKvRNS1_15__upcast_resultE
                0x000000000807c3c0        0x0 /opt/devkitpro/devkitARM/bin/../lib/gcc/arm-none-eabi/4.9.2/../../../../arm-none-eabi/lib/libstdc++.a(si_class_type_info.o)
 .ARM.extab.text._ZNSt9exceptionD2Ev
                0x000000000807c3c0        0x0 /opt/devkitpro/devkitARM/bin/../lib/gcc/arm-none-eabi/4.9.2/../../../../arm-none-eabi/lib/libstdc++.a(eh_exception.o)
 .ARM.extab.text._ZNSt13bad_exceptionD2Ev
                0x000000000807c3c0        0x0 /opt/devkitpro/devkitARM/bin/../lib/gcc/arm-none-eabi/4.9.2/../../../../arm-none-eabi/lib/libstdc++.a(eh_exception.o)
 .ARM.extab.text._ZNKSt9exception4whatEv
                0x000000000807c3c0        0x0 /opt/devkitpro/devkitARM/bin/../lib/gcc/arm-none-eabi/4.9.2/../../../../arm-none-eabi/lib/libstdc++.a(eh_exception.o)
 .ARM.extab.text._ZNKSt13bad_exception4whatEv
                0x000000000807c3c0        0x0 /opt/devkitpro/devkitARM/bin/../lib/gcc/arm-none-eabi/4.9.2/../../../../arm-none-eabi/lib/libstdc++.a(eh_exception.o)
 .ARM.extab.text._ZNSt9exceptionD0Ev
                0x000000000807c3c0        0x0 /opt/devkitpro/devkitARM/bin/../lib/gcc/arm-none-eabi/4.9.2/../../../../arm-none-eabi/lib/libstdc++.a(eh_exception.o)
 .ARM.extab.text._ZNSt13bad_exceptionD0Ev
                0x000000000807c3c0        0x0 /opt/devkitpro/devkitARM/bin/../lib/gcc/arm-none-eabi/4.9.2/../../../../arm-none-eabi/lib/libstdc++.a(eh_exception.o)
 .ARM.extab.text._ZN10__cxxabiv115__forced_unwindD2Ev
                0x000000000807c3c0        0x0 /opt/devkitpro/devkitARM/bin/../lib/gcc/arm-none-eabi/4.9.2/../../../../arm-none-eabi/lib/libstdc++.a(eh_exception.o)
 .ARM.extab.text._ZN10__cxxabiv115__forced_unwindD0Ev
                0x000000000807c3c0        0x0 /opt/devkitpro/devkitARM/bin/../lib/gcc/arm-none-eabi/4.9.2/../../../../arm-none-eabi/lib/libstdc++.a(eh_exception.o)
 .ARM.extab.text._ZN10__cxxabiv119__foreign_exceptionD2Ev
                0x000000000807c3c0        0x0 /opt/devkitpro/devkitARM/bin/../lib/gcc/arm-none-eabi/4.9.2/../../../../arm-none-eabi/lib/libstdc++.a(eh_exception.o)
 .ARM.extab.text._ZN10__cxxabiv119__foreign_exceptionD0Ev
                0x000000000807c3c0        0x0 /opt/devkitpro/devkitARM/bin/../lib/gcc/arm-none-eabi/4.9.2/../../../../arm-none-eabi/lib/libstdc++.a(eh_exception.o)
 .ARM.extab.text._ZN10__cxxabiv111__terminateEPFvvE
                0x000000000807c3c0       0x2c /opt/devkitpro/devkitARM/bin/../lib/gcc/arm-none-eabi/4.9.2/../../../../arm-none-eabi/lib/libstdc++.a(eh_terminate.o)
 .ARM.extab.text._ZSt9terminatev
                0x000000000807c3ec        0x0 /opt/devkitpro/devkitARM/bin/../lib/gcc/arm-none-eabi/4.9.2/../../../../arm-none-eabi/lib/libstdc++.a(eh_terminate.o)
 .ARM.extab.text._ZN10__cxxabiv112__unexpectedEPFvvE
                0x000000000807c3ec        0xc /opt/devkitpro/devkitARM/bin/../lib/gcc/arm-none-eabi/4.9.2/../../../../arm-none-eabi/lib/libstdc++.a(eh_terminate.o)
 .ARM.extab.text._ZSt10unexpectedv
                0x000000000807c3f8        0xc /opt/devkitpro/devkitARM/bin/../lib/gcc/arm-none-eabi/4.9.2/../../../../arm-none-eabi/lib/libstdc++.a(eh_terminate.o)
 .ARM.extab.text._ZSt13set_terminatePFvvE
                0x000000000807c404        0x0 /opt/devkitpro/devkitARM/bin/../lib/gcc/arm-none-eabi/4.9.2/../../../../arm-none-eabi/lib/libstdc++.a(eh_terminate.o)
 .ARM.extab.text._ZSt13get_terminatev
                0x000000000807c404        0x0 /opt/devkitpro/devkitARM/bin/../lib/gcc/arm-none-eabi/4.9.2/../../../../arm-none-eabi/lib/libstdc++.a(eh_terminate.o)
 .ARM.extab.text._ZSt14set_unexpectedPFvvE
                0x000000000807c404        0x0 /opt/devkitpro/devkitARM/bin/../lib/gcc/arm-none-eabi/4.9.2/../../../../arm-none-eabi/lib/libstdc++.a(eh_terminate.o)
 .ARM.extab.text._ZSt14get_unexpectedv
                0x000000000807c404        0x0 /opt/devkitpro/devkitARM/bin/../lib/gcc/arm-none-eabi/4.9.2/../../../../arm-none-eabi/lib/libstdc++.a(eh_terminate.o)
 .ARM.extab.text._ZNSt9type_infoD2Ev
                0x000000000807c404        0x0 /opt/devkitpro/devkitARM/bin/../lib/gcc/arm-none-eabi/4.9.2/../../../../arm-none-eabi/lib/libstdc++.a(tinfo.o)
 .ARM.extab.text._ZNKSt9type_info14__is_pointer_pEv
                0x000000000807c404        0x0 /opt/devkitpro/devkitARM/bin/../lib/gcc/arm-none-eabi/4.9.2/../../../../arm-none-eabi/lib/libstdc++.a(tinfo.o)
 .ARM.extab.text._ZNKSt9type_info15__is_function_pEv
                0x000000000807c404        0x0 /opt/devkitpro/devkitARM/bin/../lib/gcc/arm-none-eabi/4.9.2/../../../../arm-none-eabi/lib/libstdc++.a(tinfo.o)
 .ARM.extab.text._ZNKSt9type_info11__do_upcastEPKN10__cxxabiv117__class_type_infoEPPv
                0x000000000807c404        0x0 /opt/devkitpro/devkitARM/bin/../lib/gcc/arm-none-eabi/4.9.2/../../../../arm-none-eabi/lib/libstdc++.a(tinfo.o)
 .ARM.extab.text._ZNSt9type_infoD0Ev
                0x000000000807c404        0x0 /opt/devkitpro/devkitARM/bin/../lib/gcc/arm-none-eabi/4.9.2/../../../../arm-none-eabi/lib/libstdc++.a(tinfo.o)
 .ARM.extab.text._ZNKSt9type_infoeqERKS_
                0x000000000807c404        0x0 /opt/devkitpro/devkitARM/bin/../lib/gcc/arm-none-eabi/4.9.2/../../../../arm-none-eabi/lib/libstdc++.a(tinfo.o)
 .ARM.extab.text._ZNKSt9type_info10__do_catchEPKS_PPvj
                0x000000000807c404        0x0 /opt/devkitpro/devkitARM/bin/../lib/gcc/arm-none-eabi/4.9.2/../../../../arm-none-eabi/lib/libstdc++.a(tinfo.o)
 .ARM.extab.text._ZN10__cxxabiv1L24__is_gxx_exception_classEPc
                0x000000000807c404        0x0 /opt/devkitpro/devkitARM/bin/../lib/gcc/arm-none-eabi/4.9.2/../../../../arm-none-eabi/lib/libstdc++.a(eh_call.o)
 .ARM.extab.text.__cxa_call_terminate
                0x000000000807c404        0x0 /opt/devkitpro/devkitARM/bin/../lib/gcc/arm-none-eabi/4.9.2/../../../../arm-none-eabi/lib/libstdc++.a(eh_call.o)
 .ARM.extab.text.__cxa_call_unexpected
                0x000000000807c404       0x28 /opt/devkitpro/devkitARM/bin/../lib/gcc/arm-none-eabi/4.9.2/../../../../arm-none-eabi/lib/libstdc++.a(eh_call.o)
 .ARM.extab.text._Znwj
                0x000000000807c42c        0x0 /opt/devkitpro/devkitARM/bin/../lib/gcc/arm-none-eabi/4.9.2/../../../../arm-none-eabi/lib/libstdc++.a(new_op.o)
 .ARM.extab.text._ZSt15set_new_handlerPFvvE
                0x000000000807c42c        0x0 /opt/devkitpro/devkitARM/bin/../lib/gcc/arm-none-eabi/4.9.2/../../../../arm-none-eabi/lib/libstdc++.a(new_handler.o)
 .ARM.extab.text._ZSt15get_new_handlerv
                0x000000000807c42c        0x0 /opt/devkitpro/devkitARM/bin/../lib/gcc/arm-none-eabi/4.9.2/../../../../arm-none-eabi/lib/libstdc++.a(new_handler.o)
 .ARM.extab.text._ZL12read_sleb128PKhPl
                0x000000000807c42c        0x0 /opt/devkitpro/devkitARM/bin/../lib/gcc/arm-none-eabi/4.9.2/../../../../arm-none-eabi/lib/libstdc++.a(eh_personality.o)
 .ARM.extab.text._ZL28read_encoded_value_with_basehjPKhPj
                0x000000000807c42c        0x0 /opt/devkitpro/devkitARM/bin/../lib/gcc/arm-none-eabi/4.9.2/../../../../arm-none-eabi/lib/libstdc++.a(eh_personality.o)
 .ARM.extab.text._ZL21base_of_encoded_valuehP15_Unwind_Context
                0x000000000807c42c        0xc /opt/devkitpro/devkitARM/bin/../lib/gcc/arm-none-eabi/4.9.2/../../../../arm-none-eabi/lib/libstdc++.a(eh_personality.o)
 .ARM.extab.text._ZL17parse_lsda_headerP15_Unwind_ContextPKhP16lsda_header_info
                0x000000000807c438        0x0 /opt/devkitpro/devkitARM/bin/../lib/gcc/arm-none-eabi/4.9.2/../../../../arm-none-eabi/lib/libstdc++.a(eh_personality.o)
 .ARM.extab.text.__gxx_personality_v0
                0x000000000807c438       0x24 /opt/devkitpro/devkitARM/bin/../lib/gcc/arm-none-eabi/4.9.2/../../../../arm-none-eabi/lib/libstdc++.a(eh_personality.o)
 .ARM.extab.text._ZNK10__cxxabiv117__class_type_info11__do_upcastEPKS0_PPv
                0x000000000807c45c        0x0 /opt/devkitpro/devkitARM/bin/../lib/gcc/arm-none-eabi/4.9.2/../../../../arm-none-eabi/lib/libstdc++.a(class_type_info.o)
 .ARM.extab.text._ZNK10__cxxabiv117__class_type_info20__do_find_public_srcEiPKvPKS0_S2_
                0x000000000807c45c        0x0 /opt/devkitpro/devkitARM/bin/../lib/gcc/arm-none-eabi/4.9.2/../../../../arm-none-eabi/lib/libstdc++.a(class_type_info.o)
 .ARM.extab.text._ZN10__cxxabiv117__class_type_infoD2Ev
                0x000000000807c45c        0x0 /opt/devkitpro/devkitARM/bin/../lib/gcc/arm-none-eabi/4.9.2/../../../../arm-none-eabi/lib/libstdc++.a(class_type_info.o)
 .ARM.extab.text._ZN10__cxxabiv117__class_type_infoD0Ev
                0x000000000807c45c        0x0 /opt/devkitpro/devkitARM/bin/../lib/gcc/arm-none-eabi/4.9.2/../../../../arm-none-eabi/lib/libstdc++.a(class_type_info.o)
 .ARM.extab.text._ZNK10__cxxabiv117__class_type_info11__do_upcastEPKS0_PKvRNS0_15__upcast_resultE
                0x000000000807c45c        0x0 /opt/devkitpro/devkitARM/bin/../lib/gcc/arm-none-eabi/4.9.2/../../../../arm-none-eabi/lib/libstdc++.a(class_type_info.o)
 .ARM.extab.text._ZNK10__cxxabiv117__class_type_info10__do_catchEPKSt9type_infoPPvj
                0x000000000807c45c        0x0 /opt/devkitpro/devkitARM/bin/../lib/gcc/arm-none-eabi/4.9.2/../../../../arm-none-eabi/lib/libstdc++.a(class_type_info.o)
 .ARM.extab.text._ZNK10__cxxabiv117__class_type_info12__do_dyncastEiNS0_10__sub_kindEPKS0_PKvS3_S5_RNS0_16__dyncast_resultE
                0x000000000807c45c        0x0 /opt/devkitpro/devkitARM/bin/../lib/gcc/arm-none-eabi/4.9.2/../../../../arm-none-eabi/lib/libstdc++.a(class_type_info.o)
 .ARM.extab.text._ZNKSt9bad_alloc4whatEv
                0x000000000807c45c        0x0 /opt/devkitpro/devkitARM/bin/../lib/gcc/arm-none-eabi/4.9.2/../../../../arm-none-eabi/lib/libstdc++.a(bad_alloc.o)
 .ARM.extab.text._ZNSt9bad_allocD2Ev
                0x000000000807c45c        0x0 /opt/devkitpro/devkitARM/bin/../lib/gcc/arm-none-eabi/4.9.2/../../../../arm-none-eabi/lib/libstdc++.a(bad_alloc.o)
 .ARM.extab.text._ZNSt9bad_allocD0Ev
                0x000000000807c45c        0x0 /opt/devkitpro/devkitARM/bin/../lib/gcc/arm-none-eabi/4.9.2/../../../../arm-none-eabi/lib/libstdc++.a(bad_alloc.o)
 .ARM.extab.text._ZL23__gxx_exception_cleanup19_Unwind_Reason_CodeP21_Unwind_Control_Block
                0x000000000807c45c        0x0 /opt/devkitpro/devkitARM/bin/../lib/gcc/arm-none-eabi/4.9.2/../../../../arm-none-eabi/lib/libstdc++.a(eh_throw.o)
 .ARM.extab.text.__cxa_throw
                0x000000000807c45c        0x0 /opt/devkitpro/devkitARM/bin/../lib/gcc/arm-none-eabi/4.9.2/../../../../arm-none-eabi/lib/libstdc++.a(eh_throw.o)
 .ARM.extab.text.__cxa_rethrow
                0x000000000807c45c        0x0 /opt/devkitpro/devkitARM/bin/../lib/gcc/arm-none-eabi/4.9.2/../../../../arm-none-eabi/lib/libstdc++.a(eh_throw.o)
 .ARM.extab.text._ZN9__gnu_cxx27__verbose_terminate_handlerEv
                0x000000000807c45c       0x34 /opt/devkitpro/devkitARM/bin/../lib/gcc/arm-none-eabi/4.9.2/../../../../arm-none-eabi/lib/libstdc++.a(vterminate.o)
 .ARM.extab.text.__cxa_get_exception_ptr
                0x000000000807c490        0x0 /opt/devkitpro/devkitARM/bin/../lib/gcc/arm-none-eabi/4.9.2/../../../../arm-none-eabi/lib/libstdc++.a(eh_catch.o)
 .ARM.extab.text.__cxa_begin_catch
                0x000000000807c490       0x20 /opt/devkitpro/devkitARM/bin/../lib/gcc/arm-none-eabi/4.9.2/../../../../arm-none-eabi/lib/libstdc++.a(eh_catch.o)
 .ARM.extab.text.__cxa_end_catch
                0x000000000807c4b0        0xc /opt/devkitpro/devkitARM/bin/../lib/gcc/arm-none-eabi/4.9.2/../../../../arm-none-eabi/lib/libstdc++.a(eh_catch.o)
 .ARM.extab.text._ZSt18uncaught_exceptionv
                0x000000000807c4bc        0x0 /opt/devkitpro/devkitARM/bin/../lib/gcc/arm-none-eabi/4.9.2/../../../../arm-none-eabi/lib/libstdc++.a(eh_catch.o)
 .ARM.extab.text.__cxa_pure_virtual
                0x000000000807c4bc        0xc /opt/devkitpro/devkitARM/bin/../lib/gcc/arm-none-eabi/4.9.2/../../../../arm-none-eabi/lib/libstdc++.a(pure.o)
 .ARM.extab.text.__cxa_deleted_virtual
                0x000000000807c4c8        0xc /opt/devkitpro/devkitARM/bin/../lib/gcc/arm-none-eabi/4.9.2/../../../../arm-none-eabi/lib/libstdc++.a(pure.o)
 .ARM.extab.text.__cxa_current_exception_type
                0x000000000807c4d4        0x0 /opt/devkitpro/devkitARM/bin/../lib/gcc/arm-none-eabi/4.9.2/../../../../arm-none-eabi/lib/libstdc++.a(eh_type.o)
 .ARM.extab.text.__cxa_allocate_exception
                0x000000000807c4d4        0x0 /opt/devkitpro/devkitARM/bin/../lib/gcc/arm-none-eabi/4.9.2/../../../../arm-none-eabi/lib/libstdc++.a(eh_alloc.o)
 .ARM.extab.text.__cxa_free_exception
                0x000000000807c4d4        0x0 /opt/devkitpro/devkitARM/bin/../lib/gcc/arm-none-eabi/4.9.2/../../../../arm-none-eabi/lib/libstdc++.a(eh_alloc.o)
 .ARM.extab.text.__cxa_allocate_dependent_exception
                0x000000000807c4d4        0x0 /opt/devkitpro/devkitARM/bin/../lib/gcc/arm-none-eabi/4.9.2/../../../../arm-none-eabi/lib/libstdc++.a(eh_alloc.o)
 .ARM.extab.text.__cxa_free_dependent_exception
                0x000000000807c4d4        0x0 /opt/devkitpro/devkitARM/bin/../lib/gcc/arm-none-eabi/4.9.2/../../../../arm-none-eabi/lib/libstdc++.a(eh_alloc.o)
                0x000000000807c4d4                __exidx_start = .

.ARM.exidx      0x000000000807c4d4      0x3b0
 *(.ARM.exidx* .gnu.linkonce.armexidx.*)
 .ARM.exidx     0x000000000807c644        0x0 /opt/devkitpro/devkitARM/bin/../lib/gcc/arm-none-eabi/4.9.2/../../../../arm-none-eabi/lib/crt0.o
                                          0x8 (size before relaxing)
 .ARM.exidx.text._ZN12sa_free_listILm256EE3popEv
                0x000000000807c644        0x0 objs/active_level_class.thumb.o
                                          0x8 (size before relaxing)
 .ARM.exidx.text._ZN8sa_stackIiLm256EE3popEv
                0x000000000807c644        0x0 objs/active_level_class.thumb.o
                                          0x8 (size before relaxing)
 .ARM.exidx.text._ZN28externally_allocated_sa_listI23sprite_init_param_groupLm256EED0Ev
                0x000000000807c644        0x0 objs/active_level_class.thumb.o
                                          0x8 (size before relaxing)
 .ARM.exidx.text._ZN28externally_allocated_sa_listI23sprite_init_param_groupLm256EED2Ev
                0x000000000807c644        0x0 objs/active_level_class.thumb.o
                                          0x8 (size before relaxing)
 .ARM.exidx.text._ZN17sa_array_of_listsI23sprite_init_param_groupLm256ELm512EED2Ev
                0x000000000807c644        0x0 objs/active_level_class.thumb.o
                                          0x8 (size before relaxing)
 .ARM.exidx     0x000000000807c644        0x0 objs/active_level_class.thumb.o
                                          0x8 (size before relaxing)
 .ARM.exidx.text._ZN17sa_array_of_listsI23sprite_init_param_groupLm256ELm512EEC2Ev
                0x000000000807c644        0x8 objs/active_level_class.thumb.o
 .ARM.exidx.text.startup
                0x000000000807c64c        0x8 objs/active_level_class.thumb.o
 .ARM.exidx.iwram_code
                0x000000000807c4d4       0x20 objs/active_level_manager_class.arm.o
                                         0x28 (size before relaxing)
 .ARM.exidx.iwram_code
                0x000000000807c4f4        0x8 objs/air_block_stuff_class.thumb.o
                                         0x20 (size before relaxing)
 .ARM.exidx.iwram_code
                0x000000000807c4fc        0x0 objs/block_base_stuff_class.thumb.o
                                         0x28 (size before relaxing)
 .ARM.exidx.text._ZN24grass_single_block_stuff19get_metatile_numberEv
                0x000000000807c654        0x0 objs/block_stuff.thumb.o
                                          0x8 (size before relaxing)
 .ARM.exidx.text._ZN24grass_single_block_stuff18get_palette_numberEv
                0x000000000807c654        0x0 objs/block_stuff.thumb.o
                                          0x8 (size before relaxing)
 .ARM.exidx.text._ZN24grass_single_block_stuff26get_metatile_graphics_slotEv
                0x000000000807c654        0x0 objs/block_stuff.thumb.o
                                          0x8 (size before relaxing)
 .ARM.exidx.text._ZN26grass_top_left_block_stuff19get_metatile_numberEv
                0x000000000807c654        0x0 objs/block_stuff.thumb.o
                                          0x8 (size before relaxing)
 .ARM.exidx.text._ZN26grass_top_left_block_stuff18get_palette_numberEv
                0x000000000807c654        0x0 objs/block_stuff.thumb.o
                                          0x8 (size before relaxing)
 .ARM.exidx.text._ZN26grass_top_left_block_stuff26get_metatile_graphics_slotEv
                0x000000000807c654        0x0 objs/block_stuff.thumb.o
                                          0x8 (size before relaxing)
 .ARM.exidx.text._ZN28grass_top_middle_block_stuff19get_metatile_numberEv
                0x000000000807c654        0x0 objs/block_stuff.thumb.o
                                          0x8 (size before relaxing)
 .ARM.exidx.text._ZN28grass_top_middle_block_stuff18get_palette_numberEv
                0x000000000807c654        0x0 objs/block_stuff.thumb.o
                                          0x8 (size before relaxing)
 .ARM.exidx.text._ZN28grass_top_middle_block_stuff26get_metatile_graphics_slotEv
                0x000000000807c654        0x0 objs/block_stuff.thumb.o
                                          0x8 (size before relaxing)
 .ARM.exidx.text._ZN27grass_top_right_block_stuff19get_metatile_numberEv
                0x000000000807c654        0x0 objs/block_stuff.thumb.o
                                          0x8 (size before relaxing)
 .ARM.exidx.text._ZN27grass_top_right_block_stuff18get_palette_numberEv
                0x000000000807c654        0x0 objs/block_stuff.thumb.o
                                          0x8 (size before relaxing)
 .ARM.exidx.text._ZN27grass_top_right_block_stuff26get_metatile_graphics_slotEv
                0x000000000807c654        0x0 objs/block_stuff.thumb.o
                                          0x8 (size before relaxing)
 .ARM.exidx.text._ZN28dirt_middle_left_block_stuff19get_metatile_numberEv
                0x000000000807c654        0x0 objs/block_stuff.thumb.o
                                          0x8 (size before relaxing)
 .ARM.exidx.text._ZN28dirt_middle_left_block_stuff18get_palette_numberEv
                0x000000000807c654        0x0 objs/block_stuff.thumb.o
                                          0x8 (size before relaxing)
 .ARM.exidx.text._ZN28dirt_middle_left_block_stuff26get_metatile_graphics_slotEv
                0x000000000807c654        0x0 objs/block_stuff.thumb.o
                                          0x8 (size before relaxing)
 .ARM.exidx.text._ZN30dirt_middle_middle_block_stuff19get_metatile_numberEv
                0x000000000807c654        0x0 objs/block_stuff.thumb.o
                                          0x8 (size before relaxing)
 .ARM.exidx.text._ZN30dirt_middle_middle_block_stuff18get_palette_numberEv
                0x000000000807c654        0x0 objs/block_stuff.thumb.o
                                          0x8 (size before relaxing)
 .ARM.exidx.text._ZN30dirt_middle_middle_block_stuff26get_metatile_graphics_slotEv
                0x000000000807c654        0x0 objs/block_stuff.thumb.o
                                          0x8 (size before relaxing)
 .ARM.exidx.text._ZN29dirt_middle_right_block_stuff19get_metatile_numberEv
                0x000000000807c654        0x0 objs/block_stuff.thumb.o
                                          0x8 (size before relaxing)
 .ARM.exidx.text._ZN29dirt_middle_right_block_stuff18get_palette_numberEv
                0x000000000807c654        0x0 objs/block_stuff.thumb.o
                                          0x8 (size before relaxing)
 .ARM.exidx.text._ZN29dirt_middle_right_block_stuff26get_metatile_graphics_slotEv
                0x000000000807c654        0x0 objs/block_stuff.thumb.o
                                          0x8 (size before relaxing)
 .ARM.exidx.text._ZN28dirt_bottom_left_block_stuff19get_metatile_numberEv
                0x000000000807c654        0x0 objs/block_stuff.thumb.o
                                          0x8 (size before relaxing)
 .ARM.exidx.text._ZN28dirt_bottom_left_block_stuff18get_palette_numberEv
                0x000000000807c654        0x0 objs/block_stuff.thumb.o
                                          0x8 (size before relaxing)
 .ARM.exidx.text._ZN28dirt_bottom_left_block_stuff26get_metatile_graphics_slotEv
                0x000000000807c654        0x0 objs/block_stuff.thumb.o
                                          0x8 (size before relaxing)
 .ARM.exidx.text._ZN30dirt_bottom_middle_block_stuff19get_metatile_numberEv
                0x000000000807c654        0x0 objs/block_stuff.thumb.o
                                          0x8 (size before relaxing)
 .ARM.exidx.text._ZN30dirt_bottom_middle_block_stuff18get_palette_numberEv
                0x000000000807c654        0x0 objs/block_stuff.thumb.o
                                          0x8 (size before relaxing)
 .ARM.exidx.text._ZN30dirt_bottom_middle_block_stuff26get_metatile_graphics_slotEv
                0x000000000807c654        0x0 objs/block_stuff.thumb.o
                                          0x8 (size before relaxing)
 .ARM.exidx.text._ZN29dirt_bottom_right_block_stuff19get_metatile_numberEv
                0x000000000807c654        0x0 objs/block_stuff.thumb.o
                                          0x8 (size before relaxing)
 .ARM.exidx.text._ZN29dirt_bottom_right_block_stuff18get_palette_numberEv
                0x000000000807c654        0x0 objs/block_stuff.thumb.o
                                          0x8 (size before relaxing)
 .ARM.exidx.text._ZN29dirt_bottom_right_block_stuff26get_metatile_graphics_slotEv
                0x000000000807c654        0x0 objs/block_stuff.thumb.o
                                          0x8 (size before relaxing)
 .ARM.exidx.text._ZN31grass_slope_p16_p16_block_stuff19get_metatile_numberEv
                0x000000000807c654        0x0 objs/block_stuff.thumb.o
                                          0x8 (size before relaxing)
 .ARM.exidx.text._ZN31grass_slope_p16_p16_block_stuff18get_palette_numberEv
                0x000000000807c654        0x0 objs/block_stuff.thumb.o
                                          0x8 (size before relaxing)
 .ARM.exidx.text._ZN31grass_slope_p16_p16_block_stuff26get_metatile_graphics_slotEv
                0x000000000807c654        0x0 objs/block_stuff.thumb.o
                                          0x8 (size before relaxing)
 .ARM.exidx.text._ZN31grass_slope_n16_p16_block_stuff19get_metatile_numberEv
                0x000000000807c654        0x0 objs/block_stuff.thumb.o
                                          0x8 (size before relaxing)
 .ARM.exidx.text._ZN31grass_slope_n16_p16_block_stuff18get_palette_numberEv
                0x000000000807c654        0x0 objs/block_stuff.thumb.o
                                          0x8 (size before relaxing)
 .ARM.exidx.text._ZN31grass_slope_n16_p16_block_stuff26get_metatile_graphics_slotEv
                0x000000000807c654        0x0 objs/block_stuff.thumb.o
                                          0x8 (size before relaxing)
 .ARM.exidx.text._ZN37grass_slope_p32_p16_short_block_stuff19get_metatile_numberEv
                0x000000000807c654        0x0 objs/block_stuff.thumb.o
                                          0x8 (size before relaxing)
 .ARM.exidx.text._ZN37grass_slope_p32_p16_short_block_stuff18get_palette_numberEv
                0x000000000807c654        0x0 objs/block_stuff.thumb.o
                                          0x8 (size before relaxing)
 .ARM.exidx.text._ZN37grass_slope_p32_p16_short_block_stuff26get_metatile_graphics_slotEv
                0x000000000807c654        0x0 objs/block_stuff.thumb.o
                                          0x8 (size before relaxing)
 .ARM.exidx.text._ZN36grass_slope_p32_p16_tall_block_stuff19get_metatile_numberEv
                0x000000000807c654        0x0 objs/block_stuff.thumb.o
                                          0x8 (size before relaxing)
 .ARM.exidx.text._ZN36grass_slope_p32_p16_tall_block_stuff18get_palette_numberEv
                0x000000000807c654        0x0 objs/block_stuff.thumb.o
                                          0x8 (size before relaxing)
 .ARM.exidx.text._ZN36grass_slope_p32_p16_tall_block_stuff26get_metatile_graphics_slotEv
                0x000000000807c654        0x0 objs/block_stuff.thumb.o
                                          0x8 (size before relaxing)
 .ARM.exidx.text._ZN36grass_slope_n32_p16_tall_block_stuff19get_metatile_numberEv
                0x000000000807c654        0x0 objs/block_stuff.thumb.o
                                          0x8 (size before relaxing)
 .ARM.exidx.text._ZN36grass_slope_n32_p16_tall_block_stuff18get_palette_numberEv
                0x000000000807c654        0x0 objs/block_stuff.thumb.o
                                          0x8 (size before relaxing)
 .ARM.exidx.text._ZN36grass_slope_n32_p16_tall_block_stuff26get_metatile_graphics_slotEv
                0x000000000807c654        0x0 objs/block_stuff.thumb.o
                                          0x8 (size before relaxing)
 .ARM.exidx.text._ZN37grass_slope_n32_p16_short_block_stuff19get_metatile_numberEv
                0x000000000807c654        0x0 objs/block_stuff.thumb.o
                                          0x8 (size before relaxing)
 .ARM.exidx.text._ZN37grass_slope_n32_p16_short_block_stuff18get_palette_numberEv
                0x000000000807c654        0x0 objs/block_stuff.thumb.o
                                          0x8 (size before relaxing)
 .ARM.exidx.text._ZN37grass_slope_n32_p16_short_block_stuff26get_metatile_graphics_slotEv
                0x000000000807c654        0x0 objs/block_stuff.thumb.o
                                          0x8 (size before relaxing)
 .ARM.exidx.text._ZN31grass_in_slope_left_block_stuff19get_metatile_numberEv
                0x000000000807c654        0x0 objs/block_stuff.thumb.o
                                          0x8 (size before relaxing)
 .ARM.exidx.text._ZN31grass_in_slope_left_block_stuff18get_palette_numberEv
                0x000000000807c654        0x0 objs/block_stuff.thumb.o
                                          0x8 (size before relaxing)
 .ARM.exidx.text._ZN31grass_in_slope_left_block_stuff26get_metatile_graphics_slotEv
                0x000000000807c654        0x0 objs/block_stuff.thumb.o
                                          0x8 (size before relaxing)
 .ARM.exidx.text._ZN32grass_in_slope_right_block_stuff19get_metatile_numberEv
                0x000000000807c654        0x0 objs/block_stuff.thumb.o
                                          0x8 (size before relaxing)
 .ARM.exidx.text._ZN32grass_in_slope_right_block_stuff18get_palette_numberEv
                0x000000000807c654        0x0 objs/block_stuff.thumb.o
                                          0x8 (size before relaxing)
 .ARM.exidx.text._ZN32grass_in_slope_right_block_stuff26get_metatile_graphics_slotEv
                0x000000000807c654        0x0 objs/block_stuff.thumb.o
                                          0x8 (size before relaxing)
 .ARM.exidx.text.startup
                0x000000000807c654        0x0 objs/block_stuff.thumb.o
                                          0x8 (size before relaxing)
 .ARM.exidx     0x000000000807c654        0x0 objs/button_stuff.thumb.o
                                          0x8 (size before relaxing)
 .ARM.exidx.iwram_code
                0x000000000807c4fc        0x0 objs/coll_box_class.arm.o
                                         0x10 (size before relaxing)
 .ARM.exidx.iwram_code
                0x000000000807c4fc        0x0 objs/coll_box_class.thumb.o
                                          0x8 (size before relaxing)
 .ARM.exidx     0x000000000807c654        0x0 objs/coll_box_class.thumb.o
                                         0x18 (size before relaxing)
 .ARM.exidx.iwram_code
                0x000000000807c4fc        0x0 objs/coll_point_group_class.thumb.o
                                         0x18 (size before relaxing)
 .ARM.exidx.iwram_code
                0x000000000807c4fc        0x8 objs/debug_vars.thumb.o
 .ARM.exidx.iwram_code
                0x000000000807c504        0x8 objs/division_funcs.o
 .ARM.exidx     0x000000000807c654        0x0 objs/dma_stuff.thumb.o
                                         0x18 (size before relaxing)
 .ARM.exidx.text._ZNK17door_sprite_stuff15get_sprite_typeEv
                0x000000000807c65c        0x8 objs/door_sprite_stuff_class.thumb.o
 .ARM.exidx.text._ZN17door_sprite_stuff16get_palette_slotER6sprite
                0x000000000807c664        0x0 objs/door_sprite_stuff_class.thumb.o
                                          0x8 (size before relaxing)
 .ARM.exidx.text._ZN17door_sprite_stuff27get_curr_relative_tile_slotER6sprite
                0x000000000807c664        0x0 objs/door_sprite_stuff_class.thumb.o
                                          0x8 (size before relaxing)
 .ARM.exidx.text._ZN17door_sprite_stuff24get_num_active_gfx_tilesEv
                0x000000000807c664        0x0 objs/door_sprite_stuff_class.thumb.o
                                          0x8 (size before relaxing)
 .ARM.exidx.text._ZNK17door_sprite_stuff12get_tile_arrEv
                0x000000000807c664        0x0 objs/door_sprite_stuff_class.thumb.o
                                          0x8 (size before relaxing)
 .ARM.exidx.text._ZNK17door_sprite_stuff26get_the_initial_shape_sizeEv
                0x000000000807c664        0x0 objs/door_sprite_stuff_class.thumb.o
                                          0x8 (size before relaxing)
 .ARM.exidx.text._ZNK17door_sprite_stuff29get_the_initial_coll_box_sizeEv
                0x000000000807c664        0x0 objs/door_sprite_stuff_class.thumb.o
                                          0x8 (size before relaxing)
 .ARM.exidx.text._ZNK17door_sprite_stuff29get_the_initial_cb_pos_offsetEv
                0x000000000807c664        0x0 objs/door_sprite_stuff_class.thumb.o
                                          0x8 (size before relaxing)
 .ARM.exidx     0x000000000807c654        0x8 objs/door_sprite_stuff_class.thumb.o
 .ARM.exidx.iwram_code
                0x000000000807c50c        0x8 objs/dud_block_stuff_class.thumb.o
                                         0x20 (size before relaxing)
 .ARM.exidx.iwram_code
                0x000000000807c514        0x0 objs/exclam_block_stuff_classes.thumb.o
                                         0x28 (size before relaxing)
 .ARM.exidx.iwram_code
                0x000000000807c514        0x8 objs/eyes_block_stuff_classes.thumb.o
                                         0x50 (size before relaxing)
 .ARM.exidx.iwram_code
                0x000000000807c51c       0x10 objs/fixed_classes.thumb.o
 .ARM.exidx.iwram_code
                0x000000000807c52c        0x8 objs/game_manager_class.thumb.o
 .ARM.exidx     0x000000000807c664       0x10 objs/game_manager_class.thumb.o
 .ARM.exidx.text._ZNK17sprite_base_stuff12get_tile_arrEv
                0x000000000807c694        0x8 objs/gfx_manager_class.thumb.o
 .ARM.exidx.text._ZN17sprite_base_stuff24get_num_active_gfx_tilesEv
                0x000000000807c69c        0x0 objs/gfx_manager_class.thumb.o
                                          0x8 (size before relaxing)
 .ARM.exidx     0x000000000807c674       0x20 objs/gfx_manager_class.thumb.o
 .ARM.exidx.iwram_code
                0x000000000807c534       0x28 objs/gfx_manager_class.thumb.o
 .ARM.exidx.iwram_code
                0x000000000807c55c        0x8 objs/hud_manager_class.thumb.o
                                         0x10 (size before relaxing)
 .ARM.exidx     0x000000000807c69c       0x10 objs/hud_manager_class.thumb.o
 .ARM.exidx.text.startup
                0x000000000807c6ac        0x8 objs/hud_manager_class.thumb.o
 .ARM.exidx.iwram_code
                0x000000000807c564        0x8 objs/interrupt_stuff.arm.o
 .ARM.exidx.iwram_code
                0x000000000807c56c        0x8 objs/interrupt_stuff.thumb.o
 .ARM.exidx     0x000000000807c6b4        0x0 objs/interrupt_stuff.thumb.o
                                         0x18 (size before relaxing)
 .ARM.exidx.iwram_code
                0x000000000807c574        0x0 objs/log_block_stuff_class.thumb.o
                                         0x20 (size before relaxing)
 .ARM.exidx.text.startup
                0x000000000807c6b4        0x8 objs/main.thumb.o
 .ARM.exidx.iwram_code
                0x000000000807c574        0x8 objs/memory_funcs_8bit.o
                                         0x10 (size before relaxing)
 .ARM.exidx     0x000000000807c6bc        0x8 objs/oam_entry_classes.thumb.o
                                         0x20 (size before relaxing)
 .ARM.exidx.text._ZNK19player_sprite_stuff15get_sprite_typeEv
                0x000000000807c6e4        0x8 objs/player_sprite_stuff_class.thumb.o
 .ARM.exidx.text._ZN19player_sprite_stuff16get_palette_slotER6sprite
                0x000000000807c6ec        0x0 objs/player_sprite_stuff_class.thumb.o
                                          0x8 (size before relaxing)
 .ARM.exidx.text._ZN19player_sprite_stuff24get_num_active_gfx_tilesEv
                0x000000000807c6ec        0x0 objs/player_sprite_stuff_class.thumb.o
                                          0x8 (size before relaxing)
 .ARM.exidx.text._ZNK19player_sprite_stuff12get_tile_arrEv
                0x000000000807c6ec        0x0 objs/player_sprite_stuff_class.thumb.o
                                          0x8 (size before relaxing)
 .ARM.exidx.text._ZNK19player_sprite_stuff26get_the_initial_shape_sizeEv
                0x000000000807c6ec        0x0 objs/player_sprite_stuff_class.thumb.o
                                          0x8 (size before relaxing)
 .ARM.exidx.text._ZNK19player_sprite_stuff29get_the_initial_coll_box_sizeEv
                0x000000000807c6ec        0x0 objs/player_sprite_stuff_class.thumb.o
                                          0x8 (size before relaxing)
 .ARM.exidx.text._ZNK19player_sprite_stuff29get_the_initial_cb_pos_offsetEv
                0x000000000807c6ec        0x0 objs/player_sprite_stuff_class.thumb.o
                                          0x8 (size before relaxing)
 .ARM.exidx.iwram_code
                0x000000000807c57c       0x30 objs/player_sprite_stuff_class.thumb.o
                                         0x28 (size before relaxing)
 .ARM.exidx     0x000000000807c6c4       0x20 objs/player_sprite_stuff_class.thumb.o
                                         0x28 (size before relaxing)
 .ARM.exidx.iwram_code
                0x000000000807c5ac       0x18 objs/sprite_base_stuff_class.arm.o
                                         0xb8 (size before relaxing)
 .ARM.exidx.text._ZNK17sprite_base_stuff26get_the_initial_shape_sizeEv
                0x000000000807c70c        0x8 objs/sprite_base_stuff_class.thumb.o
 .ARM.exidx.text._ZNK17sprite_base_stuff29get_the_initial_coll_box_sizeEv
                0x000000000807c714        0x0 objs/sprite_base_stuff_class.thumb.o
                                          0x8 (size before relaxing)
 .ARM.exidx.text._ZNK17sprite_base_stuff29get_the_initial_cb_pos_offsetEv
                0x000000000807c714        0x0 objs/sprite_base_stuff_class.thumb.o
                                          0x8 (size before relaxing)
 .ARM.exidx     0x000000000807c6ec       0x20 objs/sprite_base_stuff_class.thumb.o
                                         0x30 (size before relaxing)
 .ARM.exidx.iwram_code
                0x000000000807c5c4       0x20 objs/sprite_base_stuff_class.thumb.o
                                         0x48 (size before relaxing)
 .ARM.exidx     0x000000000807c714        0x8 objs/sprite_class.thumb.o
                                         0x18 (size before relaxing)
 .ARM.exidx.iwram_code
                0x000000000807c5e4       0x18 objs/sprite_class.thumb.o
                                         0x28 (size before relaxing)
 .ARM.exidx.iwram_code
                0x000000000807c5fc       0x20 objs/sprite_manager_class.arm.o
 .ARM.exidx     0x000000000807c71c       0x28 objs/sprite_manager_class.thumb.o
                                         0x30 (size before relaxing)
 .ARM.exidx.text._ZN28externally_allocated_sa_listI23sprite_init_param_groupLm256EE8erase_atEi
                0x000000000807c744        0x8 objs/sprite_manager_class.thumb.o
 .ARM.exidx.text.startup
                0x000000000807c74c        0x0 objs/sprite_manager_class.thumb.o
                                          0x8 (size before relaxing)
 .ARM.exidx.text._ZNK19muffin_sprite_stuff15get_sprite_typeEv
                0x000000000807c74c        0x0 objs/sprite_type_stuff.thumb.o
                                          0x8 (size before relaxing)
 .ARM.exidx.text._ZN19muffin_sprite_stuff16get_palette_slotER6sprite
                0x000000000807c74c        0x0 objs/sprite_type_stuff.thumb.o
                                          0x8 (size before relaxing)
 .ARM.exidx.text._ZN19muffin_sprite_stuff27get_curr_relative_tile_slotER6sprite
                0x000000000807c74c        0x0 objs/sprite_type_stuff.thumb.o
                                          0x8 (size before relaxing)
 .ARM.exidx.text._ZN19muffin_sprite_stuff24get_num_active_gfx_tilesEv
                0x000000000807c74c        0x0 objs/sprite_type_stuff.thumb.o
                                          0x8 (size before relaxing)
 .ARM.exidx.text._ZNK19muffin_sprite_stuff12get_tile_arrEv
                0x000000000807c74c        0x0 objs/sprite_type_stuff.thumb.o
                                          0x8 (size before relaxing)
 .ARM.exidx.text._ZNK24fire_muffin_sprite_stuff15get_sprite_typeEv
                0x000000000807c74c        0x0 objs/sprite_type_stuff.thumb.o
                                          0x8 (size before relaxing)
 .ARM.exidx.text._ZN24fire_muffin_sprite_stuff16get_palette_slotER6sprite
                0x000000000807c74c        0x0 objs/sprite_type_stuff.thumb.o
                                          0x8 (size before relaxing)
 .ARM.exidx.text._ZN24fire_muffin_sprite_stuff27get_curr_relative_tile_slotER6sprite
                0x000000000807c74c        0x0 objs/sprite_type_stuff.thumb.o
                                          0x8 (size before relaxing)
 .ARM.exidx.text._ZN24fire_muffin_sprite_stuff24get_num_active_gfx_tilesEv
                0x000000000807c74c        0x0 objs/sprite_type_stuff.thumb.o
                                          0x8 (size before relaxing)
 .ARM.exidx.text._ZNK24fire_muffin_sprite_stuff12get_tile_arrEv
                0x000000000807c74c        0x0 objs/sprite_type_stuff.thumb.o
                                          0x8 (size before relaxing)
 .ARM.exidx.text._ZNK23ice_muffin_sprite_stuff15get_sprite_typeEv
                0x000000000807c74c        0x0 objs/sprite_type_stuff.thumb.o
                                          0x8 (size before relaxing)
 .ARM.exidx.text._ZN23ice_muffin_sprite_stuff16get_palette_slotER6sprite
                0x000000000807c74c        0x0 objs/sprite_type_stuff.thumb.o
                                          0x8 (size before relaxing)
 .ARM.exidx.text._ZN23ice_muffin_sprite_stuff27get_curr_relative_tile_slotER6sprite
                0x000000000807c74c        0x0 objs/sprite_type_stuff.thumb.o
                                          0x8 (size before relaxing)
 .ARM.exidx.text._ZN23ice_muffin_sprite_stuff24get_num_active_gfx_tilesEv
                0x000000000807c74c        0x0 objs/sprite_type_stuff.thumb.o
                                          0x8 (size before relaxing)
 .ARM.exidx.text._ZNK23ice_muffin_sprite_stuff12get_tile_arrEv
                0x000000000807c74c        0x0 objs/sprite_type_stuff.thumb.o
                                          0x8 (size before relaxing)
 .ARM.exidx.text._ZNK29chocolate_muffin_sprite_stuff15get_sprite_typeEv
                0x000000000807c74c        0x0 objs/sprite_type_stuff.thumb.o
                                          0x8 (size before relaxing)
 .ARM.exidx.text._ZN29chocolate_muffin_sprite_stuff16get_palette_slotER6sprite
                0x000000000807c74c        0x0 objs/sprite_type_stuff.thumb.o
                                          0x8 (size before relaxing)
 .ARM.exidx.text._ZN29chocolate_muffin_sprite_stuff27get_curr_relative_tile_slotER6sprite
                0x000000000807c74c        0x0 objs/sprite_type_stuff.thumb.o
                                          0x8 (size before relaxing)
 .ARM.exidx.text._ZN29chocolate_muffin_sprite_stuff24get_num_active_gfx_tilesEv
                0x000000000807c74c        0x0 objs/sprite_type_stuff.thumb.o
                                          0x8 (size before relaxing)
 .ARM.exidx.text._ZNK29chocolate_muffin_sprite_stuff12get_tile_arrEv
                0x000000000807c74c        0x0 objs/sprite_type_stuff.thumb.o
                                          0x8 (size before relaxing)
 .ARM.exidx.text.startup
                0x000000000807c74c        0x0 objs/test_level.thumb.o
                                          0x8 (size before relaxing)
 .ARM.exidx.text._ZNK19waffle_sprite_stuff15get_sprite_typeEv
                0x000000000807c74c        0x0 objs/waffle_sprite_stuff_class.thumb.o
                                          0x8 (size before relaxing)
 .ARM.exidx.text._ZN19waffle_sprite_stuff16get_palette_slotER6sprite
                0x000000000807c74c        0x0 objs/waffle_sprite_stuff_class.thumb.o
                                          0x8 (size before relaxing)
 .ARM.exidx.text._ZN19waffle_sprite_stuff27get_curr_relative_tile_slotER6sprite
                0x000000000807c74c        0x0 objs/waffle_sprite_stuff_class.thumb.o
                                          0x8 (size before relaxing)
 .ARM.exidx.text._ZN19waffle_sprite_stuff24get_num_active_gfx_tilesEv
                0x000000000807c74c        0x0 objs/waffle_sprite_stuff_class.thumb.o
                                          0x8 (size before relaxing)
 .ARM.exidx.text._ZNK19waffle_sprite_stuff12get_tile_arrEv
                0x000000000807c74c        0x0 objs/waffle_sprite_stuff_class.thumb.o
                                          0x8 (size before relaxing)
 .ARM.exidx.text._ZN19waffle_sprite_stuff21block_collision_stuffER6sprite
                0x000000000807c74c       0x10 objs/waffle_sprite_stuff_class.thumb.o
                                          0x8 (size before relaxing)
 .ARM.exidx.iwram_code
                0x000000000807c61c       0x10 objs/waffle_sprite_stuff_class.thumb.o
                                         0x18 (size before relaxing)
 .ARM.exidx.iwram_code
                0x000000000807c62c       0x18 objs/wood_block_stuff_classes.thumb.o
                                         0x80 (size before relaxing)
 .ARM.exidx.text.__cxa_type_match
                0x000000000807c75c        0x8 /opt/devkitpro/devkitARM/bin/../lib/gcc/arm-none-eabi/4.9.2/../../../../arm-none-eabi/lib/libstdc++.a(eh_arm.o)
 .ARM.exidx.text.__cxa_begin_cleanup
                0x000000000807c764        0x8 /opt/devkitpro/devkitARM/bin/../lib/gcc/arm-none-eabi/4.9.2/../../../../arm-none-eabi/lib/libstdc++.a(eh_arm.o)
 .ARM.exidx.text.__gnu_end_cleanup
                0x000000000807c76c        0x0 /opt/devkitpro/devkitARM/bin/../lib/gcc/arm-none-eabi/4.9.2/../../../../arm-none-eabi/lib/libstdc++.a(eh_arm.o)
                                          0x8 (size before relaxing)
 .ARM.exidx.text.__cxa_get_globals_fast
                0x000000000807c76c        0x0 /opt/devkitpro/devkitARM/bin/../lib/gcc/arm-none-eabi/4.9.2/../../../../arm-none-eabi/lib/libstdc++.a(eh_globals.o)
                                          0x8 (size before relaxing)
 .ARM.exidx.text.__cxa_get_globals
                0x000000000807c76c        0x0 /opt/devkitpro/devkitARM/bin/../lib/gcc/arm-none-eabi/4.9.2/../../../../arm-none-eabi/lib/libstdc++.a(eh_globals.o)
                                          0x8 (size before relaxing)
 .ARM.exidx.text.__aeabi_atexit
                0x000000000807c76c        0x0 /opt/devkitpro/devkitARM/bin/../lib/gcc/arm-none-eabi/4.9.2/../../../../arm-none-eabi/lib/libstdc++.a(atexit_arm.o)
                                          0x8 (size before relaxing)
 .ARM.exidx.text._ZdlPv
                0x000000000807c76c        0x0 /opt/devkitpro/devkitARM/bin/../lib/gcc/arm-none-eabi/4.9.2/../../../../arm-none-eabi/lib/libstdc++.a(del_op.o)
                                          0x8 (size before relaxing)
 .ARM.exidx.text._ZN10__cxxabiv120__si_class_type_infoD2Ev
                0x000000000807c76c        0x8 /opt/devkitpro/devkitARM/bin/../lib/gcc/arm-none-eabi/4.9.2/../../../../arm-none-eabi/lib/libstdc++.a(si_class_type_info.o)
 .ARM.exidx.text._ZN10__cxxabiv120__si_class_type_infoD0Ev
                0x000000000807c774        0x0 /opt/devkitpro/devkitARM/bin/../lib/gcc/arm-none-eabi/4.9.2/../../../../arm-none-eabi/lib/libstdc++.a(si_class_type_info.o)
                                          0x8 (size before relaxing)
 .ARM.exidx.text._ZNK10__cxxabiv120__si_class_type_info20__do_find_public_srcEiPKvPKNS_17__class_type_infoES2_
                0x000000000807c774        0x8 /opt/devkitpro/devkitARM/bin/../lib/gcc/arm-none-eabi/4.9.2/../../../../arm-none-eabi/lib/libstdc++.a(si_class_type_info.o)
 .ARM.exidx.text._ZNK10__cxxabiv120__si_class_type_info12__do_dyncastEiNS_17__class_type_info10__sub_kindEPKS1_PKvS4_S6_RNS1_16__dyncast_resultE
                0x000000000807c77c        0x8 /opt/devkitpro/devkitARM/bin/../lib/gcc/arm-none-eabi/4.9.2/../../../../arm-none-eabi/lib/libstdc++.a(si_class_type_info.o)
 .ARM.exidx.text._ZNK10__cxxabiv120__si_class_type_info11__do_upcastEPKNS_17__class_type_infoEPKvRNS1_15__upcast_resultE
                0x000000000807c784        0x8 /opt/devkitpro/devkitARM/bin/../lib/gcc/arm-none-eabi/4.9.2/../../../../arm-none-eabi/lib/libstdc++.a(si_class_type_info.o)
 .ARM.exidx.text._ZNSt9exceptionD2Ev
                0x000000000807c78c        0x8 /opt/devkitpro/devkitARM/bin/../lib/gcc/arm-none-eabi/4.9.2/../../../../arm-none-eabi/lib/libstdc++.a(eh_exception.o)
 .ARM.exidx.text._ZNSt13bad_exceptionD2Ev
                0x000000000807c794        0x0 /opt/devkitpro/devkitARM/bin/../lib/gcc/arm-none-eabi/4.9.2/../../../../arm-none-eabi/lib/libstdc++.a(eh_exception.o)
                                          0x8 (size before relaxing)
 .ARM.exidx.text._ZNKSt9exception4whatEv
                0x000000000807c794        0x0 /opt/devkitpro/devkitARM/bin/../lib/gcc/arm-none-eabi/4.9.2/../../../../arm-none-eabi/lib/libstdc++.a(eh_exception.o)
                                          0x8 (size before relaxing)
 .ARM.exidx.text._ZNKSt13bad_exception4whatEv
                0x000000000807c794        0x0 /opt/devkitpro/devkitARM/bin/../lib/gcc/arm-none-eabi/4.9.2/../../../../arm-none-eabi/lib/libstdc++.a(eh_exception.o)
                                          0x8 (size before relaxing)
 .ARM.exidx.text._ZNSt9exceptionD0Ev
                0x000000000807c794        0x0 /opt/devkitpro/devkitARM/bin/../lib/gcc/arm-none-eabi/4.9.2/../../../../arm-none-eabi/lib/libstdc++.a(eh_exception.o)
                                          0x8 (size before relaxing)
 .ARM.exidx.text._ZNSt13bad_exceptionD0Ev
                0x000000000807c794        0x0 /opt/devkitpro/devkitARM/bin/../lib/gcc/arm-none-eabi/4.9.2/../../../../arm-none-eabi/lib/libstdc++.a(eh_exception.o)
                                          0x8 (size before relaxing)
 .ARM.exidx.text._ZN10__cxxabiv115__forced_unwindD2Ev
                0x000000000807c794        0x0 /opt/devkitpro/devkitARM/bin/../lib/gcc/arm-none-eabi/4.9.2/../../../../arm-none-eabi/lib/libstdc++.a(eh_exception.o)
                                          0x8 (size before relaxing)
 .ARM.exidx.text._ZN10__cxxabiv115__forced_unwindD0Ev
                0x000000000807c794        0x0 /opt/devkitpro/devkitARM/bin/../lib/gcc/arm-none-eabi/4.9.2/../../../../arm-none-eabi/lib/libstdc++.a(eh_exception.o)
                                          0x8 (size before relaxing)
 .ARM.exidx.text._ZN10__cxxabiv119__foreign_exceptionD2Ev
                0x000000000807c794        0x0 /opt/devkitpro/devkitARM/bin/../lib/gcc/arm-none-eabi/4.9.2/../../../../arm-none-eabi/lib/libstdc++.a(eh_exception.o)
                                          0x8 (size before relaxing)
 .ARM.exidx.text._ZN10__cxxabiv119__foreign_exceptionD0Ev
                0x000000000807c794        0x0 /opt/devkitpro/devkitARM/bin/../lib/gcc/arm-none-eabi/4.9.2/../../../../arm-none-eabi/lib/libstdc++.a(eh_exception.o)
                                          0x8 (size before relaxing)
 .ARM.exidx.text._ZN10__cxxabiv111__terminateEPFvvE
                0x000000000807c794        0x8 /opt/devkitpro/devkitARM/bin/../lib/gcc/arm-none-eabi/4.9.2/../../../../arm-none-eabi/lib/libstdc++.a(eh_terminate.o)
 .ARM.exidx.text._ZSt9terminatev
                0x000000000807c79c        0x8 /opt/devkitpro/devkitARM/bin/../lib/gcc/arm-none-eabi/4.9.2/../../../../arm-none-eabi/lib/libstdc++.a(eh_terminate.o)
 .ARM.exidx.text._ZN10__cxxabiv112__unexpectedEPFvvE
                0x000000000807c7a4        0x8 /opt/devkitpro/devkitARM/bin/../lib/gcc/arm-none-eabi/4.9.2/../../../../arm-none-eabi/lib/libstdc++.a(eh_terminate.o)
 .ARM.exidx.text._ZSt10unexpectedv
                0x000000000807c7ac        0x8 /opt/devkitpro/devkitARM/bin/../lib/gcc/arm-none-eabi/4.9.2/../../../../arm-none-eabi/lib/libstdc++.a(eh_terminate.o)
 .ARM.exidx.text._ZSt13set_terminatePFvvE
                0x000000000807c7b4        0x8 /opt/devkitpro/devkitARM/bin/../lib/gcc/arm-none-eabi/4.9.2/../../../../arm-none-eabi/lib/libstdc++.a(eh_terminate.o)
 .ARM.exidx.text._ZSt13get_terminatev
                0x000000000807c7bc        0x0 /opt/devkitpro/devkitARM/bin/../lib/gcc/arm-none-eabi/4.9.2/../../../../arm-none-eabi/lib/libstdc++.a(eh_terminate.o)
                                          0x8 (size before relaxing)
 .ARM.exidx.text._ZSt14set_unexpectedPFvvE
                0x000000000807c7bc        0x0 /opt/devkitpro/devkitARM/bin/../lib/gcc/arm-none-eabi/4.9.2/../../../../arm-none-eabi/lib/libstdc++.a(eh_terminate.o)
                                          0x8 (size before relaxing)
 .ARM.exidx.text._ZSt14get_unexpectedv
                0x000000000807c7bc        0x0 /opt/devkitpro/devkitARM/bin/../lib/gcc/arm-none-eabi/4.9.2/../../../../arm-none-eabi/lib/libstdc++.a(eh_terminate.o)
                                          0x8 (size before relaxing)
 .ARM.exidx.text._ZNSt9type_infoD2Ev
                0x000000000807c7bc        0x0 /opt/devkitpro/devkitARM/bin/../lib/gcc/arm-none-eabi/4.9.2/../../../../arm-none-eabi/lib/libstdc++.a(tinfo.o)
                                          0x8 (size before relaxing)
 .ARM.exidx.text._ZNKSt9type_info14__is_pointer_pEv
                0x000000000807c7bc        0x0 /opt/devkitpro/devkitARM/bin/../lib/gcc/arm-none-eabi/4.9.2/../../../../arm-none-eabi/lib/libstdc++.a(tinfo.o)
                                          0x8 (size before relaxing)
 .ARM.exidx.text._ZNKSt9type_info15__is_function_pEv
                0x000000000807c7bc        0x0 /opt/devkitpro/devkitARM/bin/../lib/gcc/arm-none-eabi/4.9.2/../../../../arm-none-eabi/lib/libstdc++.a(tinfo.o)
                                          0x8 (size before relaxing)
 .ARM.exidx.text._ZNKSt9type_info11__do_upcastEPKN10__cxxabiv117__class_type_infoEPPv
                0x000000000807c7bc        0x0 /opt/devkitpro/devkitARM/bin/../lib/gcc/arm-none-eabi/4.9.2/../../../../arm-none-eabi/lib/libstdc++.a(tinfo.o)
                                          0x8 (size before relaxing)
 .ARM.exidx.text._ZNSt9type_infoD0Ev
                0x000000000807c7bc        0x0 /opt/devkitpro/devkitARM/bin/../lib/gcc/arm-none-eabi/4.9.2/../../../../arm-none-eabi/lib/libstdc++.a(tinfo.o)
                                          0x8 (size before relaxing)
 .ARM.exidx.text._ZNKSt9type_infoeqERKS_
                0x000000000807c7bc        0x0 /opt/devkitpro/devkitARM/bin/../lib/gcc/arm-none-eabi/4.9.2/../../../../arm-none-eabi/lib/libstdc++.a(tinfo.o)
                                          0x8 (size before relaxing)
 .ARM.exidx.text._ZNKSt9type_info10__do_catchEPKS_PPvj
                0x000000000807c7bc        0x0 /opt/devkitpro/devkitARM/bin/../lib/gcc/arm-none-eabi/4.9.2/../../../../arm-none-eabi/lib/libstdc++.a(tinfo.o)
                                          0x8 (size before relaxing)
 .ARM.exidx.text._ZN10__cxxabiv1L24__is_gxx_exception_classEPc
                0x000000000807c7bc        0x0 /opt/devkitpro/devkitARM/bin/../lib/gcc/arm-none-eabi/4.9.2/../../../../arm-none-eabi/lib/libstdc++.a(eh_call.o)
                                          0x8 (size before relaxing)
 .ARM.exidx.text.__cxa_call_terminate
                0x000000000807c7bc        0x0 /opt/devkitpro/devkitARM/bin/../lib/gcc/arm-none-eabi/4.9.2/../../../../arm-none-eabi/lib/libstdc++.a(eh_call.o)
                                          0x8 (size before relaxing)
 .ARM.exidx.text.__cxa_call_unexpected
                0x000000000807c7bc        0x8 /opt/devkitpro/devkitARM/bin/../lib/gcc/arm-none-eabi/4.9.2/../../../../arm-none-eabi/lib/libstdc++.a(eh_call.o)
 .ARM.exidx.text._Znwj
                0x000000000807c7c4        0x8 /opt/devkitpro/devkitARM/bin/../lib/gcc/arm-none-eabi/4.9.2/../../../../arm-none-eabi/lib/libstdc++.a(new_op.o)
 .ARM.exidx.text._ZSt15set_new_handlerPFvvE
                0x000000000807c7cc        0x8 /opt/devkitpro/devkitARM/bin/../lib/gcc/arm-none-eabi/4.9.2/../../../../arm-none-eabi/lib/libstdc++.a(new_handler.o)
 .ARM.exidx.text._ZSt15get_new_handlerv
                0x000000000807c7d4        0x0 /opt/devkitpro/devkitARM/bin/../lib/gcc/arm-none-eabi/4.9.2/../../../../arm-none-eabi/lib/libstdc++.a(new_handler.o)
                                          0x8 (size before relaxing)
 .ARM.exidx.text._ZL12read_sleb128PKhPl
                0x000000000807c7d4        0x0 /opt/devkitpro/devkitARM/bin/../lib/gcc/arm-none-eabi/4.9.2/../../../../arm-none-eabi/lib/libstdc++.a(eh_personality.o)
                                          0x8 (size before relaxing)
 .ARM.exidx.text._ZL28read_encoded_value_with_basehjPKhPj
                0x000000000807c7d4        0x8 /opt/devkitpro/devkitARM/bin/../lib/gcc/arm-none-eabi/4.9.2/../../../../arm-none-eabi/lib/libstdc++.a(eh_personality.o)
 .ARM.exidx.text._ZL21base_of_encoded_valuehP15_Unwind_Context
                0x000000000807c7dc        0x8 /opt/devkitpro/devkitARM/bin/../lib/gcc/arm-none-eabi/4.9.2/../../../../arm-none-eabi/lib/libstdc++.a(eh_personality.o)
 .ARM.exidx.text._ZL17parse_lsda_headerP15_Unwind_ContextPKhP16lsda_header_info
                0x000000000807c7e4        0x8 /opt/devkitpro/devkitARM/bin/../lib/gcc/arm-none-eabi/4.9.2/../../../../arm-none-eabi/lib/libstdc++.a(eh_personality.o)
 .ARM.exidx.text.__gxx_personality_v0
                0x000000000807c7ec        0x8 /opt/devkitpro/devkitARM/bin/../lib/gcc/arm-none-eabi/4.9.2/../../../../arm-none-eabi/lib/libstdc++.a(eh_personality.o)
 .ARM.exidx.text._ZNK10__cxxabiv117__class_type_info11__do_upcastEPKS0_PPv
                0x000000000807c7f4        0x8 /opt/devkitpro/devkitARM/bin/../lib/gcc/arm-none-eabi/4.9.2/../../../../arm-none-eabi/lib/libstdc++.a(class_type_info.o)
 .ARM.exidx.text._ZNK10__cxxabiv117__class_type_info20__do_find_public_srcEiPKvPKS0_S2_
                0x000000000807c7fc        0x8 /opt/devkitpro/devkitARM/bin/../lib/gcc/arm-none-eabi/4.9.2/../../../../arm-none-eabi/lib/libstdc++.a(class_type_info.o)
 .ARM.exidx.text._ZN10__cxxabiv117__class_type_infoD2Ev
                0x000000000807c804        0x8 /opt/devkitpro/devkitARM/bin/../lib/gcc/arm-none-eabi/4.9.2/../../../../arm-none-eabi/lib/libstdc++.a(class_type_info.o)
 .ARM.exidx.text._ZN10__cxxabiv117__class_type_infoD0Ev
                0x000000000807c80c        0x0 /opt/devkitpro/devkitARM/bin/../lib/gcc/arm-none-eabi/4.9.2/../../../../arm-none-eabi/lib/libstdc++.a(class_type_info.o)
                                          0x8 (size before relaxing)
 .ARM.exidx.text._ZNK10__cxxabiv117__class_type_info11__do_upcastEPKS0_PKvRNS0_15__upcast_resultE
                0x000000000807c80c        0x8 /opt/devkitpro/devkitARM/bin/../lib/gcc/arm-none-eabi/4.9.2/../../../../arm-none-eabi/lib/libstdc++.a(class_type_info.o)
 .ARM.exidx.text._ZNK10__cxxabiv117__class_type_info10__do_catchEPKSt9type_infoPPvj
                0x000000000807c814        0x8 /opt/devkitpro/devkitARM/bin/../lib/gcc/arm-none-eabi/4.9.2/../../../../arm-none-eabi/lib/libstdc++.a(class_type_info.o)
 .ARM.exidx.text._ZNK10__cxxabiv117__class_type_info12__do_dyncastEiNS0_10__sub_kindEPKS0_PKvS3_S5_RNS0_16__dyncast_resultE
                0x000000000807c81c        0x8 /opt/devkitpro/devkitARM/bin/../lib/gcc/arm-none-eabi/4.9.2/../../../../arm-none-eabi/lib/libstdc++.a(class_type_info.o)
 .ARM.exidx.text._ZNKSt9bad_alloc4whatEv
                0x000000000807c824        0x8 /opt/devkitpro/devkitARM/bin/../lib/gcc/arm-none-eabi/4.9.2/../../../../arm-none-eabi/lib/libstdc++.a(bad_alloc.o)
 .ARM.exidx.text._ZNSt9bad_allocD2Ev
                0x000000000807c82c        0x0 /opt/devkitpro/devkitARM/bin/../lib/gcc/arm-none-eabi/4.9.2/../../../../arm-none-eabi/lib/libstdc++.a(bad_alloc.o)
                                          0x8 (size before relaxing)
 .ARM.exidx.text._ZNSt9bad_allocD0Ev
                0x000000000807c82c        0x0 /opt/devkitpro/devkitARM/bin/../lib/gcc/arm-none-eabi/4.9.2/../../../../arm-none-eabi/lib/libstdc++.a(bad_alloc.o)
                                          0x8 (size before relaxing)
 .ARM.exidx.text._ZL23__gxx_exception_cleanup19_Unwind_Reason_CodeP21_Unwind_Control_Block
                0x000000000807c82c        0x8 /opt/devkitpro/devkitARM/bin/../lib/gcc/arm-none-eabi/4.9.2/../../../../arm-none-eabi/lib/libstdc++.a(eh_throw.o)
 .ARM.exidx.text.__cxa_throw
                0x000000000807c834        0x8 /opt/devkitpro/devkitARM/bin/../lib/gcc/arm-none-eabi/4.9.2/../../../../arm-none-eabi/lib/libstdc++.a(eh_throw.o)
 .ARM.exidx.text.__cxa_rethrow
                0x000000000807c83c        0x8 /opt/devkitpro/devkitARM/bin/../lib/gcc/arm-none-eabi/4.9.2/../../../../arm-none-eabi/lib/libstdc++.a(eh_throw.o)
 .ARM.exidx.text._ZN9__gnu_cxx27__verbose_terminate_handlerEv
                0x000000000807c844        0x8 /opt/devkitpro/devkitARM/bin/../lib/gcc/arm-none-eabi/4.9.2/../../../../arm-none-eabi/lib/libstdc++.a(vterminate.o)
 .ARM.exidx.text.__cxa_get_exception_ptr
                0x000000000807c84c        0x8 /opt/devkitpro/devkitARM/bin/../lib/gcc/arm-none-eabi/4.9.2/../../../../arm-none-eabi/lib/libstdc++.a(eh_catch.o)
 .ARM.exidx.text.__cxa_begin_catch
                0x000000000807c854        0x8 /opt/devkitpro/devkitARM/bin/../lib/gcc/arm-none-eabi/4.9.2/../../../../arm-none-eabi/lib/libstdc++.a(eh_catch.o)
 .ARM.exidx.text.__cxa_end_catch
                0x000000000807c85c        0x8 /opt/devkitpro/devkitARM/bin/../lib/gcc/arm-none-eabi/4.9.2/../../../../arm-none-eabi/lib/libstdc++.a(eh_catch.o)
 .ARM.exidx.text._ZSt18uncaught_exceptionv
                0x000000000807c864        0x8 /opt/devkitpro/devkitARM/bin/../lib/gcc/arm-none-eabi/4.9.2/../../../../arm-none-eabi/lib/libstdc++.a(eh_catch.o)
 .ARM.exidx.text.__cxa_pure_virtual
                0x000000000807c86c        0x8 /opt/devkitpro/devkitARM/bin/../lib/gcc/arm-none-eabi/4.9.2/../../../../arm-none-eabi/lib/libstdc++.a(pure.o)
 .ARM.exidx.text.__cxa_deleted_virtual
                0x000000000807c874        0x8 /opt/devkitpro/devkitARM/bin/../lib/gcc/arm-none-eabi/4.9.2/../../../../arm-none-eabi/lib/libstdc++.a(pure.o)
 .ARM.exidx.text.__cxa_current_exception_type
                0x000000000807c87c        0x8 /opt/devkitpro/devkitARM/bin/../lib/gcc/arm-none-eabi/4.9.2/../../../../arm-none-eabi/lib/libstdc++.a(eh_type.o)
 .ARM.exidx.text.__cxa_allocate_exception
                0x000000000807c884        0x0 /opt/devkitpro/devkitARM/bin/../lib/gcc/arm-none-eabi/4.9.2/../../../../arm-none-eabi/lib/libstdc++.a(eh_alloc.o)
                                          0x8 (size before relaxing)
 .ARM.exidx.text.__cxa_free_exception
                0x000000000807c884        0x0 /opt/devkitpro/devkitARM/bin/../lib/gcc/arm-none-eabi/4.9.2/../../../../arm-none-eabi/lib/libstdc++.a(eh_alloc.o)
                                          0x8 (size before relaxing)
 .ARM.exidx.text.__cxa_allocate_dependent_exception
                0x000000000807c884        0x0 /opt/devkitpro/devkitARM/bin/../lib/gcc/arm-none-eabi/4.9.2/../../../../arm-none-eabi/lib/libstdc++.a(eh_alloc.o)
                                          0x8 (size before relaxing)
 .ARM.exidx.text.__cxa_free_dependent_exception
                0x000000000807c884        0x0 /opt/devkitpro/devkitARM/bin/../lib/gcc/arm-none-eabi/4.9.2/../../../../arm-none-eabi/lib/libstdc++.a(eh_alloc.o)
                                          0x8 (size before relaxing)
                0x000000000807c884                __exidx_end = .

.ARM.attributes
                0x000000000807c884       0x2c
 *(.ARM.attributes)
 .ARM.attributes
                0x000000000807c884       0x16 /opt/devkitpro/devkitARM/bin/../lib/gcc/arm-none-eabi/4.9.2/crti.o
 .ARM.attributes
                0x000000000807c89a       0x30 /opt/devkitpro/devkitARM/bin/../lib/gcc/arm-none-eabi/4.9.2/crtbegin.o
 .ARM.attributes
                0x000000000807c8ca       0x14 /opt/devkitpro/devkitARM/bin/../lib/gcc/arm-none-eabi/4.9.2/../../../../arm-none-eabi/lib/crt0.o
 .ARM.attributes
                0x000000000807c8de       0x30 objs/active_level_class.thumb.o
 .ARM.attributes
                0x000000000807c90e       0x30 objs/active_level_manager_class.arm.o
 .ARM.attributes
                0x000000000807c93e       0x30 objs/active_level_manager_class.thumb.o
 .ARM.attributes
                0x000000000807c96e       0x30 objs/air_block_stuff_class.thumb.o
 .ARM.attributes
                0x000000000807c99e       0x30 objs/block_base_stuff_class.thumb.o
 .ARM.attributes
                0x000000000807c9ce       0x30 objs/block_stuff.thumb.o
 .ARM.attributes
                0x000000000807c9fe       0x30 objs/button_stuff.thumb.o
 .ARM.attributes
                0x000000000807ca2e       0x30 objs/coll_box_class.arm.o
 .ARM.attributes
                0x000000000807ca5e       0x30 objs/coll_box_class.thumb.o
 .ARM.attributes
                0x000000000807ca8e       0x30 objs/coll_point_group_class.thumb.o
 .ARM.attributes
                0x000000000807cabe       0x20 objs/crt0.o
 .ARM.attributes
                0x000000000807cade       0x30 objs/debug_vars.thumb.o
 .ARM.attributes
                0x000000000807cb0e       0x20 objs/division_funcs.o
 .ARM.attributes
                0x000000000807cb2e       0x30 objs/dma_stuff.thumb.o
 .ARM.attributes
                0x000000000807cb5e       0x30 objs/door_sprite_stuff_class.thumb.o
 .ARM.attributes
                0x000000000807cb8e       0x30 objs/dud_block_stuff_class.thumb.o
 .ARM.attributes
                0x000000000807cbbe       0x30 objs/exclam_block_stuff_classes.thumb.o
 .ARM.attributes
                0x000000000807cbee       0x30 objs/eyes_block_stuff_classes.thumb.o
 .ARM.attributes
                0x000000000807cc1e       0x30 objs/fixed_classes.thumb.o
 .ARM.attributes
                0x000000000807cc4e       0x30 objs/game_manager_class.thumb.o
 .ARM.attributes
                0x000000000807cc7e       0x30 objs/gfx_manager_class.thumb.o
 .ARM.attributes
                0x000000000807ccae       0x30 objs/gfx_reg_stuff.arm.o
 .ARM.attributes
                0x000000000807ccde       0x30 objs/grass_and_dirt_block_stuff_classes.thumb.o
 .ARM.attributes
                0x000000000807cd0e       0x30 objs/hud_manager_class.thumb.o
 .ARM.attributes
                0x000000000807cd3e       0x30 objs/interrupt_stuff.arm.o
 .ARM.attributes
                0x000000000807cd6e       0x30 objs/interrupt_stuff.thumb.o
 .ARM.attributes
                0x000000000807cd9e       0x30 objs/level_class.thumb.o
 .ARM.attributes
                0x000000000807cdce       0x30 objs/log_block_stuff_class.thumb.o
 .ARM.attributes
                0x000000000807cdfe       0x30 objs/main.thumb.o
 .ARM.attributes
                0x000000000807ce2e       0x20 objs/memcpy32_from_tonc.o
 .ARM.attributes
                0x000000000807ce4e       0x20 objs/memory_funcs_8bit.o
 .ARM.attributes
                0x000000000807ce6e       0x30 objs/muffin_sprite_stuff_classes.thumb.o
 .ARM.attributes
                0x000000000807ce9e       0x30 objs/oam_entry_classes.thumb.o
 .ARM.attributes
                0x000000000807cece       0x30 objs/player_sprite_stuff_class.thumb.o
 .ARM.attributes
                0x000000000807cefe       0x14 objs/practice_17.bin.o
 .ARM.attributes
                0x000000000807cf12       0x20 objs/ram_funcs1.o
 .ARM.attributes
                0x000000000807cf32       0x20 objs/sherwin_gfx.o
 .ARM.attributes
                0x000000000807cf52       0x30 objs/sprite_base_stuff_class.arm.o
 .ARM.attributes
                0x000000000807cf82       0x30 objs/sprite_base_stuff_class.thumb.o
 .ARM.attributes
                0x000000000807cfb2       0x30 objs/sprite_class.thumb.o
 .ARM.attributes
                0x000000000807cfe2       0x30 objs/sprite_manager_class.arm.o
 .ARM.attributes
                0x000000000807d012       0x30 objs/sprite_manager_class.thumb.o
 .ARM.attributes
                0x000000000807d042       0x30 objs/sprite_type_stuff.thumb.o
 .ARM.attributes
                0x000000000807d072       0x30 objs/sublevel_class.thumb.o
 .ARM.attributes
                0x000000000807d0a2       0x30 objs/test_level.thumb.o
 .ARM.attributes
                0x000000000807d0d2       0x20 objs/text_8x16_gfx.o
 .ARM.attributes
                0x000000000807d0f2       0x20 objs/text_8x8_thick_gfx.o
 .ARM.attributes
                0x000000000807d112       0x20 objs/text_8x8_thin_gfx.o
 .ARM.attributes
                0x000000000807d132       0x20 objs/the_block_gfx.o
 .ARM.attributes
                0x000000000807d152       0x20 objs/the_door_gfx.o
 .ARM.attributes
                0x000000000807d172       0x20 objs/the_golem_enemy_gfx.o
 .ARM.attributes
                0x000000000807d192       0x20 objs/the_powerup_gfx.o
 .ARM.attributes
                0x000000000807d1b2       0x20 objs/title_screen.o
 .ARM.attributes
                0x000000000807d1d2       0x30 objs/waffle_sprite_stuff_class.arm.o
 .ARM.attributes
                0x000000000807d202       0x30 objs/waffle_sprite_stuff_class.thumb.o
 .ARM.attributes
                0x000000000807d232       0x30 objs/wood_block_stuff_classes.thumb.o
 .ARM.attributes
                0x000000000807d262       0x18 /opt/devkitpro/devkitARM/bin/../lib/gcc/arm-none-eabi/4.9.2/libgcc.a(_divsi3.o)
 .ARM.attributes
                0x000000000807d27a       0x18 /opt/devkitpro/devkitARM/bin/../lib/gcc/arm-none-eabi/4.9.2/libgcc.a(_dvmd_tls.o)
 .ARM.attributes
                0x000000000807d292       0x30 /opt/devkitpro/devkitARM/bin/../lib/gcc/arm-none-eabi/4.9.2/libgcc.a(unwind-arm.o)
 .ARM.attributes
                0x000000000807d2c2       0x1c /opt/devkitpro/devkitARM/bin/../lib/gcc/arm-none-eabi/4.9.2/libgcc.a(libunwind.o)
 .ARM.attributes
                0x000000000807d2de       0x30 /opt/devkitpro/devkitARM/bin/../lib/gcc/arm-none-eabi/4.9.2/libgcc.a(pr-support.o)
 .ARM.attributes
                0x000000000807d30e       0x30 /opt/devkitpro/devkitARM/bin/../lib/gcc/arm-none-eabi/4.9.2/../../../../arm-none-eabi/lib/libstdc++.a(eh_arm.o)
 .ARM.attributes
                0x000000000807d33e       0x30 /opt/devkitpro/devkitARM/bin/../lib/gcc/arm-none-eabi/4.9.2/../../../../arm-none-eabi/lib/libstdc++.a(eh_globals.o)
 .ARM.attributes
                0x000000000807d36e       0x30 /opt/devkitpro/devkitARM/bin/../lib/gcc/arm-none-eabi/4.9.2/../../../../arm-none-eabi/lib/libstdc++.a(atexit_arm.o)
 .ARM.attributes
                0x000000000807d39e       0x30 /opt/devkitpro/devkitARM/bin/../lib/gcc/arm-none-eabi/4.9.2/../../../../arm-none-eabi/lib/libstdc++.a(del_op.o)
 .ARM.attributes
                0x000000000807d3ce       0x30 /opt/devkitpro/devkitARM/bin/../lib/gcc/arm-none-eabi/4.9.2/../../../../arm-none-eabi/lib/libstdc++.a(si_class_type_info.o)
 .ARM.attributes
                0x000000000807d3fe       0x30 /opt/devkitpro/devkitARM/bin/../lib/gcc/arm-none-eabi/4.9.2/../../../../arm-none-eabi/lib/libstdc++.a(eh_exception.o)
 .ARM.attributes
                0x000000000807d42e       0x30 /opt/devkitpro/devkitARM/bin/../lib/gcc/arm-none-eabi/4.9.2/../../../../arm-none-eabi/lib/libstdc++.a(eh_terminate.o)
 .ARM.attributes
                0x000000000807d45e       0x30 /opt/devkitpro/devkitARM/bin/../lib/gcc/arm-none-eabi/4.9.2/../../../../arm-none-eabi/lib/libstdc++.a(tinfo.o)
 .ARM.attributes
                0x000000000807d48e       0x30 /opt/devkitpro/devkitARM/bin/../lib/gcc/arm-none-eabi/4.9.2/../../../../arm-none-eabi/lib/libstdc++.a(eh_call.o)
 .ARM.attributes
                0x000000000807d4be       0x30 /opt/devkitpro/devkitARM/bin/../lib/gcc/arm-none-eabi/4.9.2/../../../../arm-none-eabi/lib/libstdc++.a(new_op.o)
 .ARM.attributes
                0x000000000807d4ee       0x30 /opt/devkitpro/devkitARM/bin/../lib/gcc/arm-none-eabi/4.9.2/../../../../arm-none-eabi/lib/libstdc++.a(new_handler.o)
 .ARM.attributes
                0x000000000807d51e       0x30 /opt/devkitpro/devkitARM/bin/../lib/gcc/arm-none-eabi/4.9.2/../../../../arm-none-eabi/lib/libstdc++.a(eh_term_handler.o)
 .ARM.attributes
                0x000000000807d54e       0x30 /opt/devkitpro/devkitARM/bin/../lib/gcc/arm-none-eabi/4.9.2/../../../../arm-none-eabi/lib/libstdc++.a(eh_personality.o)
 .ARM.attributes
                0x000000000807d57e       0x30 /opt/devkitpro/devkitARM/bin/../lib/gcc/arm-none-eabi/4.9.2/../../../../arm-none-eabi/lib/libstdc++.a(class_type_info.o)
 .ARM.attributes
                0x000000000807d5ae       0x30 /opt/devkitpro/devkitARM/bin/../lib/gcc/arm-none-eabi/4.9.2/../../../../arm-none-eabi/lib/libstdc++.a(bad_alloc.o)
 .ARM.attributes
                0x000000000807d5de       0x30 /opt/devkitpro/devkitARM/bin/../lib/gcc/arm-none-eabi/4.9.2/../../../../arm-none-eabi/lib/libstdc++.a(eh_throw.o)
 .ARM.attributes
                0x000000000807d60e       0x30 /opt/devkitpro/devkitARM/bin/../lib/gcc/arm-none-eabi/4.9.2/../../../../arm-none-eabi/lib/libstdc++.a(vterminate.o)
 .ARM.attributes
                0x000000000807d63e       0x30 /opt/devkitpro/devkitARM/bin/../lib/gcc/arm-none-eabi/4.9.2/../../../../arm-none-eabi/lib/libstdc++.a(eh_catch.o)
 .ARM.attributes
                0x000000000807d66e       0x30 /opt/devkitpro/devkitARM/bin/../lib/gcc/arm-none-eabi/4.9.2/../../../../arm-none-eabi/lib/libstdc++.a(cp-demangle.o)
 .ARM.attributes
                0x000000000807d69e       0x30 /opt/devkitpro/devkitARM/bin/../lib/gcc/arm-none-eabi/4.9.2/../../../../arm-none-eabi/lib/libstdc++.a(pure.o)
 .ARM.attributes
                0x000000000807d6ce       0x30 /opt/devkitpro/devkitARM/bin/../lib/gcc/arm-none-eabi/4.9.2/../../../../arm-none-eabi/lib/libstdc++.a(eh_type.o)
 .ARM.attributes
                0x000000000807d6fe       0x30 /opt/devkitpro/devkitARM/bin/../lib/gcc/arm-none-eabi/4.9.2/../../../../arm-none-eabi/lib/libstdc++.a(eh_alloc.o)
 .ARM.attributes
                0x000000000807d72e       0x30 /opt/devkitpro/devkitARM/bin/../lib/gcc/arm-none-eabi/4.9.2/../../../../arm-none-eabi/lib/libstdc++.a(eh_unex_handler.o)
 .ARM.attributes
                0x000000000807d75e       0x14 ./maxmod/lib/libmm.a(mm_main.o)
 .ARM.attributes
                0x000000000807d772       0x16 ./maxmod/lib/libmm.a(mm_mas.o)
 .ARM.attributes
                0x000000000807d788       0x14 ./maxmod/lib/libmm.a(mm_init_default.o)
 .ARM.attributes
                0x000000000807d79c       0x16 ./maxmod/lib/libmm.a(mm_mixer_gba.o)
 .ARM.attributes
                0x000000000807d7b2       0x14 ./maxmod/lib/libmm.a(mm_effect.o)
 .ARM.attributes
                0x000000000807d7c6       0x16 ./maxmod/lib/libmm.a(mm_mas_arm.o)
 .ARM.attributes
                0x000000000807d7dc       0x30 /opt/devkitpro/devkitARM/bin/../lib/gcc/arm-none-eabi/4.9.2/../../../../arm-none-eabi/lib/libc.a(lib_a-abort.o)
 .ARM.attributes
                0x000000000807d80c       0x30 /opt/devkitpro/devkitARM/bin/../lib/gcc/arm-none-eabi/4.9.2/../../../../arm-none-eabi/lib/libc.a(lib_a-atexit.o)
 .ARM.attributes
                0x000000000807d83c       0x30 /opt/devkitpro/devkitARM/bin/../lib/gcc/arm-none-eabi/4.9.2/../../../../arm-none-eabi/lib/libc.a(lib_a-cxa_atexit.o)
 .ARM.attributes
                0x000000000807d86c       0x30 /opt/devkitpro/devkitARM/bin/../lib/gcc/arm-none-eabi/4.9.2/../../../../arm-none-eabi/lib/libc.a(lib_a-exit.o)
 .ARM.attributes
                0x000000000807d89c       0x30 /opt/devkitpro/devkitARM/bin/../lib/gcc/arm-none-eabi/4.9.2/../../../../arm-none-eabi/lib/libc.a(lib_a-fini.o)
 .ARM.attributes
                0x000000000807d8cc       0x30 /opt/devkitpro/devkitARM/bin/../lib/gcc/arm-none-eabi/4.9.2/../../../../arm-none-eabi/lib/libc.a(lib_a-fputc.o)
 .ARM.attributes
                0x000000000807d8fc       0x30 /opt/devkitpro/devkitARM/bin/../lib/gcc/arm-none-eabi/4.9.2/../../../../arm-none-eabi/lib/libc.a(lib_a-fputs.o)
 .ARM.attributes
                0x000000000807d92c       0x30 /opt/devkitpro/devkitARM/bin/../lib/gcc/arm-none-eabi/4.9.2/../../../../arm-none-eabi/lib/libc.a(lib_a-fvwrite.o)
 .ARM.attributes
                0x000000000807d95c       0x30 /opt/devkitpro/devkitARM/bin/../lib/gcc/arm-none-eabi/4.9.2/../../../../arm-none-eabi/lib/libc.a(lib_a-fwrite.o)
 .ARM.attributes
                0x000000000807d98c       0x30 /opt/devkitpro/devkitARM/bin/../lib/gcc/arm-none-eabi/4.9.2/../../../../arm-none-eabi/lib/libc.a(lib_a-impure.o)
 .ARM.attributes
                0x000000000807d9bc       0x30 /opt/devkitpro/devkitARM/bin/../lib/gcc/arm-none-eabi/4.9.2/../../../../arm-none-eabi/lib/libc.a(lib_a-init.o)
 .ARM.attributes
                0x000000000807d9ec       0x30 /opt/devkitpro/devkitARM/bin/../lib/gcc/arm-none-eabi/4.9.2/../../../../arm-none-eabi/lib/libc.a(lib_a-malloc.o)
 .ARM.attributes
                0x000000000807da1c       0x30 /opt/devkitpro/devkitARM/bin/../lib/gcc/arm-none-eabi/4.9.2/../../../../arm-none-eabi/lib/libc.a(lib_a-mallocr.o)
 .ARM.attributes
                0x000000000807da4c       0x30 /opt/devkitpro/devkitARM/bin/../lib/gcc/arm-none-eabi/4.9.2/../../../../arm-none-eabi/lib/libc.a(lib_a-memchr.o)
 .ARM.attributes
                0x000000000807da7c       0x30 /opt/devkitpro/devkitARM/bin/../lib/gcc/arm-none-eabi/4.9.2/../../../../arm-none-eabi/lib/libc.a(lib_a-memcmp.o)
 .ARM.attributes
                0x000000000807daac       0x30 /opt/devkitpro/devkitARM/bin/../lib/gcc/arm-none-eabi/4.9.2/../../../../arm-none-eabi/lib/libc.a(lib_a-memcpy.o)
 .ARM.attributes
                0x000000000807dadc       0x30 /opt/devkitpro/devkitARM/bin/../lib/gcc/arm-none-eabi/4.9.2/../../../../arm-none-eabi/lib/libc.a(lib_a-memmove.o)
 .ARM.attributes
                0x000000000807db0c       0x30 /opt/devkitpro/devkitARM/bin/../lib/gcc/arm-none-eabi/4.9.2/../../../../arm-none-eabi/lib/libc.a(lib_a-memset.o)
 .ARM.attributes
                0x000000000807db3c       0x30 /opt/devkitpro/devkitARM/bin/../lib/gcc/arm-none-eabi/4.9.2/../../../../arm-none-eabi/lib/libc.a(lib_a-mlock.o)
 .ARM.attributes
                0x000000000807db6c       0x30 /opt/devkitpro/devkitARM/bin/../lib/gcc/arm-none-eabi/4.9.2/../../../../arm-none-eabi/lib/libc.a(lib_a-putc.o)
 .ARM.attributes
                0x000000000807db9c       0x30 /opt/devkitpro/devkitARM/bin/../lib/gcc/arm-none-eabi/4.9.2/../../../../arm-none-eabi/lib/libc.a(lib_a-realloc.o)
 .ARM.attributes
                0x000000000807dbcc       0x30 /opt/devkitpro/devkitARM/bin/../lib/gcc/arm-none-eabi/4.9.2/../../../../arm-none-eabi/lib/libc.a(lib_a-reallocr.o)
 .ARM.attributes
                0x000000000807dbfc       0x30 /opt/devkitpro/devkitARM/bin/../lib/gcc/arm-none-eabi/4.9.2/../../../../arm-none-eabi/lib/libc.a(lib_a-signal.o)
 .ARM.attributes
                0x000000000807dc2c       0x30 /opt/devkitpro/devkitARM/bin/../lib/gcc/arm-none-eabi/4.9.2/../../../../arm-none-eabi/lib/libc.a(lib_a-sprintf.o)
 .ARM.attributes
                0x000000000807dc5c       0x30 /opt/devkitpro/devkitARM/bin/../lib/gcc/arm-none-eabi/4.9.2/../../../../arm-none-eabi/lib/libc.a(lib_a-strcat.o)
 .ARM.attributes
                0x000000000807dc8c       0x16 /opt/devkitpro/devkitARM/bin/../lib/gcc/arm-none-eabi/4.9.2/../../../../arm-none-eabi/lib/libc.a(lib_a-strcmp.o)
 .ARM.attributes
                0x000000000807dca2       0x30 /opt/devkitpro/devkitARM/bin/../lib/gcc/arm-none-eabi/4.9.2/../../../../arm-none-eabi/lib/libc.a(lib_a-strcpy.o)
 .ARM.attributes
                0x000000000807dcd2       0x30 /opt/devkitpro/devkitARM/bin/../lib/gcc/arm-none-eabi/4.9.2/../../../../arm-none-eabi/lib/libc.a(lib_a-strlen.o)
 .ARM.attributes
                0x000000000807dd02       0x30 /opt/devkitpro/devkitARM/bin/../lib/gcc/arm-none-eabi/4.9.2/../../../../arm-none-eabi/lib/libc.a(lib_a-strncmp.o)
 .ARM.attributes
                0x000000000807dd32       0x30 /opt/devkitpro/devkitARM/bin/../lib/gcc/arm-none-eabi/4.9.2/../../../../arm-none-eabi/lib/libc.a(lib_a-svfprintf.o)
 .ARM.attributes
                0x000000000807dd62       0x30 /opt/devkitpro/devkitARM/bin/../lib/gcc/arm-none-eabi/4.9.2/../../../../arm-none-eabi/lib/libc.a(lib_a-syswrite.o)
 .ARM.attributes
                0x000000000807dd92       0x30 /opt/devkitpro/devkitARM/bin/../lib/gcc/arm-none-eabi/4.9.2/../../../../arm-none-eabi/lib/libc.a(lib_a-wbuf.o)
 .ARM.attributes
                0x000000000807ddc2       0x30 /opt/devkitpro/devkitARM/bin/../lib/gcc/arm-none-eabi/4.9.2/../../../../arm-none-eabi/lib/libc.a(lib_a-wcrtomb.o)
 .ARM.attributes
                0x000000000807ddf2       0x30 /opt/devkitpro/devkitARM/bin/../lib/gcc/arm-none-eabi/4.9.2/../../../../arm-none-eabi/lib/libc.a(lib_a-wcsrtombs.o)
 .ARM.attributes
                0x000000000807de22       0x30 /opt/devkitpro/devkitARM/bin/../lib/gcc/arm-none-eabi/4.9.2/../../../../arm-none-eabi/lib/libc.a(lib_a-wctomb_r.o)
 .ARM.attributes
                0x000000000807de52       0x30 /opt/devkitpro/devkitARM/bin/../lib/gcc/arm-none-eabi/4.9.2/../../../../arm-none-eabi/lib/libc.a(lib_a-wsetup.o)
 .ARM.attributes
                0x000000000807de82       0x30 /opt/devkitpro/devkitARM/bin/../lib/gcc/arm-none-eabi/4.9.2/../../../../arm-none-eabi/lib/libc.a(lib_a-__atexit.o)
 .ARM.attributes
                0x000000000807deb2       0x30 /opt/devkitpro/devkitARM/bin/../lib/gcc/arm-none-eabi/4.9.2/../../../../arm-none-eabi/lib/libc.a(lib_a-__call_atexit.o)
 .ARM.attributes
                0x000000000807dee2       0x30 /opt/devkitpro/devkitARM/bin/../lib/gcc/arm-none-eabi/4.9.2/../../../../arm-none-eabi/lib/libc.a(lib_a-dtoa.o)
 .ARM.attributes
                0x000000000807df12       0x30 /opt/devkitpro/devkitARM/bin/../lib/gcc/arm-none-eabi/4.9.2/../../../../arm-none-eabi/lib/libc.a(lib_a-fflush.o)
 .ARM.attributes
                0x000000000807df42       0x30 /opt/devkitpro/devkitARM/bin/../lib/gcc/arm-none-eabi/4.9.2/../../../../arm-none-eabi/lib/libc.a(lib_a-findfp.o)
 .ARM.attributes
                0x000000000807df72       0x30 /opt/devkitpro/devkitARM/bin/../lib/gcc/arm-none-eabi/4.9.2/../../../../arm-none-eabi/lib/libc.a(lib_a-freer.o)
 .ARM.attributes
                0x000000000807dfa2       0x30 /opt/devkitpro/devkitARM/bin/../lib/gcc/arm-none-eabi/4.9.2/../../../../arm-none-eabi/lib/libc.a(lib_a-fwalk.o)
 .ARM.attributes
                0x000000000807dfd2       0x30 /opt/devkitpro/devkitARM/bin/../lib/gcc/arm-none-eabi/4.9.2/../../../../arm-none-eabi/lib/libc.a(lib_a-locale.o)
 .ARM.attributes
                0x000000000807e002       0x30 /opt/devkitpro/devkitARM/bin/../lib/gcc/arm-none-eabi/4.9.2/../../../../arm-none-eabi/lib/libc.a(lib_a-makebuf.o)
 .ARM.attributes
                0x000000000807e032       0x30 /opt/devkitpro/devkitARM/bin/../lib/gcc/arm-none-eabi/4.9.2/../../../../arm-none-eabi/lib/libc.a(lib_a-mbtowc_r.o)
 .ARM.attributes
                0x000000000807e062       0x30 /opt/devkitpro/devkitARM/bin/../lib/gcc/arm-none-eabi/4.9.2/../../../../arm-none-eabi/lib/libc.a(lib_a-mprec.o)
 .ARM.attributes
                0x000000000807e092       0x30 /opt/devkitpro/devkitARM/bin/../lib/gcc/arm-none-eabi/4.9.2/../../../../arm-none-eabi/lib/libc.a(lib_a-s_fpclassify.o)
 .ARM.attributes
                0x000000000807e0c2       0x30 /opt/devkitpro/devkitARM/bin/../lib/gcc/arm-none-eabi/4.9.2/../../../../arm-none-eabi/lib/libc.a(lib_a-s_frexp.o)
 .ARM.attributes
                0x000000000807e0f2       0x30 /opt/devkitpro/devkitARM/bin/../lib/gcc/arm-none-eabi/4.9.2/../../../../arm-none-eabi/lib/libc.a(lib_a-stdio.o)
 .ARM.attributes
                0x000000000807e122       0x30 /opt/devkitpro/devkitARM/bin/../lib/gcc/arm-none-eabi/4.9.2/../../../../arm-none-eabi/lib/libc.a(lib_a-strcasecmp.o)
 .ARM.attributes
                0x000000000807e152       0x30 /opt/devkitpro/devkitARM/bin/../lib/gcc/arm-none-eabi/4.9.2/../../../../arm-none-eabi/lib/libc.a(lib_a-strchr.o)
 .ARM.attributes
                0x000000000807e182       0x30 /opt/devkitpro/devkitARM/bin/../lib/gcc/arm-none-eabi/4.9.2/../../../../arm-none-eabi/lib/libc.a(lib_a-strlcpy.o)
 .ARM.attributes
                0x000000000807e1b2       0x30 /opt/devkitpro/devkitARM/bin/../lib/gcc/arm-none-eabi/4.9.2/../../../../arm-none-eabi/lib/libc.a(lib_a-strncasecmp.o)
 .ARM.attributes
                0x000000000807e1e2       0x30 /opt/devkitpro/devkitARM/bin/../lib/gcc/arm-none-eabi/4.9.2/../../../../arm-none-eabi/lib/libc.a(lib_a-strncpy.o)
 .ARM.attributes
                0x000000000807e212       0x30 /opt/devkitpro/devkitARM/bin/../lib/gcc/arm-none-eabi/4.9.2/../../../../arm-none-eabi/lib/libc.a(lib_a-strtol.o)
 .ARM.attributes
                0x000000000807e242       0x30 /opt/devkitpro/devkitARM/bin/../lib/gcc/arm-none-eabi/4.9.2/../../../../arm-none-eabi/lib/libc.a(lib_a-svfiprintf.o)
 .ARM.attributes
                0x000000000807e272       0x30 /opt/devkitpro/devkitARM/bin/../lib/gcc/arm-none-eabi/4.9.2/../../../../arm-none-eabi/lib/libc.a(lib_a-wcsnrtombs.o)
 .ARM.attributes
                0x000000000807e2a2       0x30 /opt/devkitpro/devkitARM/bin/../lib/gcc/arm-none-eabi/4.9.2/../../../../arm-none-eabi/lib/libc.a(lib_a-callocr.o)
 .ARM.attributes
                0x000000000807e2d2       0x30 /opt/devkitpro/devkitARM/bin/../lib/gcc/arm-none-eabi/4.9.2/../../../../arm-none-eabi/lib/libc.a(lib_a-ctype_.o)
 .ARM.attributes
                0x000000000807e302       0x30 /opt/devkitpro/devkitARM/bin/../lib/gcc/arm-none-eabi/4.9.2/../../../../arm-none-eabi/lib/libc.a(lib_a-fclose.o)
 .ARM.attributes
                0x000000000807e332       0x30 /opt/devkitpro/devkitARM/bin/../lib/gcc/arm-none-eabi/4.9.2/../../../../arm-none-eabi/lib/libc.a(lib_a-getenv_r.o)
 .ARM.attributes
                0x000000000807e362       0x30 /opt/devkitpro/devkitARM/bin/../lib/gcc/arm-none-eabi/4.9.2/../../../../arm-none-eabi/lib/libc.a(lib_a-environ.o)
 .ARM.attributes
                0x000000000807e392       0x30 /opt/devkitpro/devkitARM/bin/../lib/gcc/arm-none-eabi/4.9.2/../../../../arm-none-eabi/lib/libc.a(lib_a-envlock.o)
 .ARM.attributes
                0x000000000807e3c2       0x18 /opt/devkitpro/devkitARM/bin/../lib/gcc/arm-none-eabi/4.9.2/libgcc.a(_udivsi3.o)
 .ARM.attributes
                0x000000000807e3da       0x16 /opt/devkitpro/devkitARM/bin/../lib/gcc/arm-none-eabi/4.9.2/libgcc.a(_call_via_rX.o)
 .ARM.attributes
                0x000000000807e3f0       0x18 /opt/devkitpro/devkitARM/bin/../lib/gcc/arm-none-eabi/4.9.2/libgcc.a(_arm_addsubdf3.o)
 .ARM.attributes
                0x000000000807e408       0x18 /opt/devkitpro/devkitARM/bin/../lib/gcc/arm-none-eabi/4.9.2/libgcc.a(_arm_muldivdf3.o)
 .ARM.attributes
                0x000000000807e420       0x18 /opt/devkitpro/devkitARM/bin/../lib/gcc/arm-none-eabi/4.9.2/libgcc.a(_arm_cmpdf2.o)
 .ARM.attributes
                0x000000000807e438       0x18 /opt/devkitpro/devkitARM/bin/../lib/gcc/arm-none-eabi/4.9.2/libgcc.a(_arm_fixdfsi.o)
 .ARM.attributes
                0x000000000807e450       0x18 /opt/devkitpro/devkitARM/bin/../lib/gcc/arm-none-eabi/4.9.2/libgcc.a(_aeabi_uldivmod.o)
 .ARM.attributes
                0x000000000807e468       0x30 /opt/devkitpro/devkitARM/bin/../lib/gcc/arm-none-eabi/4.9.2/libgcc.a(bpabi.o)
 .ARM.attributes
                0x000000000807e498       0x30 /opt/devkitpro/devkitARM/bin/../lib/gcc/arm-none-eabi/4.9.2/libgcc.a(_divdi3.o)
 .ARM.attributes
                0x000000000807e4c8       0x30 /opt/devkitpro/devkitARM/bin/../lib/gcc/arm-none-eabi/4.9.2/libgcc.a(_udivdi3.o)
 .ARM.attributes
                0x000000000807e4f8       0x18 /opt/devkitpro/devkitARM/bin/../lib/gcc/arm-none-eabi/4.9.2/libgcc.a(_clzdi2.o)
 .ARM.attributes
                0x000000000807e510       0x18 /opt/devkitpro/devkitARM/bin/../lib/gcc/arm-none-eabi/4.9.2/libgcc.a(_clzsi2.o)
 .ARM.attributes
                0x000000000807e528       0x30 /opt/devkitpro/devkitARM/bin/../lib/gcc/arm-none-eabi/4.9.2/../../../../arm-none-eabi/lib/libsysbase.a(close.o)
 .ARM.attributes
                0x000000000807e558       0x30 /opt/devkitpro/devkitARM/bin/../lib/gcc/arm-none-eabi/4.9.2/../../../../arm-none-eabi/lib/libsysbase.a(fstat.o)
 .ARM.attributes
                0x000000000807e588       0x30 /opt/devkitpro/devkitARM/bin/../lib/gcc/arm-none-eabi/4.9.2/../../../../arm-none-eabi/lib/libsysbase.a(getpid.o)
 .ARM.attributes
                0x000000000807e5b8       0x30 /opt/devkitpro/devkitARM/bin/../lib/gcc/arm-none-eabi/4.9.2/../../../../arm-none-eabi/lib/libsysbase.a(isatty.o)
 .ARM.attributes
                0x000000000807e5e8       0x30 /opt/devkitpro/devkitARM/bin/../lib/gcc/arm-none-eabi/4.9.2/../../../../arm-none-eabi/lib/libsysbase.a(kill.o)
 .ARM.attributes
                0x000000000807e618       0x30 /opt/devkitpro/devkitARM/bin/../lib/gcc/arm-none-eabi/4.9.2/../../../../arm-none-eabi/lib/libsysbase.a(lseek.o)
 .ARM.attributes
                0x000000000807e648       0x30 /opt/devkitpro/devkitARM/bin/../lib/gcc/arm-none-eabi/4.9.2/../../../../arm-none-eabi/lib/libsysbase.a(read.o)
 .ARM.attributes
                0x000000000807e678       0x30 /opt/devkitpro/devkitARM/bin/../lib/gcc/arm-none-eabi/4.9.2/../../../../arm-none-eabi/lib/libsysbase.a(sbrk.o)
 .ARM.attributes
                0x000000000807e6a8       0x30 /opt/devkitpro/devkitARM/bin/../lib/gcc/arm-none-eabi/4.9.2/../../../../arm-none-eabi/lib/libsysbase.a(write.o)
 .ARM.attributes
                0x000000000807e6d8       0x30 /opt/devkitpro/devkitARM/bin/../lib/gcc/arm-none-eabi/4.9.2/../../../../arm-none-eabi/lib/libsysbase.a(_exit.o)
 .ARM.attributes
                0x000000000807e708       0x30 /opt/devkitpro/devkitARM/bin/../lib/gcc/arm-none-eabi/4.9.2/../../../../arm-none-eabi/lib/libsysbase.a(malloc_vars.o)
 .ARM.attributes
                0x000000000807e738       0x30 /opt/devkitpro/devkitARM/bin/../lib/gcc/arm-none-eabi/4.9.2/../../../../arm-none-eabi/lib/libsysbase.a(flock.o)
 .ARM.attributes
                0x000000000807e768       0x30 /opt/devkitpro/devkitARM/bin/../lib/gcc/arm-none-eabi/4.9.2/../../../../arm-none-eabi/lib/libsysbase.a(syscall_support.o)
 .ARM.attributes
                0x000000000807e798       0x30 /opt/devkitpro/devkitARM/bin/../lib/gcc/arm-none-eabi/4.9.2/../../../../arm-none-eabi/lib/libsysbase.a(handle_manager.o)
 .ARM.attributes
                0x000000000807e7c8       0x30 /opt/devkitpro/devkitARM/bin/../lib/gcc/arm-none-eabi/4.9.2/../../../../arm-none-eabi/lib/libsysbase.a(getreent.o)
 .ARM.attributes
                0x000000000807e7f8       0x30 /opt/devkitpro/devkitARM/bin/../lib/gcc/arm-none-eabi/4.9.2/../../../../arm-none-eabi/lib/libsysbase.a(iosupport.o)
 .ARM.attributes
                0x000000000807e828       0x30 /opt/devkitpro/devkitARM/bin/../lib/gcc/arm-none-eabi/4.9.2/../../../../arm-none-eabi/lib/libc.a(lib_a-errno.o)
 .ARM.attributes
                0x000000000807e858       0x30 /opt/devkitpro/devkitARM/bin/../lib/gcc/arm-none-eabi/4.9.2/crtend.o
 .ARM.attributes
                0x000000000807e888       0x18 /opt/devkitpro/devkitARM/bin/../lib/gcc/arm-none-eabi/4.9.2/crtn.o

.init_array     0x0000000002000000       0x18 load address 0x000000000807c884
                0x000000000807c884                __init_array_load = LOADADDR (.init_array)
                0x0000000002000000                __init_array_start = .
 *(.init_array)
 .init_array    0x0000000002000000        0x4 /opt/devkitpro/devkitARM/bin/../lib/gcc/arm-none-eabi/4.9.2/crtbegin.o
 .init_array    0x0000000002000004        0x4 objs/active_level_class.thumb.o
 .init_array    0x0000000002000008        0x4 objs/block_stuff.thumb.o
 .init_array    0x000000000200000c        0x4 objs/hud_manager_class.thumb.o
 .init_array    0x0000000002000010        0x4 objs/sprite_manager_class.thumb.o
 .init_array    0x0000000002000014        0x4 objs/test_level.thumb.o
 *(SORT(.init_array.*))
                0x0000000002000018                __init_array_end = .

.data           0x0000000002000018    0x22e50 load address 0x000000000807c89c
                0x000000000807c89c                __data_load = LOADADDR (.data)
                0x0000000002000018                __data_start = .
 *(.jcr)
 .jcr           0x0000000002000018        0x0 /opt/devkitpro/devkitARM/bin/../lib/gcc/arm-none-eabi/4.9.2/crtbegin.o
 .jcr           0x0000000002000018        0x4 /opt/devkitpro/devkitARM/bin/../lib/gcc/arm-none-eabi/4.9.2/crtend.o
 *(.got.plt)
 *(.got)
 *(.shdata)
 *(.data .data.* .gnu.linkonce.d.*)
 .data          0x000000000200001c        0x0 /opt/devkitpro/devkitARM/bin/../lib/gcc/arm-none-eabi/4.9.2/crti.o
 .data          0x000000000200001c        0x4 /opt/devkitpro/devkitARM/bin/../lib/gcc/arm-none-eabi/4.9.2/crtbegin.o
                0x000000000200001c                __dso_handle
 .data          0x0000000002000020        0x0 /opt/devkitpro/devkitARM/bin/../lib/gcc/arm-none-eabi/4.9.2/../../../../arm-none-eabi/lib/crt0.o
 .data          0x0000000002000020    0x1d808 objs/active_level_class.thumb.o
                0x0000000002000020                active_level::block_data_array
                0x0000000002010020                active_level::horiz_sublevel_sprite_ipg_lists
                0x0000000002015028                active_level::bg0_screenblock_mirror
                0x0000000002015828                active_level::persistent_block_data_arrays
 .data          0x000000000201d828        0x0 objs/active_level_manager_class.arm.o
 .data          0x000000000201d828        0x0 objs/active_level_manager_class.thumb.o
 .data          0x000000000201d828        0x0 objs/air_block_stuff_class.thumb.o
 .data          0x000000000201d828        0x0 objs/block_base_stuff_class.thumb.o
 .data          0x000000000201d828        0x0 objs/block_stuff.thumb.o
 .data          0x000000000201d828        0x0 objs/button_stuff.thumb.o
 .data          0x000000000201d828        0x0 objs/coll_box_class.arm.o
 .data          0x000000000201d828        0x0 objs/coll_box_class.thumb.o
 .data          0x000000000201d828        0x0 objs/coll_point_group_class.thumb.o
 .data          0x000000000201d828        0x0 objs/crt0.o
 .data          0x000000000201d828        0x0 objs/debug_vars.thumb.o
 .data          0x000000000201d828        0x0 objs/division_funcs.o
 .data          0x000000000201d828        0x0 objs/dma_stuff.thumb.o
 .data          0x000000000201d828        0x0 objs/door_sprite_stuff_class.thumb.o
 .data          0x000000000201d828        0x0 objs/dud_block_stuff_class.thumb.o
 .data          0x000000000201d828        0x0 objs/exclam_block_stuff_classes.thumb.o
 .data          0x000000000201d828        0x0 objs/eyes_block_stuff_classes.thumb.o
 .data          0x000000000201d828        0x0 objs/fixed_classes.thumb.o
 .data          0x000000000201d828        0x0 objs/game_manager_class.thumb.o
 .data          0x000000000201d828     0x3404 objs/gfx_manager_class.thumb.o
                0x000000000201d828                gfx_manager::bg_pal_mirror
                0x000000000201da28                gfx_manager::hud_vram_as_tiles_start_offset
                0x000000000201da2c                gfx_manager::obj_pal_mirror
                0x000000000201dc2c                gfx_manager::bg_fade_curr_red_arr
                0x000000000201e02c                gfx_manager::bg_fade_curr_green_arr
                0x000000000201e42c                gfx_manager::bg_fade_curr_blue_arr
                0x000000000201e82c                gfx_manager::bg_fade_red_step_amount_arr
                0x000000000201ec2c                gfx_manager::bg_fade_green_step_amount_arr
                0x000000000201f02c                gfx_manager::bg_fade_blue_step_amount_arr
                0x000000000201f42c                gfx_manager::obj_fade_curr_red_arr
                0x000000000201f82c                gfx_manager::obj_fade_curr_green_arr
                0x000000000201fc2c                gfx_manager::obj_fade_curr_blue_arr
                0x000000000202002c                gfx_manager::obj_fade_red_step_amount_arr
                0x000000000202042c                gfx_manager::obj_fade_green_step_amount_arr
                0x000000000202082c                gfx_manager::obj_fade_blue_step_amount_arr
 .data          0x0000000002020c2c        0x0 objs/gfx_reg_stuff.arm.o
 .data          0x0000000002020c2c        0x0 objs/grass_and_dirt_block_stuff_classes.thumb.o
 .data          0x0000000002020c2c      0x804 objs/hud_manager_class.thumb.o
                0x0000000002020c2c                hud_manager::hud_was_generated
                0x0000000002020c30                hud_manager::bg1_screenblock_mirror
 .data          0x0000000002021430        0x0 objs/interrupt_stuff.arm.o
 .data          0x0000000002021430        0x0 objs/interrupt_stuff.thumb.o
 .data          0x0000000002021430        0x0 objs/level_class.thumb.o
 .data          0x0000000002021430        0x0 objs/log_block_stuff_class.thumb.o
 .data          0x0000000002021430        0x0 objs/main.thumb.o
 .data          0x0000000002021430        0x0 objs/memcpy32_from_tonc.o
 .data          0x0000000002021430        0x0 objs/memory_funcs_8bit.o
 .data          0x0000000002021430        0x0 objs/muffin_sprite_stuff_classes.thumb.o
 .data          0x0000000002021430        0x0 objs/oam_entry_classes.thumb.o
 .data          0x0000000002021430        0x0 objs/player_sprite_stuff_class.thumb.o
 .data          0x0000000002021430        0x0 objs/practice_17.bin.o
 .data          0x0000000002021430        0x0 objs/ram_funcs1.o
 .data          0x0000000002021430        0x0 objs/sherwin_gfx.o
 .data          0x0000000002021430        0x0 objs/sprite_base_stuff_class.arm.o
 .data          0x0000000002021430        0x0 objs/sprite_base_stuff_class.thumb.o
 .data          0x0000000002021430        0x0 objs/sprite_class.thumb.o
 .data          0x0000000002021430        0x0 objs/sprite_manager_class.arm.o
 .data          0x0000000002021430        0x0 objs/sprite_manager_class.thumb.o
 .data          0x0000000002021430        0x0 objs/sprite_type_stuff.thumb.o
 .data          0x0000000002021430        0x0 objs/sublevel_class.thumb.o
 .data          0x0000000002021430        0x0 objs/test_level.thumb.o
 .data          0x0000000002021430        0x0 objs/text_8x16_gfx.o
 .data          0x0000000002021430        0x0 objs/text_8x8_thick_gfx.o
 .data          0x0000000002021430        0x0 objs/text_8x8_thin_gfx.o
 .data          0x0000000002021430        0x0 objs/the_block_gfx.o
 .data          0x0000000002021430        0x0 objs/the_door_gfx.o
 .data          0x0000000002021430        0x0 objs/the_golem_enemy_gfx.o
 .data          0x0000000002021430        0x0 objs/the_powerup_gfx.o
 .data          0x0000000002021430        0x0 objs/title_screen.o
 .data          0x0000000002021430        0x0 objs/waffle_sprite_stuff_class.arm.o
 .data          0x0000000002021430        0x0 objs/waffle_sprite_stuff_class.thumb.o
 .data          0x0000000002021430        0x0 objs/wood_block_stuff_classes.thumb.o
 .data          0x0000000002021430        0x0 /opt/devkitpro/devkitARM/bin/../lib/gcc/arm-none-eabi/4.9.2/libgcc.a(_divsi3.o)
 .data          0x0000000002021430        0x0 /opt/devkitpro/devkitARM/bin/../lib/gcc/arm-none-eabi/4.9.2/libgcc.a(_dvmd_tls.o)
 .data          0x0000000002021430        0x0 /opt/devkitpro/devkitARM/bin/../lib/gcc/arm-none-eabi/4.9.2/libgcc.a(unwind-arm.o)
 .data          0x0000000002021430        0x0 /opt/devkitpro/devkitARM/bin/../lib/gcc/arm-none-eabi/4.9.2/libgcc.a(libunwind.o)
 .data          0x0000000002021430        0x0 /opt/devkitpro/devkitARM/bin/../lib/gcc/arm-none-eabi/4.9.2/libgcc.a(pr-support.o)
 .data          0x0000000002021430        0x0 /opt/devkitpro/devkitARM/bin/../lib/gcc/arm-none-eabi/4.9.2/../../../../arm-none-eabi/lib/libstdc++.a(eh_arm.o)
 .data          0x0000000002021430        0x0 /opt/devkitpro/devkitARM/bin/../lib/gcc/arm-none-eabi/4.9.2/../../../../arm-none-eabi/lib/libstdc++.a(eh_globals.o)
 .data          0x0000000002021430        0x0 /opt/devkitpro/devkitARM/bin/../lib/gcc/arm-none-eabi/4.9.2/../../../../arm-none-eabi/lib/libstdc++.a(atexit_arm.o)
 .data          0x0000000002021430        0x0 /opt/devkitpro/devkitARM/bin/../lib/gcc/arm-none-eabi/4.9.2/../../../../arm-none-eabi/lib/libstdc++.a(del_op.o)
 .data          0x0000000002021430        0x0 /opt/devkitpro/devkitARM/bin/../lib/gcc/arm-none-eabi/4.9.2/../../../../arm-none-eabi/lib/libstdc++.a(si_class_type_info.o)
 .data          0x0000000002021430        0x0 /opt/devkitpro/devkitARM/bin/../lib/gcc/arm-none-eabi/4.9.2/../../../../arm-none-eabi/lib/libstdc++.a(eh_exception.o)
 .data          0x0000000002021430        0x0 /opt/devkitpro/devkitARM/bin/../lib/gcc/arm-none-eabi/4.9.2/../../../../arm-none-eabi/lib/libstdc++.a(eh_terminate.o)
 .data          0x0000000002021430        0x0 /opt/devkitpro/devkitARM/bin/../lib/gcc/arm-none-eabi/4.9.2/../../../../arm-none-eabi/lib/libstdc++.a(tinfo.o)
 .data          0x0000000002021430        0x0 /opt/devkitpro/devkitARM/bin/../lib/gcc/arm-none-eabi/4.9.2/../../../../arm-none-eabi/lib/libstdc++.a(eh_call.o)
 .data          0x0000000002021430        0x0 /opt/devkitpro/devkitARM/bin/../lib/gcc/arm-none-eabi/4.9.2/../../../../arm-none-eabi/lib/libstdc++.a(new_op.o)
 .data          0x0000000002021430        0x0 /opt/devkitpro/devkitARM/bin/../lib/gcc/arm-none-eabi/4.9.2/../../../../arm-none-eabi/lib/libstdc++.a(new_handler.o)
 .data          0x0000000002021430        0x0 /opt/devkitpro/devkitARM/bin/../lib/gcc/arm-none-eabi/4.9.2/../../../../arm-none-eabi/lib/libstdc++.a(eh_term_handler.o)
 .data._ZN10__cxxabiv119__terminate_handlerE
                0x0000000002021430        0x4 /opt/devkitpro/devkitARM/bin/../lib/gcc/arm-none-eabi/4.9.2/../../../../arm-none-eabi/lib/libstdc++.a(eh_term_handler.o)
                0x0000000002021430                __cxxabiv1::__terminate_handler
 .data          0x0000000002021434        0x0 /opt/devkitpro/devkitARM/bin/../lib/gcc/arm-none-eabi/4.9.2/../../../../arm-none-eabi/lib/libstdc++.a(eh_personality.o)
 .data          0x0000000002021434        0x0 /opt/devkitpro/devkitARM/bin/../lib/gcc/arm-none-eabi/4.9.2/../../../../arm-none-eabi/lib/libstdc++.a(class_type_info.o)
 .data          0x0000000002021434        0x0 /opt/devkitpro/devkitARM/bin/../lib/gcc/arm-none-eabi/4.9.2/../../../../arm-none-eabi/lib/libstdc++.a(bad_alloc.o)
 .data          0x0000000002021434        0x0 /opt/devkitpro/devkitARM/bin/../lib/gcc/arm-none-eabi/4.9.2/../../../../arm-none-eabi/lib/libstdc++.a(eh_throw.o)
 .data          0x0000000002021434        0x0 /opt/devkitpro/devkitARM/bin/../lib/gcc/arm-none-eabi/4.9.2/../../../../arm-none-eabi/lib/libstdc++.a(vterminate.o)
 .data          0x0000000002021434        0x0 /opt/devkitpro/devkitARM/bin/../lib/gcc/arm-none-eabi/4.9.2/../../../../arm-none-eabi/lib/libstdc++.a(eh_catch.o)
 .data          0x0000000002021434        0x0 /opt/devkitpro/devkitARM/bin/../lib/gcc/arm-none-eabi/4.9.2/../../../../arm-none-eabi/lib/libstdc++.a(cp-demangle.o)
 .data          0x0000000002021434        0x0 /opt/devkitpro/devkitARM/bin/../lib/gcc/arm-none-eabi/4.9.2/../../../../arm-none-eabi/lib/libstdc++.a(pure.o)
 .data          0x0000000002021434        0x0 /opt/devkitpro/devkitARM/bin/../lib/gcc/arm-none-eabi/4.9.2/../../../../arm-none-eabi/lib/libstdc++.a(eh_type.o)
 .data          0x0000000002021434        0x0 /opt/devkitpro/devkitARM/bin/../lib/gcc/arm-none-eabi/4.9.2/../../../../arm-none-eabi/lib/libstdc++.a(eh_alloc.o)
 .data          0x0000000002021434        0x0 /opt/devkitpro/devkitARM/bin/../lib/gcc/arm-none-eabi/4.9.2/../../../../arm-none-eabi/lib/libstdc++.a(eh_unex_handler.o)
 .data._ZN10__cxxabiv120__unexpected_handlerE
                0x0000000002021434        0x4 /opt/devkitpro/devkitARM/bin/../lib/gcc/arm-none-eabi/4.9.2/../../../../arm-none-eabi/lib/libstdc++.a(eh_unex_handler.o)
                0x0000000002021434                __cxxabiv1::__unexpected_handler
 .data          0x0000000002021438        0x0 ./maxmod/lib/libmm.a(mm_main.o)
 .data          0x0000000002021438        0x0 ./maxmod/lib/libmm.a(mm_mas.o)
 .data          0x0000000002021438        0x0 ./maxmod/lib/libmm.a(mm_init_default.o)
 .data          0x0000000002021438        0x0 ./maxmod/lib/libmm.a(mm_mixer_gba.o)
 .data          0x0000000002021438        0x0 ./maxmod/lib/libmm.a(mm_effect.o)
 .data          0x0000000002021438        0x0 ./maxmod/lib/libmm.a(mm_mas_arm.o)
 .data          0x0000000002021438        0x0 /opt/devkitpro/devkitARM/bin/../lib/gcc/arm-none-eabi/4.9.2/../../../../arm-none-eabi/lib/libc.a(lib_a-abort.o)
 .data          0x0000000002021438        0x0 /opt/devkitpro/devkitARM/bin/../lib/gcc/arm-none-eabi/4.9.2/../../../../arm-none-eabi/lib/libc.a(lib_a-atexit.o)
 .data          0x0000000002021438        0x0 /opt/devkitpro/devkitARM/bin/../lib/gcc/arm-none-eabi/4.9.2/../../../../arm-none-eabi/lib/libc.a(lib_a-cxa_atexit.o)
 .data          0x0000000002021438        0x0 /opt/devkitpro/devkitARM/bin/../lib/gcc/arm-none-eabi/4.9.2/../../../../arm-none-eabi/lib/libc.a(lib_a-exit.o)
 .data          0x0000000002021438        0x0 /opt/devkitpro/devkitARM/bin/../lib/gcc/arm-none-eabi/4.9.2/../../../../arm-none-eabi/lib/libc.a(lib_a-fini.o)
 .data          0x0000000002021438        0x0 /opt/devkitpro/devkitARM/bin/../lib/gcc/arm-none-eabi/4.9.2/../../../../arm-none-eabi/lib/libc.a(lib_a-fputc.o)
 .data          0x0000000002021438        0x0 /opt/devkitpro/devkitARM/bin/../lib/gcc/arm-none-eabi/4.9.2/../../../../arm-none-eabi/lib/libc.a(lib_a-fputs.o)
 .data          0x0000000002021438        0x0 /opt/devkitpro/devkitARM/bin/../lib/gcc/arm-none-eabi/4.9.2/../../../../arm-none-eabi/lib/libc.a(lib_a-fvwrite.o)
 .data          0x0000000002021438        0x0 /opt/devkitpro/devkitARM/bin/../lib/gcc/arm-none-eabi/4.9.2/../../../../arm-none-eabi/lib/libc.a(lib_a-fwrite.o)
 .data          0x0000000002021438        0x0 /opt/devkitpro/devkitARM/bin/../lib/gcc/arm-none-eabi/4.9.2/../../../../arm-none-eabi/lib/libc.a(lib_a-impure.o)
 .data.impure_data
                0x0000000002021438      0x428 /opt/devkitpro/devkitARM/bin/../lib/gcc/arm-none-eabi/4.9.2/../../../../arm-none-eabi/lib/libc.a(lib_a-impure.o)
 .data._impure_ptr
                0x0000000002021860        0x4 /opt/devkitpro/devkitARM/bin/../lib/gcc/arm-none-eabi/4.9.2/../../../../arm-none-eabi/lib/libc.a(lib_a-impure.o)
                0x0000000002021860                _impure_ptr
 .data          0x0000000002021864        0x0 /opt/devkitpro/devkitARM/bin/../lib/gcc/arm-none-eabi/4.9.2/../../../../arm-none-eabi/lib/libc.a(lib_a-init.o)
 .data          0x0000000002021864        0x0 /opt/devkitpro/devkitARM/bin/../lib/gcc/arm-none-eabi/4.9.2/../../../../arm-none-eabi/lib/libc.a(lib_a-malloc.o)
 .data          0x0000000002021864        0x0 /opt/devkitpro/devkitARM/bin/../lib/gcc/arm-none-eabi/4.9.2/../../../../arm-none-eabi/lib/libc.a(lib_a-mallocr.o)
 .data.__malloc_av_
                0x0000000002021864      0x408 /opt/devkitpro/devkitARM/bin/../lib/gcc/arm-none-eabi/4.9.2/../../../../arm-none-eabi/lib/libc.a(lib_a-mallocr.o)
                0x0000000002021864                __malloc_av_
 .data.__malloc_trim_threshold
                0x0000000002021c6c        0x4 /opt/devkitpro/devkitARM/bin/../lib/gcc/arm-none-eabi/4.9.2/../../../../arm-none-eabi/lib/libc.a(lib_a-mallocr.o)
                0x0000000002021c6c                __malloc_trim_threshold
 .data.__malloc_sbrk_base
                0x0000000002021c70        0x4 /opt/devkitpro/devkitARM/bin/../lib/gcc/arm-none-eabi/4.9.2/../../../../arm-none-eabi/lib/libc.a(lib_a-mallocr.o)
                0x0000000002021c70                __malloc_sbrk_base
 .data          0x0000000002021c74        0x0 /opt/devkitpro/devkitARM/bin/../lib/gcc/arm-none-eabi/4.9.2/../../../../arm-none-eabi/lib/libc.a(lib_a-memchr.o)
 .data          0x0000000002021c74        0x0 /opt/devkitpro/devkitARM/bin/../lib/gcc/arm-none-eabi/4.9.2/../../../../arm-none-eabi/lib/libc.a(lib_a-memcmp.o)
 .data          0x0000000002021c74        0x0 /opt/devkitpro/devkitARM/bin/../lib/gcc/arm-none-eabi/4.9.2/../../../../arm-none-eabi/lib/libc.a(lib_a-memcpy.o)
 .data          0x0000000002021c74        0x0 /opt/devkitpro/devkitARM/bin/../lib/gcc/arm-none-eabi/4.9.2/../../../../arm-none-eabi/lib/libc.a(lib_a-memmove.o)
 .data          0x0000000002021c74        0x0 /opt/devkitpro/devkitARM/bin/../lib/gcc/arm-none-eabi/4.9.2/../../../../arm-none-eabi/lib/libc.a(lib_a-memset.o)
 .data          0x0000000002021c74        0x0 /opt/devkitpro/devkitARM/bin/../lib/gcc/arm-none-eabi/4.9.2/../../../../arm-none-eabi/lib/libc.a(lib_a-mlock.o)
 .data          0x0000000002021c74        0x0 /opt/devkitpro/devkitARM/bin/../lib/gcc/arm-none-eabi/4.9.2/../../../../arm-none-eabi/lib/libc.a(lib_a-putc.o)
 .data          0x0000000002021c74        0x0 /opt/devkitpro/devkitARM/bin/../lib/gcc/arm-none-eabi/4.9.2/../../../../arm-none-eabi/lib/libc.a(lib_a-realloc.o)
 .data          0x0000000002021c74        0x0 /opt/devkitpro/devkitARM/bin/../lib/gcc/arm-none-eabi/4.9.2/../../../../arm-none-eabi/lib/libc.a(lib_a-reallocr.o)
 .data          0x0000000002021c74        0x0 /opt/devkitpro/devkitARM/bin/../lib/gcc/arm-none-eabi/4.9.2/../../../../arm-none-eabi/lib/libc.a(lib_a-signal.o)
 .data          0x0000000002021c74        0x0 /opt/devkitpro/devkitARM/bin/../lib/gcc/arm-none-eabi/4.9.2/../../../../arm-none-eabi/lib/libc.a(lib_a-sprintf.o)
 .data          0x0000000002021c74        0x0 /opt/devkitpro/devkitARM/bin/../lib/gcc/arm-none-eabi/4.9.2/../../../../arm-none-eabi/lib/libc.a(lib_a-strcat.o)
 .data          0x0000000002021c74        0x0 /opt/devkitpro/devkitARM/bin/../lib/gcc/arm-none-eabi/4.9.2/../../../../arm-none-eabi/lib/libc.a(lib_a-strcmp.o)
 .data          0x0000000002021c74        0x0 /opt/devkitpro/devkitARM/bin/../lib/gcc/arm-none-eabi/4.9.2/../../../../arm-none-eabi/lib/libc.a(lib_a-strcpy.o)
 .data          0x0000000002021c74        0x0 /opt/devkitpro/devkitARM/bin/../lib/gcc/arm-none-eabi/4.9.2/../../../../arm-none-eabi/lib/libc.a(lib_a-strlen.o)
 .data          0x0000000002021c74        0x0 /opt/devkitpro/devkitARM/bin/../lib/gcc/arm-none-eabi/4.9.2/../../../../arm-none-eabi/lib/libc.a(lib_a-strncmp.o)
 .data          0x0000000002021c74        0x0 /opt/devkitpro/devkitARM/bin/../lib/gcc/arm-none-eabi/4.9.2/../../../../arm-none-eabi/lib/libc.a(lib_a-svfprintf.o)
 .data          0x0000000002021c74        0x0 /opt/devkitpro/devkitARM/bin/../lib/gcc/arm-none-eabi/4.9.2/../../../../arm-none-eabi/lib/libc.a(lib_a-syswrite.o)
 .data          0x0000000002021c74        0x0 /opt/devkitpro/devkitARM/bin/../lib/gcc/arm-none-eabi/4.9.2/../../../../arm-none-eabi/lib/libc.a(lib_a-wbuf.o)
 .data          0x0000000002021c74        0x0 /opt/devkitpro/devkitARM/bin/../lib/gcc/arm-none-eabi/4.9.2/../../../../arm-none-eabi/lib/libc.a(lib_a-wcrtomb.o)
 .data          0x0000000002021c74        0x0 /opt/devkitpro/devkitARM/bin/../lib/gcc/arm-none-eabi/4.9.2/../../../../arm-none-eabi/lib/libc.a(lib_a-wcsrtombs.o)
 .data          0x0000000002021c74        0x0 /opt/devkitpro/devkitARM/bin/../lib/gcc/arm-none-eabi/4.9.2/../../../../arm-none-eabi/lib/libc.a(lib_a-wctomb_r.o)
 .data.__wctomb
                0x0000000002021c74        0x4 /opt/devkitpro/devkitARM/bin/../lib/gcc/arm-none-eabi/4.9.2/../../../../arm-none-eabi/lib/libc.a(lib_a-wctomb_r.o)
                0x0000000002021c74                __wctomb
 .data          0x0000000002021c78        0x0 /opt/devkitpro/devkitARM/bin/../lib/gcc/arm-none-eabi/4.9.2/../../../../arm-none-eabi/lib/libc.a(lib_a-wsetup.o)
 .data          0x0000000002021c78        0x0 /opt/devkitpro/devkitARM/bin/../lib/gcc/arm-none-eabi/4.9.2/../../../../arm-none-eabi/lib/libc.a(lib_a-__atexit.o)
 .data          0x0000000002021c78        0x0 /opt/devkitpro/devkitARM/bin/../lib/gcc/arm-none-eabi/4.9.2/../../../../arm-none-eabi/lib/libc.a(lib_a-__call_atexit.o)
 .data          0x0000000002021c78        0x0 /opt/devkitpro/devkitARM/bin/../lib/gcc/arm-none-eabi/4.9.2/../../../../arm-none-eabi/lib/libc.a(lib_a-dtoa.o)
 .data          0x0000000002021c78        0x0 /opt/devkitpro/devkitARM/bin/../lib/gcc/arm-none-eabi/4.9.2/../../../../arm-none-eabi/lib/libc.a(lib_a-fflush.o)
 .data          0x0000000002021c78        0x0 /opt/devkitpro/devkitARM/bin/../lib/gcc/arm-none-eabi/4.9.2/../../../../arm-none-eabi/lib/libc.a(lib_a-findfp.o)
 .data          0x0000000002021c78        0x0 /opt/devkitpro/devkitARM/bin/../lib/gcc/arm-none-eabi/4.9.2/../../../../arm-none-eabi/lib/libc.a(lib_a-freer.o)
 .data          0x0000000002021c78        0x0 /opt/devkitpro/devkitARM/bin/../lib/gcc/arm-none-eabi/4.9.2/../../../../arm-none-eabi/lib/libc.a(lib_a-fwalk.o)
 .data          0x0000000002021c78        0x0 /opt/devkitpro/devkitARM/bin/../lib/gcc/arm-none-eabi/4.9.2/../../../../arm-none-eabi/lib/libc.a(lib_a-locale.o)
 .data.lc_message_charset
                0x0000000002021c78       0x20 /opt/devkitpro/devkitARM/bin/../lib/gcc/arm-none-eabi/4.9.2/../../../../arm-none-eabi/lib/libc.a(lib_a-locale.o)
 .data.lconv    0x0000000002021c98       0x38 /opt/devkitpro/devkitARM/bin/../lib/gcc/arm-none-eabi/4.9.2/../../../../arm-none-eabi/lib/libc.a(lib_a-locale.o)
 .data.current_categories
                0x0000000002021cd0       0xe0 /opt/devkitpro/devkitARM/bin/../lib/gcc/arm-none-eabi/4.9.2/../../../../arm-none-eabi/lib/libc.a(lib_a-locale.o)
 .data.lc_ctype_charset
                0x0000000002021db0       0x20 /opt/devkitpro/devkitARM/bin/../lib/gcc/arm-none-eabi/4.9.2/../../../../arm-none-eabi/lib/libc.a(lib_a-locale.o)
 .data.__default_locale
                0x0000000002021dd0       0x20 /opt/devkitpro/devkitARM/bin/../lib/gcc/arm-none-eabi/4.9.2/../../../../arm-none-eabi/lib/libc.a(lib_a-locale.o)
                0x0000000002021dd0                __default_locale
 .data.__mb_cur_max
                0x0000000002021df0        0x4 /opt/devkitpro/devkitARM/bin/../lib/gcc/arm-none-eabi/4.9.2/../../../../arm-none-eabi/lib/libc.a(lib_a-locale.o)
                0x0000000002021df0                __mb_cur_max
 .data          0x0000000002021df4        0x0 /opt/devkitpro/devkitARM/bin/../lib/gcc/arm-none-eabi/4.9.2/../../../../arm-none-eabi/lib/libc.a(lib_a-makebuf.o)
 .data          0x0000000002021df4        0x0 /opt/devkitpro/devkitARM/bin/../lib/gcc/arm-none-eabi/4.9.2/../../../../arm-none-eabi/lib/libc.a(lib_a-mbtowc_r.o)
 .data.__mbtowc
                0x0000000002021df4        0x4 /opt/devkitpro/devkitARM/bin/../lib/gcc/arm-none-eabi/4.9.2/../../../../arm-none-eabi/lib/libc.a(lib_a-mbtowc_r.o)
                0x0000000002021df4                __mbtowc
 .data          0x0000000002021df8        0x0 /opt/devkitpro/devkitARM/bin/../lib/gcc/arm-none-eabi/4.9.2/../../../../arm-none-eabi/lib/libc.a(lib_a-mprec.o)
 .data          0x0000000002021df8        0x0 /opt/devkitpro/devkitARM/bin/../lib/gcc/arm-none-eabi/4.9.2/../../../../arm-none-eabi/lib/libc.a(lib_a-s_fpclassify.o)
 .data          0x0000000002021df8        0x0 /opt/devkitpro/devkitARM/bin/../lib/gcc/arm-none-eabi/4.9.2/../../../../arm-none-eabi/lib/libc.a(lib_a-s_frexp.o)
 .data          0x0000000002021df8        0x0 /opt/devkitpro/devkitARM/bin/../lib/gcc/arm-none-eabi/4.9.2/../../../../arm-none-eabi/lib/libc.a(lib_a-stdio.o)
 .data          0x0000000002021df8        0x0 /opt/devkitpro/devkitARM/bin/../lib/gcc/arm-none-eabi/4.9.2/../../../../arm-none-eabi/lib/libc.a(lib_a-strcasecmp.o)
 .data          0x0000000002021df8        0x0 /opt/devkitpro/devkitARM/bin/../lib/gcc/arm-none-eabi/4.9.2/../../../../arm-none-eabi/lib/libc.a(lib_a-strchr.o)
 .data          0x0000000002021df8        0x0 /opt/devkitpro/devkitARM/bin/../lib/gcc/arm-none-eabi/4.9.2/../../../../arm-none-eabi/lib/libc.a(lib_a-strlcpy.o)
 .data          0x0000000002021df8        0x0 /opt/devkitpro/devkitARM/bin/../lib/gcc/arm-none-eabi/4.9.2/../../../../arm-none-eabi/lib/libc.a(lib_a-strncasecmp.o)
 .data          0x0000000002021df8        0x0 /opt/devkitpro/devkitARM/bin/../lib/gcc/arm-none-eabi/4.9.2/../../../../arm-none-eabi/lib/libc.a(lib_a-strncpy.o)
 .data          0x0000000002021df8        0x0 /opt/devkitpro/devkitARM/bin/../lib/gcc/arm-none-eabi/4.9.2/../../../../arm-none-eabi/lib/libc.a(lib_a-strtol.o)
 .data          0x0000000002021df8        0x0 /opt/devkitpro/devkitARM/bin/../lib/gcc/arm-none-eabi/4.9.2/../../../../arm-none-eabi/lib/libc.a(lib_a-svfiprintf.o)
 .data          0x0000000002021df8        0x0 /opt/devkitpro/devkitARM/bin/../lib/gcc/arm-none-eabi/4.9.2/../../../../arm-none-eabi/lib/libc.a(lib_a-wcsnrtombs.o)
 .data          0x0000000002021df8        0x0 /opt/devkitpro/devkitARM/bin/../lib/gcc/arm-none-eabi/4.9.2/../../../../arm-none-eabi/lib/libc.a(lib_a-callocr.o)
 .data          0x0000000002021df8        0x0 /opt/devkitpro/devkitARM/bin/../lib/gcc/arm-none-eabi/4.9.2/../../../../arm-none-eabi/lib/libc.a(lib_a-ctype_.o)
 .data.__ctype_ptr__
                0x0000000002021df8        0x4 /opt/devkitpro/devkitARM/bin/../lib/gcc/arm-none-eabi/4.9.2/../../../../arm-none-eabi/lib/libc.a(lib_a-ctype_.o)
                0x0000000002021df8                __ctype_ptr__
 .data          0x0000000002021dfc        0x0 /opt/devkitpro/devkitARM/bin/../lib/gcc/arm-none-eabi/4.9.2/../../../../arm-none-eabi/lib/libc.a(lib_a-fclose.o)
 .data          0x0000000002021dfc        0x0 /opt/devkitpro/devkitARM/bin/../lib/gcc/arm-none-eabi/4.9.2/../../../../arm-none-eabi/lib/libc.a(lib_a-getenv_r.o)
 .data          0x0000000002021dfc        0x0 /opt/devkitpro/devkitARM/bin/../lib/gcc/arm-none-eabi/4.9.2/../../../../arm-none-eabi/lib/libc.a(lib_a-environ.o)
 .data.environ  0x0000000002021dfc        0x4 /opt/devkitpro/devkitARM/bin/../lib/gcc/arm-none-eabi/4.9.2/../../../../arm-none-eabi/lib/libc.a(lib_a-environ.o)
                0x0000000002021dfc                environ
 .data          0x0000000002021e00        0x0 /opt/devkitpro/devkitARM/bin/../lib/gcc/arm-none-eabi/4.9.2/../../../../arm-none-eabi/lib/libc.a(lib_a-envlock.o)
 .data          0x0000000002021e00        0x0 /opt/devkitpro/devkitARM/bin/../lib/gcc/arm-none-eabi/4.9.2/libgcc.a(_udivsi3.o)
 .data          0x0000000002021e00        0x0 /opt/devkitpro/devkitARM/bin/../lib/gcc/arm-none-eabi/4.9.2/libgcc.a(_call_via_rX.o)
 .data          0x0000000002021e00        0x0 /opt/devkitpro/devkitARM/bin/../lib/gcc/arm-none-eabi/4.9.2/libgcc.a(_arm_addsubdf3.o)
 .data          0x0000000002021e00        0x0 /opt/devkitpro/devkitARM/bin/../lib/gcc/arm-none-eabi/4.9.2/libgcc.a(_arm_muldivdf3.o)
 .data          0x0000000002021e00        0x0 /opt/devkitpro/devkitARM/bin/../lib/gcc/arm-none-eabi/4.9.2/libgcc.a(_arm_cmpdf2.o)
 .data          0x0000000002021e00        0x0 /opt/devkitpro/devkitARM/bin/../lib/gcc/arm-none-eabi/4.9.2/libgcc.a(_arm_fixdfsi.o)
 .data          0x0000000002021e00        0x0 /opt/devkitpro/devkitARM/bin/../lib/gcc/arm-none-eabi/4.9.2/libgcc.a(_aeabi_uldivmod.o)
 .data          0x0000000002021e00        0x0 /opt/devkitpro/devkitARM/bin/../lib/gcc/arm-none-eabi/4.9.2/libgcc.a(bpabi.o)
 .data          0x0000000002021e00        0x0 /opt/devkitpro/devkitARM/bin/../lib/gcc/arm-none-eabi/4.9.2/libgcc.a(_divdi3.o)
 .data          0x0000000002021e00        0x0 /opt/devkitpro/devkitARM/bin/../lib/gcc/arm-none-eabi/4.9.2/libgcc.a(_udivdi3.o)
 .data          0x0000000002021e00        0x0 /opt/devkitpro/devkitARM/bin/../lib/gcc/arm-none-eabi/4.9.2/libgcc.a(_clzdi2.o)
 .data          0x0000000002021e00        0x0 /opt/devkitpro/devkitARM/bin/../lib/gcc/arm-none-eabi/4.9.2/libgcc.a(_clzsi2.o)
 .data          0x0000000002021e00        0x0 /opt/devkitpro/devkitARM/bin/../lib/gcc/arm-none-eabi/4.9.2/../../../../arm-none-eabi/lib/libsysbase.a(close.o)
 .data          0x0000000002021e00        0x0 /opt/devkitpro/devkitARM/bin/../lib/gcc/arm-none-eabi/4.9.2/../../../../arm-none-eabi/lib/libsysbase.a(fstat.o)
 .data          0x0000000002021e00        0x0 /opt/devkitpro/devkitARM/bin/../lib/gcc/arm-none-eabi/4.9.2/../../../../arm-none-eabi/lib/libsysbase.a(getpid.o)
 .data          0x0000000002021e00        0x0 /opt/devkitpro/devkitARM/bin/../lib/gcc/arm-none-eabi/4.9.2/../../../../arm-none-eabi/lib/libsysbase.a(isatty.o)
 .data          0x0000000002021e00        0x0 /opt/devkitpro/devkitARM/bin/../lib/gcc/arm-none-eabi/4.9.2/../../../../arm-none-eabi/lib/libsysbase.a(kill.o)
 .data          0x0000000002021e00        0x0 /opt/devkitpro/devkitARM/bin/../lib/gcc/arm-none-eabi/4.9.2/../../../../arm-none-eabi/lib/libsysbase.a(lseek.o)
 .data          0x0000000002021e00        0x0 /opt/devkitpro/devkitARM/bin/../lib/gcc/arm-none-eabi/4.9.2/../../../../arm-none-eabi/lib/libsysbase.a(read.o)
 .data          0x0000000002021e00        0x0 /opt/devkitpro/devkitARM/bin/../lib/gcc/arm-none-eabi/4.9.2/../../../../arm-none-eabi/lib/libsysbase.a(sbrk.o)
 .data          0x0000000002021e00        0x0 /opt/devkitpro/devkitARM/bin/../lib/gcc/arm-none-eabi/4.9.2/../../../../arm-none-eabi/lib/libsysbase.a(write.o)
 .data          0x0000000002021e00        0x0 /opt/devkitpro/devkitARM/bin/../lib/gcc/arm-none-eabi/4.9.2/../../../../arm-none-eabi/lib/libsysbase.a(_exit.o)
 .data          0x0000000002021e00        0x0 /opt/devkitpro/devkitARM/bin/../lib/gcc/arm-none-eabi/4.9.2/../../../../arm-none-eabi/lib/libsysbase.a(malloc_vars.o)
 .data          0x0000000002021e00        0x0 /opt/devkitpro/devkitARM/bin/../lib/gcc/arm-none-eabi/4.9.2/../../../../arm-none-eabi/lib/libsysbase.a(flock.o)
 .data          0x0000000002021e00        0x0 /opt/devkitpro/devkitARM/bin/../lib/gcc/arm-none-eabi/4.9.2/../../../../arm-none-eabi/lib/libsysbase.a(syscall_support.o)
 .data          0x0000000002021e00     0x1024 /opt/devkitpro/devkitARM/bin/../lib/gcc/arm-none-eabi/4.9.2/../../../../arm-none-eabi/lib/libsysbase.a(handle_manager.o)
 .data          0x0000000002022e24        0x0 /opt/devkitpro/devkitARM/bin/../lib/gcc/arm-none-eabi/4.9.2/../../../../arm-none-eabi/lib/libsysbase.a(getreent.o)
 .data          0x0000000002022e24       0x44 /opt/devkitpro/devkitARM/bin/../lib/gcc/arm-none-eabi/4.9.2/../../../../arm-none-eabi/lib/libsysbase.a(iosupport.o)
                0x0000000002022e28                devoptab_list
 .data          0x0000000002022e68        0x0 /opt/devkitpro/devkitARM/bin/../lib/gcc/arm-none-eabi/4.9.2/../../../../arm-none-eabi/lib/libc.a(lib_a-errno.o)
 .data          0x0000000002022e68        0x0 /opt/devkitpro/devkitARM/bin/../lib/gcc/arm-none-eabi/4.9.2/crtend.o
 .data          0x0000000002022e68        0x0 /opt/devkitpro/devkitARM/bin/../lib/gcc/arm-none-eabi/4.9.2/crtn.o
                0x0000000002022e68                . = ALIGN (0x4)
                0x0000000002022e68                __data_end = .

.fini_array     0x0000000002022e68        0x4 load address 0x000000000809f6ec
 .fini_array    0x0000000002022e68        0x4 /opt/devkitpro/devkitARM/bin/../lib/gcc/arm-none-eabi/4.9.2/crtbegin.o

.eh_frame       0x0000000002022e6c       0x48 load address 0x000000000809f6f0
 .eh_frame      0x0000000002022e6c        0x0 /opt/devkitpro/devkitARM/bin/../lib/gcc/arm-none-eabi/4.9.2/crtbegin.o
 .eh_frame      0x0000000002022e6c       0x44 /opt/devkitpro/devkitARM/bin/../lib/gcc/arm-none-eabi/4.9.2/../../../../arm-none-eabi/lib/libc.a(lib_a-strcmp.o)
 .eh_frame      0x0000000002022eb0        0x4 /opt/devkitpro/devkitARM/bin/../lib/gcc/arm-none-eabi/4.9.2/crtend.o

.tm_clone_table
                0x0000000002022eb4        0x0 load address 0x000000000809f738
 .tm_clone_table
                0x0000000002022eb4        0x0 /opt/devkitpro/devkitARM/bin/../lib/gcc/arm-none-eabi/4.9.2/crtbegin.o
 .tm_clone_table
                0x0000000002022eb4        0x0 /opt/devkitpro/devkitARM/bin/../lib/gcc/arm-none-eabi/4.9.2/crtend.o

.igot.plt       0x0000000002022eb4        0x0 load address 0x000000000809f738
 .igot.plt      0x0000000002022eb4        0x0 /opt/devkitpro/devkitARM/bin/../lib/gcc/arm-none-eabi/4.9.2/crtbegin.o

.iwram_data     0x0000000003000000      0x1a4 load address 0x000000000809f738
                0x000000000809f738                __iwram_data_load = LOADADDR (.iwram_data)
                0x0000000003000000                __iwram_data_start = .
 *(.iwram_data .iwram_data.*)
 .iwram_data    0x0000000003000000        0x8 objs/active_level_class.thumb.o
                0x0000000003000000                active_level::the_current_level_ptr
                0x0000000003000004                active_level::the_current_active_sublevel_index
 .iwram_data    0x0000000003000008       0x8c objs/block_stuff.thumb.o
                0x0000000003000008                block_stuff_array
 .iwram_data    0x0000000003000094        0x4 objs/button_stuff.thumb.o
                0x0000000003000094                __key_state
 .iwram_data    0x0000000003000098        0x4 objs/debug_vars.thumb.o
                0x0000000003000098                curr_debug_st_result_index
 .iwram_data    0x000000000300009c       0x20 objs/gfx_manager_class.thumb.o
                0x000000000300009c                gfx_manager::bgofs_mirror
 .iwram_data    0x00000000030000bc       0x14 objs/player_sprite_stuff_class.thumb.o
                0x00000000030000bc                player_sprite_stuff::speed
                0x00000000030000c0                player_sprite_stuff::run_toggle
                0x00000000030000c4                player_sprite_stuff::remaining_hp
                0x00000000030000c8                player_sprite_stuff::max_hp
                0x00000000030000cc                player_sprite_stuff::use_16x16
 .iwram_data    0x00000000030000d0       0x94 objs/sprite_manager_class.thumb.o
                0x00000000030000d0                sprite_manager::the_player
                0x0000000003000160                sprite_manager::next_oam_index
 .iwram_data    0x0000000003000164       0x40 objs/sprite_type_stuff.thumb.o
                0x0000000003000164                sprite_stuff_array
                0x0000000003000184                the_door_sprite_stuff
                0x0000000003000188                the_chocolate_muffin_sprite_stuff
                0x000000000300018c                the_ice_muffin_sprite_stuff
                0x0000000003000190                the_fire_muffin_sprite_stuff
                0x0000000003000194                the_muffin_sprite_stuff
                0x0000000003000198                the_waffle_sprite_stuff
                0x000000000300019c                the_player_sprite_stuff
                0x00000000030001a0                the_sprite_base_stuff
                0x00000000030001a4                . = ALIGN (0x4)
                0x00000000030001a4                __iwram_data_end = .

.iwram_code     0x00000000030001a8     0x4de0 load address 0x000000000809f8dc
                0x000000000809f8dc                iwram_code_rom_start = LOADADDR (.iwram_code)
                0x00000000030001a8                iwram_code_iwram_start = .
 *(.iwram_code)
 .iwram_code    0x00000000030001a8      0x468 objs/active_level_manager_class.arm.o
                0x00000000030001a8                active_level_manager::horiz_sublevel_tile_at_basic(unsigned long, unsigned long)
                0x0000000003000288                active_level_manager::horiz_sublevel_tile_at(unsigned long, unsigned long)
                0x00000000030002f8                active_level_manager::correct_bg0_scroll_mirror(vec2<unsigned long> const&)
                0x0000000003000380                active_level_manager::update_sublevel_in_screenblock_mirror_2d()
                0x00000000030005dc                active_level_manager::copy_sublevel_from_array_2d_helper_to_vram()
 .iwram_code    0x0000000003000610       0x10 objs/air_block_stuff_class.thumb.o
                0x0000000003000610                air_block_stuff::get_metatile_number()
                0x0000000003000614                air_block_stuff::get_palette_number()
                0x0000000003000618                air_block_stuff::get_metatile_graphics_slot()
                0x000000000300061c                air_block_stuff::strongly_hit_response(block&, vec2<long> const&)
 .iwram_code    0x0000000003000620       0x14 objs/block_base_stuff_class.thumb.o
                0x0000000003000620                block_base_stuff::get_metatile_number()
                0x0000000003000624                block_base_stuff::get_palette_number()
                0x0000000003000628                block_base_stuff::get_metatile_graphics_slot()
                0x000000000300062c                block_base_stuff::strongly_hit_response(block&, vec2<long> const&)
                0x0000000003000630                block_base_stuff::finish_initializing_using_persistent_data(block&)
 .iwram_code    0x0000000003000634       0xe4 objs/coll_box_class.arm.o
                0x0000000003000634                coll_box_intersects_now(coll_box const&, coll_box const&)
                0x0000000003000694                coll_box_intersects_now_2(coll_box const&, coll_box const&)
 .iwram_code    0x0000000003000718       0x34 objs/coll_box_class.thumb.o
                0x0000000003000718                coll_box::contains(vec2<fixed24p8> const&)
 .iwram_code    0x000000000300074c      0x1cc objs/coll_point_group_class.thumb.o
                0x000000000300074c                generate_coll_point_group_16x16(sprite const&, coll_point_group&)
                0x00000000030007e4                generate_coll_point_group_16x32(sprite const&, coll_point_group&)
                0x0000000003000884                generate_coll_point_group_32x16(sprite const&, coll_point_group&)
 .iwram_code    0x0000000003000918       0x50 objs/debug_vars.thumb.o
                0x0000000003000918                clear_debug_vars()
 .iwram_code    0x0000000003000968       0x34 objs/division_funcs.o
                0x0000000003000968                lut_udiv
 .iwram_code    0x000000000300099c       0x10 objs/dud_block_stuff_class.thumb.o
                0x000000000300099c                dud_block_stuff::get_metatile_number()
                0x00000000030009a0                dud_block_stuff::get_palette_number()
                0x00000000030009a4                dud_block_stuff::get_metatile_graphics_slot()
                0x00000000030009a8                dud_block_stuff::strongly_hit_response(block&, vec2<long> const&)
 .iwram_code    0x00000000030009ac       0x70 objs/exclam_block_stuff_classes.thumb.o
                0x00000000030009ac                exclam_block_stuff::get_metatile_number()
                0x00000000030009b0                exclam_block_stuff::get_palette_number()
                0x00000000030009b4                exclam_block_stuff::get_metatile_graphics_slot()
                0x00000000030009b8                exclam_block_stuff::strongly_hit_response(block&, vec2<long> const&)
                0x00000000030009f8                exclam_block_stuff::finish_initializing_using_persistent_data(block&)
 .iwram_code    0x0000000003000a1c      0x2c8 objs/eyes_block_stuff_classes.thumb.o
                0x0000000003000a1c                eyes_block_stuff::get_metatile_number()
                0x0000000003000a20                eyes_block_stuff::get_palette_number()
                0x0000000003000a24                eyes_block_stuff::get_metatile_graphics_slot()
                0x0000000003000a28                eyes_block_stuff::strongly_hit_response(block&, vec2<long> const&)
                0x0000000003000a68                eyes_block_stuff::finish_initializing_using_persistent_data(block&)
                0x0000000003000a8c                eyes_block_with_st_waffle_stuff::strongly_hit_response(block&, vec2<long> const&)
                0x0000000003000b04                eyes_block_with_st_muffin_stuff::strongly_hit_response(block&, vec2<long> const&)
                0x0000000003000b7c                eyes_block_with_st_fire_muffin_stuff::strongly_hit_response(block&, vec2<long> const&)
                0x0000000003000bf4                eyes_block_with_st_ice_muffin_stuff::strongly_hit_response(block&, vec2<long> const&)
                0x0000000003000c6c                eyes_block_with_st_chocolate_muffin_stuff::strongly_hit_response(block&, vec2<long> const&)
 .iwram_code    0x0000000003000ce4       0x7c objs/fixed_classes.thumb.o
                0x0000000003000ce4                f24p8_div_by_f8p8(fixed24p8 const&, fixed8p8 const&)
                0x0000000003000d38                f24p8_div_by_u16(fixed24p8 const&, unsigned short)
 .iwram_code    0x0000000003000d60       0xf4 objs/game_manager_class.thumb.o
                0x0000000003000d60                game_manager::vblank_func()
 .iwram_code    0x0000000003000e54      0xdec objs/gfx_manager_class.thumb.o
                0x0000000003000e54                gfx_manager::upload_bg_tiles_to_vram()
                0x0000000003000ec0                gfx_manager::upload_sprite_tiles_to_vram(sprite&)
                0x0000000003000f44                gfx_manager::fade_out_to_black(unsigned long, unsigned long)
                0x000000000300129c                gfx_manager::fade_out_to_white(unsigned long, unsigned long)
                0x00000000030016c4                gfx_manager::fade_in(unsigned long, unsigned long)
 .iwram_code    0x0000000003001c40       0x5c objs/hud_manager_class.thumb.o
                0x0000000003001c68                hud_manager::plot_char_8x8_to_screenblock_mirror(unsigned long, unsigned long, unsigned long)
 .iwram_code    0x0000000003001c9c       0x7c objs/interrupt_stuff.arm.o
                0x0000000003001c9c                isr_main()
 .iwram_code    0x0000000003001d18        0x4 objs/interrupt_stuff.thumb.o
                0x0000000003001d18                irq_dummy()
 .iwram_code    0x0000000003001d1c       0x10 objs/log_block_stuff_class.thumb.o
                0x0000000003001d1c                log_block_stuff::get_metatile_number()
                0x0000000003001d20                log_block_stuff::get_palette_number()
                0x0000000003001d24                log_block_stuff::get_metatile_graphics_slot()
                0x0000000003001d28                log_block_stuff::strongly_hit_response(block&, vec2<long> const&)
 .iwram_code    0x0000000003001d2c       0x88 objs/memcpy32_from_tonc.o
                0x0000000003001d2c                memcpy32
                0x0000000003001d64                memfill32
 .iwram_code    0x0000000003001db4       0x24 objs/memory_funcs_8bit.o
                0x0000000003001db4                memcpy8
                0x0000000003001dc8                memfill8
 .iwram_code    0x0000000003001dd8      0x36c objs/player_sprite_stuff_class.thumb.o
                0x0000000003001dd8                player_sprite_stuff::block_coll_response_top_16x16(sprite&, block_coll_result const&, block_coll_result const&, block_coll_result const&)
                0x0000000003001e30                player_sprite_stuff::update_part_2(sprite&, vec2<short>&, vec2<unsigned long> const&)
                0x0000000003002040                player_sprite_stuff::handle_jumping_stuff(sprite&, unsigned long, unsigned long)
                0x0000000003002090                player_sprite_stuff::block_collision_stuff(sprite&)
                0x00000000030020d0                player_sprite_stuff::block_coll_response_top_16x32(sprite&, block_coll_result const&, block_coll_result const&, block_coll_result const&)
 .iwram_code    0x0000000003002144       0x18 objs/ram_funcs1.o
                0x0000000003002144                iwram_test_func
                0x000000000300214c                iwram_test_func2
 .iwram_code    0x000000000300215c     0x20a4 objs/sprite_base_stuff_class.arm.o
                0x000000000300215c                sprite_base_stuff::non_slope_block_coll_response_bot_16x16(sprite&, block_coll_result const&, block_coll_result const&, block_coll_result const&)
                0x00000000030021a0                sprite_base_stuff::block_coll_response_left_16x32(sprite&, block_coll_result const&, block_coll_result const&, block_coll_result const&)
                0x00000000030021c4                sprite_base_stuff::block_coll_response_right_16x32(sprite&, block_coll_result const&, block_coll_result const&, block_coll_result const&)
                0x00000000030021ec                sprite_base_stuff::non_slope_block_coll_response_bot_16x32(sprite&, block_coll_result const&, block_coll_result const&, block_coll_result const&)
                0x0000000003002268                sprite_base_stuff::get_basic_block_coll_results_left_16x16(coll_point_group&, block_coll_result&, block_coll_result&)
                0x0000000003002328                sprite_base_stuff::get_basic_block_coll_results_top_16x16(coll_point_group&, block_coll_result&, block_coll_result&, block_coll_result&)
                0x0000000003002440                sprite_base_stuff::get_basic_block_coll_results_right_16x16(coll_point_group&, block_coll_result&, block_coll_result&)
                0x0000000003002500                sprite_base_stuff::get_basic_block_coll_results_bot_16x16(coll_point_group&, block_coll_result&, block_coll_result&, block_coll_result&)
                0x0000000003002618                sprite_base_stuff::get_basic_block_coll_results_left_16x32(coll_point_group&, block_coll_result&, block_coll_result&, block_coll_result&)
                0x0000000003002730                sprite_base_stuff::get_basic_block_coll_results_top_16x32(coll_point_group&, block_coll_result&, block_coll_result&, block_coll_result&)
                0x0000000003002848                sprite_base_stuff::get_basic_block_coll_results_right_16x32(coll_point_group&, block_coll_result&, block_coll_result&, block_coll_result&)
                0x0000000003002960                sprite_base_stuff::get_basic_block_coll_results_bot_16x32(coll_point_group&, block_coll_result&, block_coll_result&, block_coll_result&)
                0x0000000003002a78                sprite_base_stuff::block_coll_response_left_16x16(sprite&, block_coll_result const&, block_coll_result const&)
                0x0000000003002a9c                sprite_base_stuff::block_coll_response_top_16x16(sprite&, block_coll_result const&, block_coll_result const&, block_coll_result const&)
                0x0000000003002acc                sprite_base_stuff::block_coll_response_right_16x16(sprite&, block_coll_result const&, block_coll_result const&)
                0x0000000003002af4                sprite_base_stuff::slope_block_coll_response_bot_16x16(sprite&, coll_point_group&, block_coll_result&, block_coll_result&, block_coll_result&, bool)
                0x0000000003002afc                sprite_base_stuff::block_coll_response_top_16x32(sprite&, block_coll_result const&, block_coll_result const&, block_coll_result const&)
                0x0000000003002b08                sprite_base_stuff::slope_block_coll_response_bot_16x32(sprite&, coll_point_group&, block_coll_result&, block_coll_result&, block_coll_result&, bool)
                0x0000000003003130                sprite_base_stuff::apply_gravity(sprite&)
                0x0000000003003148                sprite_base_stuff::block_collision_stuff_16x16(sprite&)
                0x0000000003003640                sprite_base_stuff::block_collision_stuff_16x32(sprite&)
                0x00000000030041f8                sprite_base_stuff::block_collision_stuff_32x16(sprite&)
                0x00000000030041fc                sprite_base_stuff::block_collision_stuff_32x32(sprite&)
 .iwram_code    0x0000000003004200       0xdc objs/sprite_base_stuff_class.thumb.o
                0x0000000003004200                sprite_base_stuff::update_part_1(sprite&)
                0x000000000300423c                sprite_base_stuff::update_part_2(sprite&, vec2<short>&, vec2<unsigned long> const&)
                0x0000000003004240                sprite_base_stuff::get_curr_tile_slot(sprite&)
                0x0000000003004248                sprite_base_stuff::get_palette_slot(sprite&)
                0x000000000300424c                sprite_base_stuff::get_curr_relative_tile_slot(sprite&)
                0x0000000003004250                sprite_base_stuff::block_collision_stuff(sprite&)
                0x0000000003004254                sprite_base_stuff::handle_jumping_stuff(sprite&, unsigned long, unsigned long)
                0x0000000003004258                sprite_base_stuff::update_part_2(sprite&, vec2<short> const&, int&)
                0x0000000003004298                sprite_base_stuff::gfx_update(sprite&)
 .iwram_code    0x00000000030042dc      0x1e8 objs/sprite_class.thumb.o
                0x00000000030042dc                sprite::update_on_screen_pos(vec2<short> const&)
                0x000000000300435c                sprite::camera_follow_basic(vec2<short>&)
                0x00000000030043f8                sprite::center_camera_almost(vec2<short>&) const
                0x000000000300441c                sprite::block_collision_stuff()
                0x0000000003004440                sprite::get_shape_size_as_vec2_raw() const
 .iwram_code    0x00000000030044c4      0x584 objs/sprite_manager_class.arm.o
                0x00000000030044c4                sprite_manager::spawn_sprites_if_needed(prev_curr_pair<vec2<short> > const&)
                0x00000000030046e8                sprite_manager::despawn_sprites_if_needed(prev_curr_pair<vec2<short> > const&)
                0x0000000003004744                sprite_manager::spawn_a_sprite_basic(sprite_type, vec2<fixed24p8> const&, vec2<short> const&, bool)
                0x00000000030047e4                sprite_manager::update_all_sprites(vec2<unsigned long> const&, prev_curr_pair<vec2<short> >&)
 .iwram_code    0x0000000003004a48       0xd4 objs/waffle_sprite_stuff_class.thumb.o
                0x0000000003004a48                waffle_sprite_stuff::block_coll_response_left_16x16(sprite&, block_coll_result const&, block_coll_result const&)
                0x0000000003004a6c                waffle_sprite_stuff::block_coll_response_right_16x16(sprite&, block_coll_result const&, block_coll_result const&)
                0x0000000003004a90                waffle_sprite_stuff::update_part_1(sprite&)
 .iwram_code    0x0000000003004b1c      0x39c objs/wood_block_stuff_classes.thumb.o
                0x0000000003004b1c                wood_block_stuff::get_metatile_number()
                0x0000000003004b20                wood_block_stuff::get_palette_number()
                0x0000000003004b24                wood_block_stuff::get_metatile_graphics_slot()
                0x0000000003004b28                wood_block_stuff::strongly_hit_response(block&, vec2<long> const&)
                0x0000000003004b48                wood_block_with_bt_dud_stuff::strongly_hit_response(block&, vec2<long> const&)
                0x0000000003004b88                wood_block_with_bt_dud_stuff::finish_initializing_using_persistent_data(block&)
                0x0000000003004bac                wood_block_with_st_waffle_stuff::finish_initializing_using_persistent_data(block&)
                0x0000000003004bd0                wood_block_with_st_muffin_stuff::finish_initializing_using_persistent_data(block&)
                0x0000000003004bf4                wood_block_with_st_fire_muffin_stuff::finish_initializing_using_persistent_data(block&)
                0x0000000003004c18                wood_block_with_st_ice_muffin_stuff::finish_initializing_using_persistent_data(block&)
                0x0000000003004c3c                wood_block_with_st_chocolate_muffin_stuff::finish_initializing_using_persistent_data(block&)
                0x0000000003004c60                wood_block_with_st_waffle_stuff::strongly_hit_response(block&, vec2<long> const&)
                0x0000000003004cd8                wood_block_with_st_muffin_stuff::strongly_hit_response(block&, vec2<long> const&)
                0x0000000003004d50                wood_block_with_st_fire_muffin_stuff::strongly_hit_response(block&, vec2<long> const&)
                0x0000000003004dc8                wood_block_with_st_ice_muffin_stuff::strongly_hit_response(block&, vec2<long> const&)
                0x0000000003004e40                wood_block_with_st_chocolate_muffin_stuff::strongly_hit_response(block&, vec2<long> const&)
 .iwram_code.__stub
                0x0000000003004eb8       0xc0 linker stubs
                0x0000000003004f78                . = ALIGN (0x4)
                0x0000000000004de0                iwram_code_size = SIZEOF (.iwram_code)

.maxmod_code    0x0000000003004f88     0x13dc load address 0x00000000080a46bc
                0x0000000003004f88                . = ALIGN (0x4)
                0x00000000080a46bc                maxmod_code_rom_start = LOADADDR (.maxmod_code)
                0x0000000003004f88                maxmod_code_iwram_start = .
 *(.iwram)
 .iwram         0x0000000003004f88        0x8 ./maxmod/lib/libmm.a(mm_main.o)
                0x0000000003004f88                mpp_call_r7i
                0x0000000003004f8a                mpp_call_r2i
                0x0000000003004f8c                mpp_call_r1i
 .iwram         0x0000000003004f90      0x554 ./maxmod/lib/libmm.a(mm_mas.o)
                0x0000000003004f90                mppProcessTick
                0x0000000003005074                mpp_Channel_NewNote
                0x0000000003005154                mpp_Update_ACHN_notest
 .iwram         0x00000000030054e4      0x838 ./maxmod/lib/libmm.a(mm_mixer_gba.o)
                0x00000000030054e8                mmVBlank
                0x000000000300556c                mmMixerMix
 .iwram         0x0000000003005d1c      0x648 ./maxmod/lib/libmm.a(mm_mas_arm.o)
                0x0000000003005d1c                mmAllocChannel
                0x0000000003005d90                mmReadPattern
                0x0000000003005e7c                mmUpdateChannel_T0
                0x00000000030060bc                mmUpdateChannel_TN
                0x000000000300625c                mmGetPeriod
                0x00000000030062a0                note_table_oct
                0x00000000030062be                note_table_mod
                0x0000000003006364                maxmod_code_iwram_end = .
                0x0000000003006364                . = ALIGN (0x4)
                0x00000000000013dc                maxmod_code_size = SIZEOF (.maxmod_code)

.iwram_bss      0x0000000003006364        0x0 load address 0x00000000080a5a98
 *(.iwram_bss)
                0x0000000003006364                . = ALIGN (0x4)

.ewram_code     0x0000000002022eb4        0xc load address 0x00000000080a5a98
                0x00000000080a5a98                ewram_code_rom_start = LOADADDR (.ewram_code)
                0x0000000002022eb4                ewram_code_ewram_start = .
 *(.ewram_code)
 .ewram_code    0x0000000002022eb4        0xc objs/ram_funcs1.o
                0x0000000002022eb4                ewram_test_func
                0x0000000002022ec0                . = ALIGN (0x4)
                0x000000000000000c                ewram_code_size = SIZEOF (.ewram_code)

.rel.dyn        0x0000000002022ec0        0x0 load address 0x00000000080a5aa4
 .rel.iplt      0x0000000002022ec0        0x0 /opt/devkitpro/devkitARM/bin/../lib/gcc/arm-none-eabi/4.9.2/crtbegin.o

.bss            0x0000000002022ec0     0x2f50 load address 0x00000000080a5aa4
                0x0000000002022ec0                __bss_start__ = .
 *(.bss .bss.* .gnu.linkonce.b.*)
 .bss           0x0000000002022ec0        0x0 /opt/devkitpro/devkitARM/bin/../lib/gcc/arm-none-eabi/4.9.2/crti.o
 .bss           0x0000000002022ec0       0x1c /opt/devkitpro/devkitARM/bin/../lib/gcc/arm-none-eabi/4.9.2/crtbegin.o
 .bss           0x0000000002022edc        0x0 /opt/devkitpro/devkitARM/bin/../lib/gcc/arm-none-eabi/4.9.2/../../../../arm-none-eabi/lib/crt0.o
 .bss           0x0000000002022edc       0x30 objs/active_level_class.thumb.o
                0x0000000002022edc                active_level::horiz_sublevel_block_data_2d
                0x0000000002022eec                active_level::bg0_screenblock_2d
                0x0000000002022efc                active_level::bg0_screenblock_mirror_2d
 .bss           0x0000000002022f0c        0x0 objs/active_level_manager_class.arm.o
 .bss           0x0000000002022f0c      0x230 objs/active_level_manager_class.thumb.o
                0x0000000002022f0c                active_level_manager::converted_block_tile_ids_3
                0x0000000002022f98                active_level_manager::converted_block_tile_ids_2
                0x0000000002023024                active_level_manager::converted_block_tile_ids_1
                0x00000000020230b0                active_level_manager::converted_block_tile_ids_0
 .bss           0x000000000202313c        0x0 objs/air_block_stuff_class.thumb.o
 .bss           0x000000000202313c        0x0 objs/block_base_stuff_class.thumb.o
 .bss           0x000000000202313c        0x0 objs/block_stuff.thumb.o
 .bss           0x000000000202313c        0x0 objs/button_stuff.thumb.o
 .bss           0x000000000202313c        0x0 objs/coll_box_class.arm.o
 .bss           0x000000000202313c        0x0 objs/coll_box_class.thumb.o
 .bss           0x000000000202313c        0x0 objs/coll_point_group_class.thumb.o
 .bss           0x000000000202313c        0x0 objs/crt0.o
 .bss           0x000000000202313c      0x1d0 objs/debug_vars.thumb.o
                0x000000000202313c                curr_debug_s32_index
                0x0000000002023140                curr_debug_u32_index
                0x0000000002023144                curr_debug_f24p8_index
                0x0000000002023148                debug_arr_s32
                0x00000000020231c8                debug_arr_u32
                0x0000000002023248                debug_arr_f24p8
                0x00000000020232c8                debug_arr_f8p8
                0x0000000002023308                curr_debug_f8p8_index
 .bss           0x000000000202330c        0x0 objs/division_funcs.o
 .bss           0x000000000202330c       0x10 objs/dma_stuff.thumb.o
                0x000000000202330c                dma3cnt_mirror
                0x0000000002023310                dma0cnt_mirror
                0x0000000002023314                dma2cnt_mirror
                0x0000000002023318                dma1cnt_mirror
 .bss           0x000000000202331c        0x0 objs/door_sprite_stuff_class.thumb.o
 .bss           0x000000000202331c        0x0 objs/dud_block_stuff_class.thumb.o
 .bss           0x000000000202331c        0x0 objs/exclam_block_stuff_classes.thumb.o
 .bss           0x000000000202331c        0x0 objs/eyes_block_stuff_classes.thumb.o
 .bss           0x000000000202331c        0x0 objs/fixed_classes.thumb.o
 .bss           0x000000000202331c        0x8 objs/game_manager_class.thumb.o
                0x000000000202331c                game_manager::curr_game_mode
                0x0000000002023320                game_manager::test_int_global
 .bss           0x0000000002023324        0x0 objs/gfx_manager_class.thumb.o
 .bss           0x0000000002023324        0x0 objs/gfx_reg_stuff.arm.o
 .bss           0x0000000002023324        0x0 objs/grass_and_dirt_block_stuff_classes.thumb.o
 .bss           0x0000000002023324       0x20 objs/hud_manager_class.thumb.o
                0x0000000002023324                hud_manager::bg1_screenblock_mirror_2d
                0x0000000002023334                hud_manager::bg1_screenblock_2d
 .bss           0x0000000002023344        0x0 objs/interrupt_stuff.arm.o
 .bss           0x0000000002023344       0x38 objs/interrupt_stuff.thumb.o
                0x0000000002023344                isr_table
 .bss           0x000000000202337c        0x0 objs/level_class.thumb.o
 .bss           0x000000000202337c        0x0 objs/log_block_stuff_class.thumb.o
 .bss           0x000000000202337c        0x0 objs/main.thumb.o
 .bss           0x000000000202337c        0x0 objs/memcpy32_from_tonc.o
 .bss           0x000000000202337c        0x0 objs/memory_funcs_8bit.o
 .bss           0x000000000202337c        0x0 objs/muffin_sprite_stuff_classes.thumb.o
 .bss           0x000000000202337c      0x400 objs/oam_entry_classes.thumb.o
                0x000000000202337c                oam_mirror
 .bss           0x000000000202377c        0x0 objs/player_sprite_stuff_class.thumb.o
 .bss           0x000000000202377c        0x0 objs/practice_17.bin.o
 .bss           0x000000000202377c        0x0 objs/ram_funcs1.o
 .bss           0x000000000202377c        0x0 objs/sherwin_gfx.o
 .bss           0x000000000202377c        0x0 objs/sprite_base_stuff_class.arm.o
 .bss           0x000000000202377c        0x0 objs/sprite_base_stuff_class.thumb.o
 .bss           0x000000000202377c        0x0 objs/sprite_class.thumb.o
 .bss           0x000000000202377c        0x0 objs/sprite_manager_class.arm.o
 .bss           0x000000000202377c     0x10e0 objs/sprite_manager_class.thumb.o
                0x000000000202377c                sprite_manager::the_sprites
 .bss           0x000000000202485c        0x0 objs/sprite_type_stuff.thumb.o
 .bss           0x000000000202485c        0x0 objs/sublevel_class.thumb.o
 .bss           0x000000000202485c      0x104 objs/test_level.thumb.o
                0x000000000202485c                test_level
 .bss           0x0000000002024960        0x0 objs/text_8x16_gfx.o
 .bss           0x0000000002024960        0x0 objs/text_8x8_thick_gfx.o
 .bss           0x0000000002024960        0x0 objs/text_8x8_thin_gfx.o
 .bss           0x0000000002024960        0x0 objs/the_block_gfx.o
 .bss           0x0000000002024960        0x0 objs/the_door_gfx.o
 .bss           0x0000000002024960        0x0 objs/the_golem_enemy_gfx.o
 .bss           0x0000000002024960        0x0 objs/the_powerup_gfx.o
 .bss           0x0000000002024960        0x0 objs/title_screen.o
 .bss           0x0000000002024960        0x0 objs/waffle_sprite_stuff_class.arm.o
 .bss           0x0000000002024960        0x0 objs/waffle_sprite_stuff_class.thumb.o
 .bss           0x0000000002024960        0x0 objs/wood_block_stuff_classes.thumb.o
 .bss           0x0000000002024960        0x0 /opt/devkitpro/devkitARM/bin/../lib/gcc/arm-none-eabi/4.9.2/libgcc.a(_divsi3.o)
 .bss           0x0000000002024960        0x0 /opt/devkitpro/devkitARM/bin/../lib/gcc/arm-none-eabi/4.9.2/libgcc.a(_dvmd_tls.o)
 .bss           0x0000000002024960        0x0 /opt/devkitpro/devkitARM/bin/../lib/gcc/arm-none-eabi/4.9.2/libgcc.a(unwind-arm.o)
 .bss           0x0000000002024960        0x0 /opt/devkitpro/devkitARM/bin/../lib/gcc/arm-none-eabi/4.9.2/libgcc.a(libunwind.o)
 .bss           0x0000000002024960        0x0 /opt/devkitpro/devkitARM/bin/../lib/gcc/arm-none-eabi/4.9.2/libgcc.a(pr-support.o)
 .bss           0x0000000002024960        0x0 /opt/devkitpro/devkitARM/bin/../lib/gcc/arm-none-eabi/4.9.2/../../../../arm-none-eabi/lib/libstdc++.a(eh_arm.o)
 .bss           0x0000000002024960        0x0 /opt/devkitpro/devkitARM/bin/../lib/gcc/arm-none-eabi/4.9.2/../../../../arm-none-eabi/lib/libstdc++.a(eh_globals.o)
 .bss._ZL10eh_globals
                0x0000000002024960        0xc /opt/devkitpro/devkitARM/bin/../lib/gcc/arm-none-eabi/4.9.2/../../../../arm-none-eabi/lib/libstdc++.a(eh_globals.o)
 .bss           0x000000000202496c        0x0 /opt/devkitpro/devkitARM/bin/../lib/gcc/arm-none-eabi/4.9.2/../../../../arm-none-eabi/lib/libstdc++.a(atexit_arm.o)
 .bss           0x000000000202496c        0x0 /opt/devkitpro/devkitARM/bin/../lib/gcc/arm-none-eabi/4.9.2/../../../../arm-none-eabi/lib/libstdc++.a(del_op.o)
 .bss           0x000000000202496c        0x0 /opt/devkitpro/devkitARM/bin/../lib/gcc/arm-none-eabi/4.9.2/../../../../arm-none-eabi/lib/libstdc++.a(si_class_type_info.o)
 .bss           0x000000000202496c        0x0 /opt/devkitpro/devkitARM/bin/../lib/gcc/arm-none-eabi/4.9.2/../../../../arm-none-eabi/lib/libstdc++.a(eh_exception.o)
 .bss           0x000000000202496c        0x0 /opt/devkitpro/devkitARM/bin/../lib/gcc/arm-none-eabi/4.9.2/../../../../arm-none-eabi/lib/libstdc++.a(eh_terminate.o)
 .bss           0x000000000202496c        0x0 /opt/devkitpro/devkitARM/bin/../lib/gcc/arm-none-eabi/4.9.2/../../../../arm-none-eabi/lib/libstdc++.a(tinfo.o)
 .bss           0x000000000202496c        0x0 /opt/devkitpro/devkitARM/bin/../lib/gcc/arm-none-eabi/4.9.2/../../../../arm-none-eabi/lib/libstdc++.a(eh_call.o)
 .bss           0x000000000202496c        0x0 /opt/devkitpro/devkitARM/bin/../lib/gcc/arm-none-eabi/4.9.2/../../../../arm-none-eabi/lib/libstdc++.a(new_op.o)
 .bss           0x000000000202496c        0x0 /opt/devkitpro/devkitARM/bin/../lib/gcc/arm-none-eabi/4.9.2/../../../../arm-none-eabi/lib/libstdc++.a(new_handler.o)
 .bss._ZN12_GLOBAL__N_113__new_handlerE
                0x000000000202496c        0x4 /opt/devkitpro/devkitARM/bin/../lib/gcc/arm-none-eabi/4.9.2/../../../../arm-none-eabi/lib/libstdc++.a(new_handler.o)
 .bss           0x0000000002024970        0x0 /opt/devkitpro/devkitARM/bin/../lib/gcc/arm-none-eabi/4.9.2/../../../../arm-none-eabi/lib/libstdc++.a(eh_term_handler.o)
 .bss           0x0000000002024970        0x0 /opt/devkitpro/devkitARM/bin/../lib/gcc/arm-none-eabi/4.9.2/../../../../arm-none-eabi/lib/libstdc++.a(eh_personality.o)
 .bss           0x0000000002024970        0x0 /opt/devkitpro/devkitARM/bin/../lib/gcc/arm-none-eabi/4.9.2/../../../../arm-none-eabi/lib/libstdc++.a(class_type_info.o)
 .bss           0x0000000002024970        0x0 /opt/devkitpro/devkitARM/bin/../lib/gcc/arm-none-eabi/4.9.2/../../../../arm-none-eabi/lib/libstdc++.a(bad_alloc.o)
 .bss           0x0000000002024970        0x0 /opt/devkitpro/devkitARM/bin/../lib/gcc/arm-none-eabi/4.9.2/../../../../arm-none-eabi/lib/libstdc++.a(eh_throw.o)
 .bss           0x0000000002024970        0x0 /opt/devkitpro/devkitARM/bin/../lib/gcc/arm-none-eabi/4.9.2/../../../../arm-none-eabi/lib/libstdc++.a(vterminate.o)
 .bss._ZZN9__gnu_cxx27__verbose_terminate_handlerEvE11terminating
                0x0000000002024970        0x1 /opt/devkitpro/devkitARM/bin/../lib/gcc/arm-none-eabi/4.9.2/../../../../arm-none-eabi/lib/libstdc++.a(vterminate.o)
 .bss           0x0000000002024971        0x0 /opt/devkitpro/devkitARM/bin/../lib/gcc/arm-none-eabi/4.9.2/../../../../arm-none-eabi/lib/libstdc++.a(eh_catch.o)
 .bss           0x0000000002024971        0x0 /opt/devkitpro/devkitARM/bin/../lib/gcc/arm-none-eabi/4.9.2/../../../../arm-none-eabi/lib/libstdc++.a(cp-demangle.o)
 .bss           0x0000000002024971        0x0 /opt/devkitpro/devkitARM/bin/../lib/gcc/arm-none-eabi/4.9.2/../../../../arm-none-eabi/lib/libstdc++.a(pure.o)
 .bss           0x0000000002024971        0x0 /opt/devkitpro/devkitARM/bin/../lib/gcc/arm-none-eabi/4.9.2/../../../../arm-none-eabi/lib/libstdc++.a(eh_type.o)
 .bss           0x0000000002024971        0x0 /opt/devkitpro/devkitARM/bin/../lib/gcc/arm-none-eabi/4.9.2/../../../../arm-none-eabi/lib/libstdc++.a(eh_alloc.o)
 *fill*         0x0000000002024971        0x3 
 .bss._ZL15dependents_used
                0x0000000002024974        0x4 /opt/devkitpro/devkitARM/bin/../lib/gcc/arm-none-eabi/4.9.2/../../../../arm-none-eabi/lib/libstdc++.a(eh_alloc.o)
 .bss._ZL17dependents_buffer
                0x0000000002024978      0x1e0 /opt/devkitpro/devkitARM/bin/../lib/gcc/arm-none-eabi/4.9.2/../../../../arm-none-eabi/lib/libstdc++.a(eh_alloc.o)
 .bss._ZL14emergency_used
                0x0000000002024b58        0x4 /opt/devkitpro/devkitARM/bin/../lib/gcc/arm-none-eabi/4.9.2/../../../../arm-none-eabi/lib/libstdc++.a(eh_alloc.o)
 *fill*         0x0000000002024b5c        0x4 
 .bss._ZL16emergency_buffer
                0x0000000002024b60      0x800 /opt/devkitpro/devkitARM/bin/../lib/gcc/arm-none-eabi/4.9.2/../../../../arm-none-eabi/lib/libstdc++.a(eh_alloc.o)
 .bss           0x0000000002025360        0x0 /opt/devkitpro/devkitARM/bin/../lib/gcc/arm-none-eabi/4.9.2/../../../../arm-none-eabi/lib/libstdc++.a(eh_unex_handler.o)
 .bss           0x0000000002025360       0x20 ./maxmod/lib/libmm.a(mm_main.o)
                0x0000000002025360                mmCallback
                0x0000000002025364                mmModuleCount
                0x0000000002025368                mmModuleBank
                0x000000000202536c                mmSampleBank
                0x0000000002025370                mm_ch_mask
                0x0000000002025374                mm_vblank_function
                0x0000000002025378                mmInitialized
                0x000000000202537c                mp_solution
 .bss           0x0000000002025380      0x148 ./maxmod/lib/libmm.a(mm_mas.o)
                0x0000000002025380                mmLayerMain
                0x00000000020253b8                mmLayerSub
                0x00000000020253f0                mpp_vars
                0x0000000002025400                mpp_layerp
                0x0000000002025404                mpp_channels
                0x0000000002025414                mpp_nchannels
                0x0000000002025415                mpp_clayer
                0x0000000002025418                mm_achannels
                0x000000000202541c                mm_pchannels
                0x0000000002025420                mm_num_mch
                0x0000000002025424                mm_num_ach
                0x0000000002025428                mm_schannels
 .bss           0x00000000020254c8      0x420 ./maxmod/lib/libmm.a(mm_init_default.o)
 .bss           0x00000000020258e8      0x1bc ./maxmod/lib/libmm.a(mm_mixer_gba.o)
                0x00000000020258e8                mp_writepos
                0x00000000020258f0                mm_mixchannels
                0x00000000020258f8                mm_mixlen
                0x000000000202590c                mm_bpmdv
                0x0000000002025910                mp_mix_seg
 .bss           0x0000000002025aa4       0x30 ./maxmod/lib/libmm.a(mm_effect.o)
                0x0000000002025ac8                mm_sfx_bitmask
                0x0000000002025acc                mm_sfx_clearmask
 .bss           0x0000000002025ad4        0x0 ./maxmod/lib/libmm.a(mm_mas_arm.o)
 .bss           0x0000000002025ad4        0x0 /opt/devkitpro/devkitARM/bin/../lib/gcc/arm-none-eabi/4.9.2/../../../../arm-none-eabi/lib/libc.a(lib_a-abort.o)
 .bss           0x0000000002025ad4        0x0 /opt/devkitpro/devkitARM/bin/../lib/gcc/arm-none-eabi/4.9.2/../../../../arm-none-eabi/lib/libc.a(lib_a-atexit.o)
 .bss           0x0000000002025ad4        0x0 /opt/devkitpro/devkitARM/bin/../lib/gcc/arm-none-eabi/4.9.2/../../../../arm-none-eabi/lib/libc.a(lib_a-cxa_atexit.o)
 .bss           0x0000000002025ad4        0x0 /opt/devkitpro/devkitARM/bin/../lib/gcc/arm-none-eabi/4.9.2/../../../../arm-none-eabi/lib/libc.a(lib_a-exit.o)
 .bss           0x0000000002025ad4        0x0 /opt/devkitpro/devkitARM/bin/../lib/gcc/arm-none-eabi/4.9.2/../../../../arm-none-eabi/lib/libc.a(lib_a-fini.o)
 .bss           0x0000000002025ad4        0x0 /opt/devkitpro/devkitARM/bin/../lib/gcc/arm-none-eabi/4.9.2/../../../../arm-none-eabi/lib/libc.a(lib_a-fputc.o)
 .bss           0x0000000002025ad4        0x0 /opt/devkitpro/devkitARM/bin/../lib/gcc/arm-none-eabi/4.9.2/../../../../arm-none-eabi/lib/libc.a(lib_a-fputs.o)
 .bss           0x0000000002025ad4        0x0 /opt/devkitpro/devkitARM/bin/../lib/gcc/arm-none-eabi/4.9.2/../../../../arm-none-eabi/lib/libc.a(lib_a-fvwrite.o)
 .bss           0x0000000002025ad4        0x0 /opt/devkitpro/devkitARM/bin/../lib/gcc/arm-none-eabi/4.9.2/../../../../arm-none-eabi/lib/libc.a(lib_a-fwrite.o)
 .bss           0x0000000002025ad4        0x0 /opt/devkitpro/devkitARM/bin/../lib/gcc/arm-none-eabi/4.9.2/../../../../arm-none-eabi/lib/libc.a(lib_a-impure.o)
 .bss           0x0000000002025ad4        0x0 /opt/devkitpro/devkitARM/bin/../lib/gcc/arm-none-eabi/4.9.2/../../../../arm-none-eabi/lib/libc.a(lib_a-init.o)
 .bss           0x0000000002025ad4        0x0 /opt/devkitpro/devkitARM/bin/../lib/gcc/arm-none-eabi/4.9.2/../../../../arm-none-eabi/lib/libc.a(lib_a-malloc.o)
 .bss           0x0000000002025ad4        0x0 /opt/devkitpro/devkitARM/bin/../lib/gcc/arm-none-eabi/4.9.2/../../../../arm-none-eabi/lib/libc.a(lib_a-mallocr.o)
 .bss.__malloc_max_total_mem
                0x0000000002025ad4        0x4 /opt/devkitpro/devkitARM/bin/../lib/gcc/arm-none-eabi/4.9.2/../../../../arm-none-eabi/lib/libc.a(lib_a-mallocr.o)
                0x0000000002025ad4                __malloc_max_total_mem
 .bss.__malloc_max_sbrked_mem
                0x0000000002025ad8        0x4 /opt/devkitpro/devkitARM/bin/../lib/gcc/arm-none-eabi/4.9.2/../../../../arm-none-eabi/lib/libc.a(lib_a-mallocr.o)
                0x0000000002025ad8                __malloc_max_sbrked_mem
 .bss.__malloc_top_pad
                0x0000000002025adc        0x4 /opt/devkitpro/devkitARM/bin/../lib/gcc/arm-none-eabi/4.9.2/../../../../arm-none-eabi/lib/libc.a(lib_a-mallocr.o)
                0x0000000002025adc                __malloc_top_pad
 .bss.__malloc_current_mallinfo
                0x0000000002025ae0       0x28 /opt/devkitpro/devkitARM/bin/../lib/gcc/arm-none-eabi/4.9.2/../../../../arm-none-eabi/lib/libc.a(lib_a-mallocr.o)
                0x0000000002025ae0                __malloc_current_mallinfo
 .bss           0x0000000002025b08        0x0 /opt/devkitpro/devkitARM/bin/../lib/gcc/arm-none-eabi/4.9.2/../../../../arm-none-eabi/lib/libc.a(lib_a-memchr.o)
 .bss           0x0000000002025b08        0x0 /opt/devkitpro/devkitARM/bin/../lib/gcc/arm-none-eabi/4.9.2/../../../../arm-none-eabi/lib/libc.a(lib_a-memcmp.o)
 .bss           0x0000000002025b08        0x0 /opt/devkitpro/devkitARM/bin/../lib/gcc/arm-none-eabi/4.9.2/../../../../arm-none-eabi/lib/libc.a(lib_a-memcpy.o)
 .bss           0x0000000002025b08        0x0 /opt/devkitpro/devkitARM/bin/../lib/gcc/arm-none-eabi/4.9.2/../../../../arm-none-eabi/lib/libc.a(lib_a-memmove.o)
 .bss           0x0000000002025b08        0x0 /opt/devkitpro/devkitARM/bin/../lib/gcc/arm-none-eabi/4.9.2/../../../../arm-none-eabi/lib/libc.a(lib_a-memset.o)
 .bss           0x0000000002025b08        0x0 /opt/devkitpro/devkitARM/bin/../lib/gcc/arm-none-eabi/4.9.2/../../../../arm-none-eabi/lib/libc.a(lib_a-mlock.o)
 .bss           0x0000000002025b08        0x0 /opt/devkitpro/devkitARM/bin/../lib/gcc/arm-none-eabi/4.9.2/../../../../arm-none-eabi/lib/libc.a(lib_a-putc.o)
 .bss           0x0000000002025b08        0x0 /opt/devkitpro/devkitARM/bin/../lib/gcc/arm-none-eabi/4.9.2/../../../../arm-none-eabi/lib/libc.a(lib_a-realloc.o)
 .bss           0x0000000002025b08        0x0 /opt/devkitpro/devkitARM/bin/../lib/gcc/arm-none-eabi/4.9.2/../../../../arm-none-eabi/lib/libc.a(lib_a-reallocr.o)
 .bss           0x0000000002025b08        0x0 /opt/devkitpro/devkitARM/bin/../lib/gcc/arm-none-eabi/4.9.2/../../../../arm-none-eabi/lib/libc.a(lib_a-signal.o)
 .bss           0x0000000002025b08        0x0 /opt/devkitpro/devkitARM/bin/../lib/gcc/arm-none-eabi/4.9.2/../../../../arm-none-eabi/lib/libc.a(lib_a-sprintf.o)
 .bss           0x0000000002025b08        0x0 /opt/devkitpro/devkitARM/bin/../lib/gcc/arm-none-eabi/4.9.2/../../../../arm-none-eabi/lib/libc.a(lib_a-strcat.o)
 .bss           0x0000000002025b08        0x0 /opt/devkitpro/devkitARM/bin/../lib/gcc/arm-none-eabi/4.9.2/../../../../arm-none-eabi/lib/libc.a(lib_a-strcmp.o)
 .bss           0x0000000002025b08        0x0 /opt/devkitpro/devkitARM/bin/../lib/gcc/arm-none-eabi/4.9.2/../../../../arm-none-eabi/lib/libc.a(lib_a-strcpy.o)
 .bss           0x0000000002025b08        0x0 /opt/devkitpro/devkitARM/bin/../lib/gcc/arm-none-eabi/4.9.2/../../../../arm-none-eabi/lib/libc.a(lib_a-strlen.o)
 .bss           0x0000000002025b08        0x0 /opt/devkitpro/devkitARM/bin/../lib/gcc/arm-none-eabi/4.9.2/../../../../arm-none-eabi/lib/libc.a(lib_a-strncmp.o)
 .bss           0x0000000002025b08        0x0 /opt/devkitpro/devkitARM/bin/../lib/gcc/arm-none-eabi/4.9.2/../../../../arm-none-eabi/lib/libc.a(lib_a-svfprintf.o)
 .bss           0x0000000002025b08        0x0 /opt/devkitpro/devkitARM/bin/../lib/gcc/arm-none-eabi/4.9.2/../../../../arm-none-eabi/lib/libc.a(lib_a-syswrite.o)
 .bss           0x0000000002025b08        0x0 /opt/devkitpro/devkitARM/bin/../lib/gcc/arm-none-eabi/4.9.2/../../../../arm-none-eabi/lib/libc.a(lib_a-wbuf.o)
 .bss           0x0000000002025b08        0x0 /opt/devkitpro/devkitARM/bin/../lib/gcc/arm-none-eabi/4.9.2/../../../../arm-none-eabi/lib/libc.a(lib_a-wcrtomb.o)
 .bss           0x0000000002025b08        0x0 /opt/devkitpro/devkitARM/bin/../lib/gcc/arm-none-eabi/4.9.2/../../../../arm-none-eabi/lib/libc.a(lib_a-wcsrtombs.o)
 .bss           0x0000000002025b08        0x0 /opt/devkitpro/devkitARM/bin/../lib/gcc/arm-none-eabi/4.9.2/../../../../arm-none-eabi/lib/libc.a(lib_a-wctomb_r.o)
 .bss           0x0000000002025b08        0x0 /opt/devkitpro/devkitARM/bin/../lib/gcc/arm-none-eabi/4.9.2/../../../../arm-none-eabi/lib/libc.a(lib_a-wsetup.o)
 .bss           0x0000000002025b08        0x0 /opt/devkitpro/devkitARM/bin/../lib/gcc/arm-none-eabi/4.9.2/../../../../arm-none-eabi/lib/libc.a(lib_a-__atexit.o)
 .bss           0x0000000002025b08        0x0 /opt/devkitpro/devkitARM/bin/../lib/gcc/arm-none-eabi/4.9.2/../../../../arm-none-eabi/lib/libc.a(lib_a-__call_atexit.o)
 .bss           0x0000000002025b08        0x0 /opt/devkitpro/devkitARM/bin/../lib/gcc/arm-none-eabi/4.9.2/../../../../arm-none-eabi/lib/libc.a(lib_a-dtoa.o)
 .bss           0x0000000002025b08        0x0 /opt/devkitpro/devkitARM/bin/../lib/gcc/arm-none-eabi/4.9.2/../../../../arm-none-eabi/lib/libc.a(lib_a-fflush.o)
 .bss           0x0000000002025b08        0x0 /opt/devkitpro/devkitARM/bin/../lib/gcc/arm-none-eabi/4.9.2/../../../../arm-none-eabi/lib/libc.a(lib_a-findfp.o)
 .bss           0x0000000002025b08        0x0 /opt/devkitpro/devkitARM/bin/../lib/gcc/arm-none-eabi/4.9.2/../../../../arm-none-eabi/lib/libc.a(lib_a-freer.o)
 .bss           0x0000000002025b08        0x0 /opt/devkitpro/devkitARM/bin/../lib/gcc/arm-none-eabi/4.9.2/../../../../arm-none-eabi/lib/libc.a(lib_a-fwalk.o)
 .bss           0x0000000002025b08        0x0 /opt/devkitpro/devkitARM/bin/../lib/gcc/arm-none-eabi/4.9.2/../../../../arm-none-eabi/lib/libc.a(lib_a-locale.o)
 .bss._PathLocale
                0x0000000002025b08        0x4 /opt/devkitpro/devkitARM/bin/../lib/gcc/arm-none-eabi/4.9.2/../../../../arm-none-eabi/lib/libc.a(lib_a-locale.o)
                0x0000000002025b08                _PathLocale
 .bss.__nlocale_changed
                0x0000000002025b0c        0x4 /opt/devkitpro/devkitARM/bin/../lib/gcc/arm-none-eabi/4.9.2/../../../../arm-none-eabi/lib/libc.a(lib_a-locale.o)
                0x0000000002025b0c                __nlocale_changed
 .bss.__mlocale_changed
                0x0000000002025b10        0x4 /opt/devkitpro/devkitARM/bin/../lib/gcc/arm-none-eabi/4.9.2/../../../../arm-none-eabi/lib/libc.a(lib_a-locale.o)
                0x0000000002025b10                __mlocale_changed
 .bss.lc_ctype_cjk_lang
                0x0000000002025b14        0x4 /opt/devkitpro/devkitARM/bin/../lib/gcc/arm-none-eabi/4.9.2/../../../../arm-none-eabi/lib/libc.a(lib_a-locale.o)
 .bss.new_categories
                0x0000000002025b18       0xe0 /opt/devkitpro/devkitARM/bin/../lib/gcc/arm-none-eabi/4.9.2/../../../../arm-none-eabi/lib/libc.a(lib_a-locale.o)
 .bss.current_locale_string
                0x0000000002025bf8       0xe8 /opt/devkitpro/devkitARM/bin/../lib/gcc/arm-none-eabi/4.9.2/../../../../arm-none-eabi/lib/libc.a(lib_a-locale.o)
 .bss.saved_categories
                0x0000000002025ce0       0xe0 /opt/devkitpro/devkitARM/bin/../lib/gcc/arm-none-eabi/4.9.2/../../../../arm-none-eabi/lib/libc.a(lib_a-locale.o)
 .bss           0x0000000002025dc0        0x0 /opt/devkitpro/devkitARM/bin/../lib/gcc/arm-none-eabi/4.9.2/../../../../arm-none-eabi/lib/libc.a(lib_a-makebuf.o)
 .bss           0x0000000002025dc0        0x0 /opt/devkitpro/devkitARM/bin/../lib/gcc/arm-none-eabi/4.9.2/../../../../arm-none-eabi/lib/libc.a(lib_a-mbtowc_r.o)
 .bss           0x0000000002025dc0        0x0 /opt/devkitpro/devkitARM/bin/../lib/gcc/arm-none-eabi/4.9.2/../../../../arm-none-eabi/lib/libc.a(lib_a-mprec.o)
 .bss           0x0000000002025dc0        0x0 /opt/devkitpro/devkitARM/bin/../lib/gcc/arm-none-eabi/4.9.2/../../../../arm-none-eabi/lib/libc.a(lib_a-s_fpclassify.o)
 .bss           0x0000000002025dc0        0x0 /opt/devkitpro/devkitARM/bin/../lib/gcc/arm-none-eabi/4.9.2/../../../../arm-none-eabi/lib/libc.a(lib_a-s_frexp.o)
 .bss           0x0000000002025dc0        0x0 /opt/devkitpro/devkitARM/bin/../lib/gcc/arm-none-eabi/4.9.2/../../../../arm-none-eabi/lib/libc.a(lib_a-stdio.o)
 .bss           0x0000000002025dc0        0x0 /opt/devkitpro/devkitARM/bin/../lib/gcc/arm-none-eabi/4.9.2/../../../../arm-none-eabi/lib/libc.a(lib_a-strcasecmp.o)
 .bss           0x0000000002025dc0        0x0 /opt/devkitpro/devkitARM/bin/../lib/gcc/arm-none-eabi/4.9.2/../../../../arm-none-eabi/lib/libc.a(lib_a-strchr.o)
 .bss           0x0000000002025dc0        0x0 /opt/devkitpro/devkitARM/bin/../lib/gcc/arm-none-eabi/4.9.2/../../../../arm-none-eabi/lib/libc.a(lib_a-strlcpy.o)
 .bss           0x0000000002025dc0        0x0 /opt/devkitpro/devkitARM/bin/../lib/gcc/arm-none-eabi/4.9.2/../../../../arm-none-eabi/lib/libc.a(lib_a-strncasecmp.o)
 .bss           0x0000000002025dc0        0x0 /opt/devkitpro/devkitARM/bin/../lib/gcc/arm-none-eabi/4.9.2/../../../../arm-none-eabi/lib/libc.a(lib_a-strncpy.o)
 .bss           0x0000000002025dc0        0x0 /opt/devkitpro/devkitARM/bin/../lib/gcc/arm-none-eabi/4.9.2/../../../../arm-none-eabi/lib/libc.a(lib_a-strtol.o)
 .bss           0x0000000002025dc0        0x0 /opt/devkitpro/devkitARM/bin/../lib/gcc/arm-none-eabi/4.9.2/../../../../arm-none-eabi/lib/libc.a(lib_a-svfiprintf.o)
 .bss           0x0000000002025dc0        0x0 /opt/devkitpro/devkitARM/bin/../lib/gcc/arm-none-eabi/4.9.2/../../../../arm-none-eabi/lib/libc.a(lib_a-wcsnrtombs.o)
 .bss           0x0000000002025dc0        0x0 /opt/devkitpro/devkitARM/bin/../lib/gcc/arm-none-eabi/4.9.2/../../../../arm-none-eabi/lib/libc.a(lib_a-callocr.o)
 .bss           0x0000000002025dc0        0x0 /opt/devkitpro/devkitARM/bin/../lib/gcc/arm-none-eabi/4.9.2/../../../../arm-none-eabi/lib/libc.a(lib_a-ctype_.o)
 .bss           0x0000000002025dc0        0x0 /opt/devkitpro/devkitARM/bin/../lib/gcc/arm-none-eabi/4.9.2/../../../../arm-none-eabi/lib/libc.a(lib_a-fclose.o)
 .bss           0x0000000002025dc0        0x0 /opt/devkitpro/devkitARM/bin/../lib/gcc/arm-none-eabi/4.9.2/../../../../arm-none-eabi/lib/libc.a(lib_a-getenv_r.o)
 .bss           0x0000000002025dc0        0x0 /opt/devkitpro/devkitARM/bin/../lib/gcc/arm-none-eabi/4.9.2/../../../../arm-none-eabi/lib/libc.a(lib_a-environ.o)
 .bss.initial_env
                0x0000000002025dc0        0x4 /opt/devkitpro/devkitARM/bin/../lib/gcc/arm-none-eabi/4.9.2/../../../../arm-none-eabi/lib/libc.a(lib_a-environ.o)
 .bss           0x0000000002025dc4        0x0 /opt/devkitpro/devkitARM/bin/../lib/gcc/arm-none-eabi/4.9.2/../../../../arm-none-eabi/lib/libc.a(lib_a-envlock.o)
 .bss           0x0000000002025dc4        0x0 /opt/devkitpro/devkitARM/bin/../lib/gcc/arm-none-eabi/4.9.2/libgcc.a(_udivsi3.o)
 .bss           0x0000000002025dc4        0x0 /opt/devkitpro/devkitARM/bin/../lib/gcc/arm-none-eabi/4.9.2/libgcc.a(_call_via_rX.o)
 .bss           0x0000000002025dc4        0x0 /opt/devkitpro/devkitARM/bin/../lib/gcc/arm-none-eabi/4.9.2/libgcc.a(_arm_addsubdf3.o)
 .bss           0x0000000002025dc4        0x0 /opt/devkitpro/devkitARM/bin/../lib/gcc/arm-none-eabi/4.9.2/libgcc.a(_arm_muldivdf3.o)
 .bss           0x0000000002025dc4        0x0 /opt/devkitpro/devkitARM/bin/../lib/gcc/arm-none-eabi/4.9.2/libgcc.a(_arm_cmpdf2.o)
 .bss           0x0000000002025dc4        0x0 /opt/devkitpro/devkitARM/bin/../lib/gcc/arm-none-eabi/4.9.2/libgcc.a(_arm_fixdfsi.o)
 .bss           0x0000000002025dc4        0x0 /opt/devkitpro/devkitARM/bin/../lib/gcc/arm-none-eabi/4.9.2/libgcc.a(_aeabi_uldivmod.o)
 .bss           0x0000000002025dc4        0x0 /opt/devkitpro/devkitARM/bin/../lib/gcc/arm-none-eabi/4.9.2/libgcc.a(bpabi.o)
 .bss           0x0000000002025dc4        0x0 /opt/devkitpro/devkitARM/bin/../lib/gcc/arm-none-eabi/4.9.2/libgcc.a(_divdi3.o)
 .bss           0x0000000002025dc4        0x0 /opt/devkitpro/devkitARM/bin/../lib/gcc/arm-none-eabi/4.9.2/libgcc.a(_udivdi3.o)
 .bss           0x0000000002025dc4        0x0 /opt/devkitpro/devkitARM/bin/../lib/gcc/arm-none-eabi/4.9.2/libgcc.a(_clzdi2.o)
 .bss           0x0000000002025dc4        0x0 /opt/devkitpro/devkitARM/bin/../lib/gcc/arm-none-eabi/4.9.2/libgcc.a(_clzsi2.o)
 .bss           0x0000000002025dc4        0x0 /opt/devkitpro/devkitARM/bin/../lib/gcc/arm-none-eabi/4.9.2/../../../../arm-none-eabi/lib/libsysbase.a(close.o)
 .bss           0x0000000002025dc4        0x0 /opt/devkitpro/devkitARM/bin/../lib/gcc/arm-none-eabi/4.9.2/../../../../arm-none-eabi/lib/libsysbase.a(fstat.o)
 .bss           0x0000000002025dc4        0x0 /opt/devkitpro/devkitARM/bin/../lib/gcc/arm-none-eabi/4.9.2/../../../../arm-none-eabi/lib/libsysbase.a(getpid.o)
 .bss           0x0000000002025dc4        0x0 /opt/devkitpro/devkitARM/bin/../lib/gcc/arm-none-eabi/4.9.2/../../../../arm-none-eabi/lib/libsysbase.a(isatty.o)
 .bss           0x0000000002025dc4        0x0 /opt/devkitpro/devkitARM/bin/../lib/gcc/arm-none-eabi/4.9.2/../../../../arm-none-eabi/lib/libsysbase.a(kill.o)
 .bss           0x0000000002025dc4        0x0 /opt/devkitpro/devkitARM/bin/../lib/gcc/arm-none-eabi/4.9.2/../../../../arm-none-eabi/lib/libsysbase.a(lseek.o)
 .bss           0x0000000002025dc4        0x0 /opt/devkitpro/devkitARM/bin/../lib/gcc/arm-none-eabi/4.9.2/../../../../arm-none-eabi/lib/libsysbase.a(read.o)
 .bss           0x0000000002025dc4        0x4 /opt/devkitpro/devkitARM/bin/../lib/gcc/arm-none-eabi/4.9.2/../../../../arm-none-eabi/lib/libsysbase.a(sbrk.o)
 .bss           0x0000000002025dc8        0x0 /opt/devkitpro/devkitARM/bin/../lib/gcc/arm-none-eabi/4.9.2/../../../../arm-none-eabi/lib/libsysbase.a(write.o)
 .bss           0x0000000002025dc8        0x0 /opt/devkitpro/devkitARM/bin/../lib/gcc/arm-none-eabi/4.9.2/../../../../arm-none-eabi/lib/libsysbase.a(_exit.o)
 .bss           0x0000000002025dc8        0x8 /opt/devkitpro/devkitARM/bin/../lib/gcc/arm-none-eabi/4.9.2/../../../../arm-none-eabi/lib/libsysbase.a(malloc_vars.o)
                0x0000000002025dc8                fake_heap_start
                0x0000000002025dcc                fake_heap_end
 .bss           0x0000000002025dd0        0x0 /opt/devkitpro/devkitARM/bin/../lib/gcc/arm-none-eabi/4.9.2/../../../../arm-none-eabi/lib/libsysbase.a(flock.o)
 .bss           0x0000000002025dd0       0x40 /opt/devkitpro/devkitARM/bin/../lib/gcc/arm-none-eabi/4.9.2/../../../../arm-none-eabi/lib/libsysbase.a(syscall_support.o)
                0x0000000002025dd0                __syscalls
 .bss           0x0000000002025e10        0x0 /opt/devkitpro/devkitARM/bin/../lib/gcc/arm-none-eabi/4.9.2/../../../../arm-none-eabi/lib/libsysbase.a(handle_manager.o)
 .bss           0x0000000002025e10        0x0 /opt/devkitpro/devkitARM/bin/../lib/gcc/arm-none-eabi/4.9.2/../../../../arm-none-eabi/lib/libsysbase.a(getreent.o)
 .bss           0x0000000002025e10        0x0 /opt/devkitpro/devkitARM/bin/../lib/gcc/arm-none-eabi/4.9.2/../../../../arm-none-eabi/lib/libsysbase.a(iosupport.o)
 .bss           0x0000000002025e10        0x0 /opt/devkitpro/devkitARM/bin/../lib/gcc/arm-none-eabi/4.9.2/../../../../arm-none-eabi/lib/libc.a(lib_a-errno.o)
 .bss           0x0000000002025e10        0x0 /opt/devkitpro/devkitARM/bin/../lib/gcc/arm-none-eabi/4.9.2/crtend.o
 .bss           0x0000000002025e10        0x0 /opt/devkitpro/devkitARM/bin/../lib/gcc/arm-none-eabi/4.9.2/crtn.o
 *(.ewram .ewram.*)
 *(COMMON)
                0x0000000002025e10                . = ALIGN (0x4)
                0x0000000002025e10                __bss_end__ = .
                0x0000000002025e10                end = .
                0x0000000002025e10                __end__ = .

.sram           0x000000000e000000       0x98
 *(.sram .sram.*)
 .sram          0x000000000e000000       0x98 objs/game_manager_class.thumb.o
                0x000000000e000000                game_manager::test_sram_arr
                0x000000000e000080                game_manager::sram_init_str
                0x000000000e000098                . = ALIGN (0x4)

.stab
 *(.stab)

.stabstr
 *(.stabstr)

.comment        0x00000000080a5aa4       0x22
 *(.comment)
 .comment       0x00000000080a5aa4       0x22 /opt/devkitpro/devkitARM/bin/../lib/gcc/arm-none-eabi/4.9.2/crtbegin.o
                                         0x23 (size before relaxing)
 .comment       0x00000000080a5ac6       0x23 objs/active_level_class.thumb.o
 .comment       0x00000000080a5ac6       0x23 objs/active_level_manager_class.arm.o
 .comment       0x00000000080a5ac6       0x23 objs/active_level_manager_class.thumb.o
 .comment       0x00000000080a5ac6       0x23 objs/air_block_stuff_class.thumb.o
 .comment       0x00000000080a5ac6       0x23 objs/block_base_stuff_class.thumb.o
 .comment       0x00000000080a5ac6       0x23 objs/block_stuff.thumb.o
 .comment       0x00000000080a5ac6       0x23 objs/button_stuff.thumb.o
 .comment       0x00000000080a5ac6       0x23 objs/coll_box_class.arm.o
 .comment       0x00000000080a5ac6       0x23 objs/coll_box_class.thumb.o
 .comment       0x00000000080a5ac6       0x23 objs/coll_point_group_class.thumb.o
 .comment       0x00000000080a5ac6       0x23 objs/debug_vars.thumb.o
 .comment       0x00000000080a5ac6       0x23 objs/dma_stuff.thumb.o
 .comment       0x00000000080a5ac6       0x23 objs/door_sprite_stuff_class.thumb.o
 .comment       0x00000000080a5ac6       0x23 objs/dud_block_stuff_class.thumb.o
 .comment       0x00000000080a5ac6       0x23 objs/exclam_block_stuff_classes.thumb.o
 .comment       0x00000000080a5ac6       0x23 objs/eyes_block_stuff_classes.thumb.o
 .comment       0x00000000080a5ac6       0x23 objs/fixed_classes.thumb.o
 .comment       0x00000000080a5ac6       0x23 objs/game_manager_class.thumb.o
 .comment       0x00000000080a5ac6       0x23 objs/gfx_manager_class.thumb.o
 .comment       0x00000000080a5ac6       0x23 objs/gfx_reg_stuff.arm.o
 .comment       0x00000000080a5ac6       0x23 objs/grass_and_dirt_block_stuff_classes.thumb.o
 .comment       0x00000000080a5ac6       0x23 objs/hud_manager_class.thumb.o
 .comment       0x00000000080a5ac6       0x23 objs/interrupt_stuff.arm.o
 .comment       0x00000000080a5ac6       0x23 objs/interrupt_stuff.thumb.o
 .comment       0x00000000080a5ac6       0x23 objs/level_class.thumb.o
 .comment       0x00000000080a5ac6       0x23 objs/log_block_stuff_class.thumb.o
 .comment       0x00000000080a5ac6       0x23 objs/main.thumb.o
 .comment       0x00000000080a5ac6       0x23 objs/muffin_sprite_stuff_classes.thumb.o
 .comment       0x00000000080a5ac6       0x23 objs/oam_entry_classes.thumb.o
 .comment       0x00000000080a5ac6       0x23 objs/player_sprite_stuff_class.thumb.o
 .comment       0x00000000080a5ac6       0x23 objs/sprite_base_stuff_class.arm.o
 .comment       0x00000000080a5ac6       0x23 objs/sprite_base_stuff_class.thumb.o
 .comment       0x00000000080a5ac6       0x23 objs/sprite_class.thumb.o
 .comment       0x00000000080a5ac6       0x23 objs/sprite_manager_class.arm.o
 .comment       0x00000000080a5ac6       0x23 objs/sprite_manager_class.thumb.o
 .comment       0x00000000080a5ac6       0x23 objs/sprite_type_stuff.thumb.o
 .comment       0x00000000080a5ac6       0x23 objs/sublevel_class.thumb.o
 .comment       0x00000000080a5ac6       0x23 objs/test_level.thumb.o
 .comment       0x00000000080a5ac6       0x23 objs/waffle_sprite_stuff_class.arm.o
 .comment       0x00000000080a5ac6       0x23 objs/waffle_sprite_stuff_class.thumb.o
 .comment       0x00000000080a5ac6       0x23 objs/wood_block_stuff_classes.thumb.o
 .comment       0x00000000080a5ac6       0x23 /opt/devkitpro/devkitARM/bin/../lib/gcc/arm-none-eabi/4.9.2/libgcc.a(unwind-arm.o)
 .comment       0x00000000080a5ac6       0x23 /opt/devkitpro/devkitARM/bin/../lib/gcc/arm-none-eabi/4.9.2/libgcc.a(pr-support.o)
 .comment       0x00000000080a5ac6       0x23 /opt/devkitpro/devkitARM/bin/../lib/gcc/arm-none-eabi/4.9.2/../../../../arm-none-eabi/lib/libstdc++.a(eh_arm.o)
 .comment       0x00000000080a5ac6       0x23 /opt/devkitpro/devkitARM/bin/../lib/gcc/arm-none-eabi/4.9.2/../../../../arm-none-eabi/lib/libstdc++.a(eh_globals.o)
 .comment       0x00000000080a5ac6       0x23 /opt/devkitpro/devkitARM/bin/../lib/gcc/arm-none-eabi/4.9.2/../../../../arm-none-eabi/lib/libstdc++.a(atexit_arm.o)
 .comment       0x00000000080a5ac6       0x23 /opt/devkitpro/devkitARM/bin/../lib/gcc/arm-none-eabi/4.9.2/../../../../arm-none-eabi/lib/libstdc++.a(del_op.o)
 .comment       0x00000000080a5ac6       0x23 /opt/devkitpro/devkitARM/bin/../lib/gcc/arm-none-eabi/4.9.2/../../../../arm-none-eabi/lib/libstdc++.a(si_class_type_info.o)
 .comment       0x00000000080a5ac6       0x23 /opt/devkitpro/devkitARM/bin/../lib/gcc/arm-none-eabi/4.9.2/../../../../arm-none-eabi/lib/libstdc++.a(eh_exception.o)
 .comment       0x00000000080a5ac6       0x23 /opt/devkitpro/devkitARM/bin/../lib/gcc/arm-none-eabi/4.9.2/../../../../arm-none-eabi/lib/libstdc++.a(eh_terminate.o)
 .comment       0x00000000080a5ac6       0x23 /opt/devkitpro/devkitARM/bin/../lib/gcc/arm-none-eabi/4.9.2/../../../../arm-none-eabi/lib/libstdc++.a(tinfo.o)
 .comment       0x00000000080a5ac6       0x23 /opt/devkitpro/devkitARM/bin/../lib/gcc/arm-none-eabi/4.9.2/../../../../arm-none-eabi/lib/libstdc++.a(eh_call.o)
 .comment       0x00000000080a5ac6       0x23 /opt/devkitpro/devkitARM/bin/../lib/gcc/arm-none-eabi/4.9.2/../../../../arm-none-eabi/lib/libstdc++.a(new_op.o)
 .comment       0x00000000080a5ac6       0x23 /opt/devkitpro/devkitARM/bin/../lib/gcc/arm-none-eabi/4.9.2/../../../../arm-none-eabi/lib/libstdc++.a(new_handler.o)
 .comment       0x00000000080a5ac6       0x23 /opt/devkitpro/devkitARM/bin/../lib/gcc/arm-none-eabi/4.9.2/../../../../arm-none-eabi/lib/libstdc++.a(eh_term_handler.o)
 .comment       0x00000000080a5ac6       0x23 /opt/devkitpro/devkitARM/bin/../lib/gcc/arm-none-eabi/4.9.2/../../../../arm-none-eabi/lib/libstdc++.a(eh_personality.o)
 .comment       0x00000000080a5ac6       0x23 /opt/devkitpro/devkitARM/bin/../lib/gcc/arm-none-eabi/4.9.2/../../../../arm-none-eabi/lib/libstdc++.a(class_type_info.o)
 .comment       0x00000000080a5ac6       0x23 /opt/devkitpro/devkitARM/bin/../lib/gcc/arm-none-eabi/4.9.2/../../../../arm-none-eabi/lib/libstdc++.a(bad_alloc.o)
 .comment       0x00000000080a5ac6       0x23 /opt/devkitpro/devkitARM/bin/../lib/gcc/arm-none-eabi/4.9.2/../../../../arm-none-eabi/lib/libstdc++.a(eh_throw.o)
 .comment       0x00000000080a5ac6       0x23 /opt/devkitpro/devkitARM/bin/../lib/gcc/arm-none-eabi/4.9.2/../../../../arm-none-eabi/lib/libstdc++.a(vterminate.o)
 .comment       0x00000000080a5ac6       0x23 /opt/devkitpro/devkitARM/bin/../lib/gcc/arm-none-eabi/4.9.2/../../../../arm-none-eabi/lib/libstdc++.a(eh_catch.o)
 .comment       0x00000000080a5ac6       0x23 /opt/devkitpro/devkitARM/bin/../lib/gcc/arm-none-eabi/4.9.2/../../../../arm-none-eabi/lib/libstdc++.a(cp-demangle.o)
 .comment       0x00000000080a5ac6       0x23 /opt/devkitpro/devkitARM/bin/../lib/gcc/arm-none-eabi/4.9.2/../../../../arm-none-eabi/lib/libstdc++.a(pure.o)
 .comment       0x00000000080a5ac6       0x23 /opt/devkitpro/devkitARM/bin/../lib/gcc/arm-none-eabi/4.9.2/../../../../arm-none-eabi/lib/libstdc++.a(eh_type.o)
 .comment       0x00000000080a5ac6       0x23 /opt/devkitpro/devkitARM/bin/../lib/gcc/arm-none-eabi/4.9.2/../../../../arm-none-eabi/lib/libstdc++.a(eh_alloc.o)
 .comment       0x00000000080a5ac6       0x23 /opt/devkitpro/devkitARM/bin/../lib/gcc/arm-none-eabi/4.9.2/../../../../arm-none-eabi/lib/libstdc++.a(eh_unex_handler.o)
 .comment       0x00000000080a5ac6       0x23 /opt/devkitpro/devkitARM/bin/../lib/gcc/arm-none-eabi/4.9.2/../../../../arm-none-eabi/lib/libc.a(lib_a-abort.o)
 .comment       0x00000000080a5ac6       0x23 /opt/devkitpro/devkitARM/bin/../lib/gcc/arm-none-eabi/4.9.2/../../../../arm-none-eabi/lib/libc.a(lib_a-atexit.o)
 .comment       0x00000000080a5ac6       0x23 /opt/devkitpro/devkitARM/bin/../lib/gcc/arm-none-eabi/4.9.2/../../../../arm-none-eabi/lib/libc.a(lib_a-cxa_atexit.o)
 .comment       0x00000000080a5ac6       0x23 /opt/devkitpro/devkitARM/bin/../lib/gcc/arm-none-eabi/4.9.2/../../../../arm-none-eabi/lib/libc.a(lib_a-exit.o)
 .comment       0x00000000080a5ac6       0x23 /opt/devkitpro/devkitARM/bin/../lib/gcc/arm-none-eabi/4.9.2/../../../../arm-none-eabi/lib/libc.a(lib_a-fini.o)
 .comment       0x00000000080a5ac6       0x23 /opt/devkitpro/devkitARM/bin/../lib/gcc/arm-none-eabi/4.9.2/../../../../arm-none-eabi/lib/libc.a(lib_a-fputc.o)
 .comment       0x00000000080a5ac6       0x23 /opt/devkitpro/devkitARM/bin/../lib/gcc/arm-none-eabi/4.9.2/../../../../arm-none-eabi/lib/libc.a(lib_a-fputs.o)
 .comment       0x00000000080a5ac6       0x23 /opt/devkitpro/devkitARM/bin/../lib/gcc/arm-none-eabi/4.9.2/../../../../arm-none-eabi/lib/libc.a(lib_a-fvwrite.o)
 .comment       0x00000000080a5ac6       0x23 /opt/devkitpro/devkitARM/bin/../lib/gcc/arm-none-eabi/4.9.2/../../../../arm-none-eabi/lib/libc.a(lib_a-fwrite.o)
 .comment       0x00000000080a5ac6       0x23 /opt/devkitpro/devkitARM/bin/../lib/gcc/arm-none-eabi/4.9.2/../../../../arm-none-eabi/lib/libc.a(lib_a-impure.o)
 .comment       0x00000000080a5ac6       0x23 /opt/devkitpro/devkitARM/bin/../lib/gcc/arm-none-eabi/4.9.2/../../../../arm-none-eabi/lib/libc.a(lib_a-init.o)
 .comment       0x00000000080a5ac6       0x23 /opt/devkitpro/devkitARM/bin/../lib/gcc/arm-none-eabi/4.9.2/../../../../arm-none-eabi/lib/libc.a(lib_a-malloc.o)
 .comment       0x00000000080a5ac6       0x23 /opt/devkitpro/devkitARM/bin/../lib/gcc/arm-none-eabi/4.9.2/../../../../arm-none-eabi/lib/libc.a(lib_a-mallocr.o)
 .comment       0x00000000080a5ac6       0x23 /opt/devkitpro/devkitARM/bin/../lib/gcc/arm-none-eabi/4.9.2/../../../../arm-none-eabi/lib/libc.a(lib_a-memchr.o)
 .comment       0x00000000080a5ac6       0x23 /opt/devkitpro/devkitARM/bin/../lib/gcc/arm-none-eabi/4.9.2/../../../../arm-none-eabi/lib/libc.a(lib_a-memcmp.o)
 .comment       0x00000000080a5ac6       0x23 /opt/devkitpro/devkitARM/bin/../lib/gcc/arm-none-eabi/4.9.2/../../../../arm-none-eabi/lib/libc.a(lib_a-memcpy.o)
 .comment       0x00000000080a5ac6       0x23 /opt/devkitpro/devkitARM/bin/../lib/gcc/arm-none-eabi/4.9.2/../../../../arm-none-eabi/lib/libc.a(lib_a-memmove.o)
 .comment       0x00000000080a5ac6       0x23 /opt/devkitpro/devkitARM/bin/../lib/gcc/arm-none-eabi/4.9.2/../../../../arm-none-eabi/lib/libc.a(lib_a-memset.o)
 .comment       0x00000000080a5ac6       0x23 /opt/devkitpro/devkitARM/bin/../lib/gcc/arm-none-eabi/4.9.2/../../../../arm-none-eabi/lib/libc.a(lib_a-mlock.o)
 .comment       0x00000000080a5ac6       0x23 /opt/devkitpro/devkitARM/bin/../lib/gcc/arm-none-eabi/4.9.2/../../../../arm-none-eabi/lib/libc.a(lib_a-putc.o)
 .comment       0x00000000080a5ac6       0x23 /opt/devkitpro/devkitARM/bin/../lib/gcc/arm-none-eabi/4.9.2/../../../../arm-none-eabi/lib/libc.a(lib_a-realloc.o)
 .comment       0x00000000080a5ac6       0x23 /opt/devkitpro/devkitARM/bin/../lib/gcc/arm-none-eabi/4.9.2/../../../../arm-none-eabi/lib/libc.a(lib_a-reallocr.o)
 .comment       0x00000000080a5ac6       0x23 /opt/devkitpro/devkitARM/bin/../lib/gcc/arm-none-eabi/4.9.2/../../../../arm-none-eabi/lib/libc.a(lib_a-signal.o)
 .comment       0x00000000080a5ac6       0x23 /opt/devkitpro/devkitARM/bin/../lib/gcc/arm-none-eabi/4.9.2/../../../../arm-none-eabi/lib/libc.a(lib_a-sprintf.o)
 .comment       0x00000000080a5ac6       0x23 /opt/devkitpro/devkitARM/bin/../lib/gcc/arm-none-eabi/4.9.2/../../../../arm-none-eabi/lib/libc.a(lib_a-strcat.o)
 .comment       0x00000000080a5ac6       0x23 /opt/devkitpro/devkitARM/bin/../lib/gcc/arm-none-eabi/4.9.2/../../../../arm-none-eabi/lib/libc.a(lib_a-strcpy.o)
 .comment       0x00000000080a5ac6       0x23 /opt/devkitpro/devkitARM/bin/../lib/gcc/arm-none-eabi/4.9.2/../../../../arm-none-eabi/lib/libc.a(lib_a-strlen.o)
 .comment       0x00000000080a5ac6       0x23 /opt/devkitpro/devkitARM/bin/../lib/gcc/arm-none-eabi/4.9.2/../../../../arm-none-eabi/lib/libc.a(lib_a-strncmp.o)
 .comment       0x00000000080a5ac6       0x23 /opt/devkitpro/devkitARM/bin/../lib/gcc/arm-none-eabi/4.9.2/../../../../arm-none-eabi/lib/libc.a(lib_a-svfprintf.o)
 .comment       0x00000000080a5ac6       0x23 /opt/devkitpro/devkitARM/bin/../lib/gcc/arm-none-eabi/4.9.2/../../../../arm-none-eabi/lib/libc.a(lib_a-syswrite.o)
 .comment       0x00000000080a5ac6       0x23 /opt/devkitpro/devkitARM/bin/../lib/gcc/arm-none-eabi/4.9.2/../../../../arm-none-eabi/lib/libc.a(lib_a-wbuf.o)
 .comment       0x00000000080a5ac6       0x23 /opt/devkitpro/devkitARM/bin/../lib/gcc/arm-none-eabi/4.9.2/../../../../arm-none-eabi/lib/libc.a(lib_a-wcrtomb.o)
 .comment       0x00000000080a5ac6       0x23 /opt/devkitpro/devkitARM/bin/../lib/gcc/arm-none-eabi/4.9.2/../../../../arm-none-eabi/lib/libc.a(lib_a-wcsrtombs.o)
 .comment       0x00000000080a5ac6       0x23 /opt/devkitpro/devkitARM/bin/../lib/gcc/arm-none-eabi/4.9.2/../../../../arm-none-eabi/lib/libc.a(lib_a-wctomb_r.o)
 .comment       0x00000000080a5ac6       0x23 /opt/devkitpro/devkitARM/bin/../lib/gcc/arm-none-eabi/4.9.2/../../../../arm-none-eabi/lib/libc.a(lib_a-wsetup.o)
 .comment       0x00000000080a5ac6       0x23 /opt/devkitpro/devkitARM/bin/../lib/gcc/arm-none-eabi/4.9.2/../../../../arm-none-eabi/lib/libc.a(lib_a-__atexit.o)
 .comment       0x00000000080a5ac6       0x23 /opt/devkitpro/devkitARM/bin/../lib/gcc/arm-none-eabi/4.9.2/../../../../arm-none-eabi/lib/libc.a(lib_a-__call_atexit.o)
 .comment       0x00000000080a5ac6       0x23 /opt/devkitpro/devkitARM/bin/../lib/gcc/arm-none-eabi/4.9.2/../../../../arm-none-eabi/lib/libc.a(lib_a-dtoa.o)
 .comment       0x00000000080a5ac6       0x23 /opt/devkitpro/devkitARM/bin/../lib/gcc/arm-none-eabi/4.9.2/../../../../arm-none-eabi/lib/libc.a(lib_a-fflush.o)
 .comment       0x00000000080a5ac6       0x23 /opt/devkitpro/devkitARM/bin/../lib/gcc/arm-none-eabi/4.9.2/../../../../arm-none-eabi/lib/libc.a(lib_a-findfp.o)
 .comment       0x00000000080a5ac6       0x23 /opt/devkitpro/devkitARM/bin/../lib/gcc/arm-none-eabi/4.9.2/../../../../arm-none-eabi/lib/libc.a(lib_a-freer.o)
 .comment       0x00000000080a5ac6       0x23 /opt/devkitpro/devkitARM/bin/../lib/gcc/arm-none-eabi/4.9.2/../../../../arm-none-eabi/lib/libc.a(lib_a-fwalk.o)
 .comment       0x00000000080a5ac6       0x23 /opt/devkitpro/devkitARM/bin/../lib/gcc/arm-none-eabi/4.9.2/../../../../arm-none-eabi/lib/libc.a(lib_a-locale.o)
 .comment       0x00000000080a5ac6       0x23 /opt/devkitpro/devkitARM/bin/../lib/gcc/arm-none-eabi/4.9.2/../../../../arm-none-eabi/lib/libc.a(lib_a-makebuf.o)
 .comment       0x00000000080a5ac6       0x23 /opt/devkitpro/devkitARM/bin/../lib/gcc/arm-none-eabi/4.9.2/../../../../arm-none-eabi/lib/libc.a(lib_a-mbtowc_r.o)
 .comment       0x00000000080a5ac6       0x23 /opt/devkitpro/devkitARM/bin/../lib/gcc/arm-none-eabi/4.9.2/../../../../arm-none-eabi/lib/libc.a(lib_a-mprec.o)
 .comment       0x00000000080a5ac6       0x23 /opt/devkitpro/devkitARM/bin/../lib/gcc/arm-none-eabi/4.9.2/../../../../arm-none-eabi/lib/libc.a(lib_a-s_fpclassify.o)
 .comment       0x00000000080a5ac6       0x23 /opt/devkitpro/devkitARM/bin/../lib/gcc/arm-none-eabi/4.9.2/../../../../arm-none-eabi/lib/libc.a(lib_a-s_frexp.o)
 .comment       0x00000000080a5ac6       0x23 /opt/devkitpro/devkitARM/bin/../lib/gcc/arm-none-eabi/4.9.2/../../../../arm-none-eabi/lib/libc.a(lib_a-stdio.o)
 .comment       0x00000000080a5ac6       0x23 /opt/devkitpro/devkitARM/bin/../lib/gcc/arm-none-eabi/4.9.2/../../../../arm-none-eabi/lib/libc.a(lib_a-strcasecmp.o)
 .comment       0x00000000080a5ac6       0x23 /opt/devkitpro/devkitARM/bin/../lib/gcc/arm-none-eabi/4.9.2/../../../../arm-none-eabi/lib/libc.a(lib_a-strchr.o)
 .comment       0x00000000080a5ac6       0x23 /opt/devkitpro/devkitARM/bin/../lib/gcc/arm-none-eabi/4.9.2/../../../../arm-none-eabi/lib/libc.a(lib_a-strlcpy.o)
 .comment       0x00000000080a5ac6       0x23 /opt/devkitpro/devkitARM/bin/../lib/gcc/arm-none-eabi/4.9.2/../../../../arm-none-eabi/lib/libc.a(lib_a-strncasecmp.o)
 .comment       0x00000000080a5ac6       0x23 /opt/devkitpro/devkitARM/bin/../lib/gcc/arm-none-eabi/4.9.2/../../../../arm-none-eabi/lib/libc.a(lib_a-strncpy.o)
 .comment       0x00000000080a5ac6       0x23 /opt/devkitpro/devkitARM/bin/../lib/gcc/arm-none-eabi/4.9.2/../../../../arm-none-eabi/lib/libc.a(lib_a-strtol.o)
 .comment       0x00000000080a5ac6       0x23 /opt/devkitpro/devkitARM/bin/../lib/gcc/arm-none-eabi/4.9.2/../../../../arm-none-eabi/lib/libc.a(lib_a-svfiprintf.o)
 .comment       0x00000000080a5ac6       0x23 /opt/devkitpro/devkitARM/bin/../lib/gcc/arm-none-eabi/4.9.2/../../../../arm-none-eabi/lib/libc.a(lib_a-wcsnrtombs.o)
 .comment       0x00000000080a5ac6       0x23 /opt/devkitpro/devkitARM/bin/../lib/gcc/arm-none-eabi/4.9.2/../../../../arm-none-eabi/lib/libc.a(lib_a-callocr.o)
 .comment       0x00000000080a5ac6       0x23 /opt/devkitpro/devkitARM/bin/../lib/gcc/arm-none-eabi/4.9.2/../../../../arm-none-eabi/lib/libc.a(lib_a-ctype_.o)
 .comment       0x00000000080a5ac6       0x23 /opt/devkitpro/devkitARM/bin/../lib/gcc/arm-none-eabi/4.9.2/../../../../arm-none-eabi/lib/libc.a(lib_a-fclose.o)
 .comment       0x00000000080a5ac6       0x23 /opt/devkitpro/devkitARM/bin/../lib/gcc/arm-none-eabi/4.9.2/../../../../arm-none-eabi/lib/libc.a(lib_a-getenv_r.o)
 .comment       0x00000000080a5ac6       0x23 /opt/devkitpro/devkitARM/bin/../lib/gcc/arm-none-eabi/4.9.2/../../../../arm-none-eabi/lib/libc.a(lib_a-environ.o)
 .comment       0x00000000080a5ac6       0x23 /opt/devkitpro/devkitARM/bin/../lib/gcc/arm-none-eabi/4.9.2/../../../../arm-none-eabi/lib/libc.a(lib_a-envlock.o)
 .comment       0x00000000080a5ac6       0x23 /opt/devkitpro/devkitARM/bin/../lib/gcc/arm-none-eabi/4.9.2/libgcc.a(bpabi.o)
 .comment       0x00000000080a5ac6       0x23 /opt/devkitpro/devkitARM/bin/../lib/gcc/arm-none-eabi/4.9.2/libgcc.a(_divdi3.o)
 .comment       0x00000000080a5ac6       0x23 /opt/devkitpro/devkitARM/bin/../lib/gcc/arm-none-eabi/4.9.2/libgcc.a(_udivdi3.o)
 .comment       0x00000000080a5ac6       0x23 /opt/devkitpro/devkitARM/bin/../lib/gcc/arm-none-eabi/4.9.2/../../../../arm-none-eabi/lib/libsysbase.a(close.o)
 .comment       0x00000000080a5ac6       0x23 /opt/devkitpro/devkitARM/bin/../lib/gcc/arm-none-eabi/4.9.2/../../../../arm-none-eabi/lib/libsysbase.a(fstat.o)
 .comment       0x00000000080a5ac6       0x23 /opt/devkitpro/devkitARM/bin/../lib/gcc/arm-none-eabi/4.9.2/../../../../arm-none-eabi/lib/libsysbase.a(getpid.o)
 .comment       0x00000000080a5ac6       0x23 /opt/devkitpro/devkitARM/bin/../lib/gcc/arm-none-eabi/4.9.2/../../../../arm-none-eabi/lib/libsysbase.a(isatty.o)
 .comment       0x00000000080a5ac6       0x23 /opt/devkitpro/devkitARM/bin/../lib/gcc/arm-none-eabi/4.9.2/../../../../arm-none-eabi/lib/libsysbase.a(kill.o)
 .comment       0x00000000080a5ac6       0x23 /opt/devkitpro/devkitARM/bin/../lib/gcc/arm-none-eabi/4.9.2/../../../../arm-none-eabi/lib/libsysbase.a(lseek.o)
 .comment       0x00000000080a5ac6       0x23 /opt/devkitpro/devkitARM/bin/../lib/gcc/arm-none-eabi/4.9.2/../../../../arm-none-eabi/lib/libsysbase.a(read.o)
 .comment       0x00000000080a5ac6       0x23 /opt/devkitpro/devkitARM/bin/../lib/gcc/arm-none-eabi/4.9.2/../../../../arm-none-eabi/lib/libsysbase.a(sbrk.o)
 .comment       0x00000000080a5ac6       0x23 /opt/devkitpro/devkitARM/bin/../lib/gcc/arm-none-eabi/4.9.2/../../../../arm-none-eabi/lib/libsysbase.a(write.o)
 .comment       0x00000000080a5ac6       0x23 /opt/devkitpro/devkitARM/bin/../lib/gcc/arm-none-eabi/4.9.2/../../../../arm-none-eabi/lib/libsysbase.a(_exit.o)
 .comment       0x00000000080a5ac6       0x23 /opt/devkitpro/devkitARM/bin/../lib/gcc/arm-none-eabi/4.9.2/../../../../arm-none-eabi/lib/libsysbase.a(malloc_vars.o)
 .comment       0x00000000080a5ac6       0x23 /opt/devkitpro/devkitARM/bin/../lib/gcc/arm-none-eabi/4.9.2/../../../../arm-none-eabi/lib/libsysbase.a(flock.o)
 .comment       0x00000000080a5ac6       0x23 /opt/devkitpro/devkitARM/bin/../lib/gcc/arm-none-eabi/4.9.2/../../../../arm-none-eabi/lib/libsysbase.a(syscall_support.o)
 .comment       0x00000000080a5ac6       0x23 /opt/devkitpro/devkitARM/bin/../lib/gcc/arm-none-eabi/4.9.2/../../../../arm-none-eabi/lib/libsysbase.a(handle_manager.o)
 .comment       0x00000000080a5ac6       0x23 /opt/devkitpro/devkitARM/bin/../lib/gcc/arm-none-eabi/4.9.2/../../../../arm-none-eabi/lib/libsysbase.a(getreent.o)
 .comment       0x00000000080a5ac6       0x23 /opt/devkitpro/devkitARM/bin/../lib/gcc/arm-none-eabi/4.9.2/../../../../arm-none-eabi/lib/libsysbase.a(iosupport.o)
 .comment       0x00000000080a5ac6       0x23 /opt/devkitpro/devkitARM/bin/../lib/gcc/arm-none-eabi/4.9.2/../../../../arm-none-eabi/lib/libc.a(lib_a-errno.o)
 .comment       0x00000000080a5ac6       0x23 /opt/devkitpro/devkitARM/bin/../lib/gcc/arm-none-eabi/4.9.2/crtend.o

.debug_frame
 *(.debug_frame)
OUTPUT(sherwin_adventure.elf elf32-littlearm)

.debug_line     0x0000000000000000       0xa2
 .debug_line    0x0000000000000000       0xa2 /opt/devkitpro/devkitARM/bin/../lib/gcc/arm-none-eabi/4.9.2/../../../../arm-none-eabi/lib/crt0.o

.debug_info     0x0000000000000000       0xc8
 .debug_info    0x0000000000000000       0xc8 /opt/devkitpro/devkitARM/bin/../lib/gcc/arm-none-eabi/4.9.2/../../../../arm-none-eabi/lib/crt0.o

.debug_abbrev   0x0000000000000000       0x14
 .debug_abbrev  0x0000000000000000       0x14 /opt/devkitpro/devkitARM/bin/../lib/gcc/arm-none-eabi/4.9.2/../../../../arm-none-eabi/lib/crt0.o

.debug_aranges  0x0000000000000000       0x20
 .debug_aranges
                0x0000000000000000       0x20 /opt/devkitpro/devkitARM/bin/../lib/gcc/arm-none-eabi/4.9.2/../../../../arm-none-eabi/lib/crt0.o
