Archive member included to satisfy reference by file (symbol)

./maxmod/lib/libmm.a(mm_main.o)
                              objs/main.thumb.o (mmFrame)
./maxmod/lib/libmm.a(mm_mas.o)
                              ./maxmod/lib/libmm.a(mm_main.o) (mmLayerMain)
./maxmod/lib/libmm.a(mm_init_default.o)
                              objs/main.thumb.o (mmInitDefault)
./maxmod/lib/libmm.a(mm_mixer_gba.o)
                              ./maxmod/lib/libmm.a(mm_init_default.o) (mmVBlank)
./maxmod/lib/libmm.a(mm_effect.o)
                              ./maxmod/lib/libmm.a(mm_main.o) (mmResetEffects)
./maxmod/lib/libmm.a(mm_mas_arm.o)
                              ./maxmod/lib/libmm.a(mm_mas.o) (mmAllocChannel)
/opt/devkitpro/devkitARM/bin/../lib/gcc/arm-none-eabi/4.9.2/libgcc.a(_call_via_rX.o)
                              ./maxmod/lib/libmm.a(mm_main.o) (_call_via_r1)
/opt/devkitpro/devkitARM/bin/../lib/gcc/arm-none-eabi/4.9.2/libgcc.a(unwind-arm.o)
                              objs/active_level_manager_class.arm.o (__aeabi_unwind_cpp_pr0)
/opt/devkitpro/devkitARM/bin/../lib/gcc/arm-none-eabi/4.9.2/libgcc.a(libunwind.o)
                              /opt/devkitpro/devkitARM/bin/../lib/gcc/arm-none-eabi/4.9.2/libgcc.a(unwind-arm.o) (restore_core_regs)
/opt/devkitpro/devkitARM/bin/../lib/gcc/arm-none-eabi/4.9.2/libgcc.a(pr-support.o)
                              /opt/devkitpro/devkitARM/bin/../lib/gcc/arm-none-eabi/4.9.2/libgcc.a(unwind-arm.o) (__gnu_unwind_execute)
/opt/devkitpro/devkitARM/bin/../lib/gcc/arm-none-eabi/4.9.2/../../../../arm-none-eabi/lib/libc.a(lib_a-abort.o)
                              /opt/devkitpro/devkitARM/bin/../lib/gcc/arm-none-eabi/4.9.2/libgcc.a(unwind-arm.o) (abort)
/opt/devkitpro/devkitARM/bin/../lib/gcc/arm-none-eabi/4.9.2/../../../../arm-none-eabi/lib/libc.a(lib_a-aeabi_atexit.o)
                              objs/active_level_class.thumb.o (__aeabi_atexit)
/opt/devkitpro/devkitARM/bin/../lib/gcc/arm-none-eabi/4.9.2/../../../../arm-none-eabi/lib/libc.a(lib_a-atexit.o)
                              /opt/devkitpro/devkitARM/bin/../lib/gcc/arm-none-eabi/4.9.2/../../../../arm-none-eabi/lib/crt0.o (atexit)
/opt/devkitpro/devkitARM/bin/../lib/gcc/arm-none-eabi/4.9.2/../../../../arm-none-eabi/lib/libc.a(lib_a-cxa_atexit.o)
                              /opt/devkitpro/devkitARM/bin/../lib/gcc/arm-none-eabi/4.9.2/../../../../arm-none-eabi/lib/libc.a(lib_a-aeabi_atexit.o) (__cxa_atexit)
/opt/devkitpro/devkitARM/bin/../lib/gcc/arm-none-eabi/4.9.2/../../../../arm-none-eabi/lib/libc.a(lib_a-exit.o)
                              /opt/devkitpro/devkitARM/bin/../lib/gcc/arm-none-eabi/4.9.2/../../../../arm-none-eabi/lib/crt0.o (exit)
/opt/devkitpro/devkitARM/bin/../lib/gcc/arm-none-eabi/4.9.2/../../../../arm-none-eabi/lib/libc.a(lib_a-fini.o)
                              /opt/devkitpro/devkitARM/bin/../lib/gcc/arm-none-eabi/4.9.2/../../../../arm-none-eabi/lib/crt0.o (__libc_fini_array)
/opt/devkitpro/devkitARM/bin/../lib/gcc/arm-none-eabi/4.9.2/../../../../arm-none-eabi/lib/libc.a(lib_a-impure.o)
                              /opt/devkitpro/devkitARM/bin/../lib/gcc/arm-none-eabi/4.9.2/../../../../arm-none-eabi/lib/libc.a(lib_a-exit.o) (_global_impure_ptr)
/opt/devkitpro/devkitARM/bin/../lib/gcc/arm-none-eabi/4.9.2/../../../../arm-none-eabi/lib/libc.a(lib_a-init.o)
                              /opt/devkitpro/devkitARM/bin/../lib/gcc/arm-none-eabi/4.9.2/../../../../arm-none-eabi/lib/crt0.o (__libc_init_array)
/opt/devkitpro/devkitARM/bin/../lib/gcc/arm-none-eabi/4.9.2/../../../../arm-none-eabi/lib/libc.a(lib_a-malloc.o)
                              ./maxmod/lib/libmm.a(mm_init_default.o) (malloc)
/opt/devkitpro/devkitARM/bin/../lib/gcc/arm-none-eabi/4.9.2/../../../../arm-none-eabi/lib/libc.a(lib_a-mallocr.o)
                              /opt/devkitpro/devkitARM/bin/../lib/gcc/arm-none-eabi/4.9.2/../../../../arm-none-eabi/lib/libc.a(lib_a-malloc.o) (_malloc_r)
/opt/devkitpro/devkitARM/bin/../lib/gcc/arm-none-eabi/4.9.2/../../../../arm-none-eabi/lib/libc.a(lib_a-memcpy.o)
                              /opt/devkitpro/devkitARM/bin/../lib/gcc/arm-none-eabi/4.9.2/libgcc.a(unwind-arm.o) (memcpy)
/opt/devkitpro/devkitARM/bin/../lib/gcc/arm-none-eabi/4.9.2/../../../../arm-none-eabi/lib/libc.a(lib_a-memset.o)
                              /opt/devkitpro/devkitARM/bin/../lib/gcc/arm-none-eabi/4.9.2/../../../../arm-none-eabi/lib/crt0.o (memset)
/opt/devkitpro/devkitARM/bin/../lib/gcc/arm-none-eabi/4.9.2/../../../../arm-none-eabi/lib/libc.a(lib_a-mlock.o)
                              /opt/devkitpro/devkitARM/bin/../lib/gcc/arm-none-eabi/4.9.2/../../../../arm-none-eabi/lib/libc.a(lib_a-mallocr.o) (__malloc_lock)
/opt/devkitpro/devkitARM/bin/../lib/gcc/arm-none-eabi/4.9.2/../../../../arm-none-eabi/lib/libc.a(lib_a-signal.o)
                              /opt/devkitpro/devkitARM/bin/../lib/gcc/arm-none-eabi/4.9.2/../../../../arm-none-eabi/lib/libc.a(lib_a-abort.o) (raise)
/opt/devkitpro/devkitARM/bin/../lib/gcc/arm-none-eabi/4.9.2/../../../../arm-none-eabi/lib/libc.a(lib_a-__atexit.o)
                              /opt/devkitpro/devkitARM/bin/../lib/gcc/arm-none-eabi/4.9.2/../../../../arm-none-eabi/lib/libc.a(lib_a-atexit.o) (__register_exitproc)
/opt/devkitpro/devkitARM/bin/../lib/gcc/arm-none-eabi/4.9.2/../../../../arm-none-eabi/lib/libc.a(lib_a-__call_atexit.o)
                              /opt/devkitpro/devkitARM/bin/../lib/gcc/arm-none-eabi/4.9.2/../../../../arm-none-eabi/lib/libc.a(lib_a-exit.o) (__call_exitprocs)
/opt/devkitpro/devkitARM/bin/../lib/gcc/arm-none-eabi/4.9.2/../../../../arm-none-eabi/lib/libc.a(lib_a-freer.o)
                              /opt/devkitpro/devkitARM/bin/../lib/gcc/arm-none-eabi/4.9.2/../../../../arm-none-eabi/lib/libc.a(lib_a-malloc.o) (_free_r)
/opt/devkitpro/devkitARM/bin/../lib/gcc/arm-none-eabi/4.9.2/../../../../arm-none-eabi/lib/libstdc++.a(del_op.o)
                              objs/active_level_class.thumb.o (operator delete(void*))
/opt/devkitpro/devkitARM/bin/../lib/gcc/arm-none-eabi/4.9.2/../../../../arm-none-eabi/lib/libstdc++.a(si_class_type_info.o)
                              objs/air_block_stuff_class.thumb.o (vtable for __cxxabiv1::__si_class_type_info)
/opt/devkitpro/devkitARM/bin/../lib/gcc/arm-none-eabi/4.9.2/../../../../arm-none-eabi/lib/libstdc++.a(tinfo.o)
                              /opt/devkitpro/devkitARM/bin/../lib/gcc/arm-none-eabi/4.9.2/../../../../arm-none-eabi/lib/libstdc++.a(si_class_type_info.o) (std::type_info::__is_pointer_p() const)
/opt/devkitpro/devkitARM/bin/../lib/gcc/arm-none-eabi/4.9.2/../../../../arm-none-eabi/lib/libstdc++.a(new_op.o)
                              objs/block_stuff.thumb.o (operator new(unsigned int))
/opt/devkitpro/devkitARM/bin/../lib/gcc/arm-none-eabi/4.9.2/../../../../arm-none-eabi/lib/libstdc++.a(new_handler.o)
                              /opt/devkitpro/devkitARM/bin/../lib/gcc/arm-none-eabi/4.9.2/../../../../arm-none-eabi/lib/libstdc++.a(new_op.o) (std::get_new_handler())
/opt/devkitpro/devkitARM/bin/../lib/gcc/arm-none-eabi/4.9.2/../../../../arm-none-eabi/lib/libstdc++.a(class_type_info.o)
                              /opt/devkitpro/devkitARM/bin/../lib/gcc/arm-none-eabi/4.9.2/../../../../arm-none-eabi/lib/libstdc++.a(si_class_type_info.o) (__cxxabiv1::__class_type_info::__do_upcast(__cxxabiv1::__class_type_info const*, void**) const)
/opt/devkitpro/devkitARM/bin/../lib/gcc/arm-none-eabi/4.9.2/../../../../arm-none-eabi/lib/libstdc++.a(bad_alloc.o)
                              /opt/devkitpro/devkitARM/bin/../lib/gcc/arm-none-eabi/4.9.2/../../../../arm-none-eabi/lib/libstdc++.a(new_op.o) (std::bad_alloc::~bad_alloc())
/opt/devkitpro/devkitARM/bin/../lib/gcc/arm-none-eabi/4.9.2/../../../../arm-none-eabi/lib/libstdc++.a(eh_throw.o)
                              /opt/devkitpro/devkitARM/bin/../lib/gcc/arm-none-eabi/4.9.2/../../../../arm-none-eabi/lib/libstdc++.a(new_op.o) (__cxa_throw)
/opt/devkitpro/devkitARM/bin/../lib/gcc/arm-none-eabi/4.9.2/../../../../arm-none-eabi/lib/libstdc++.a(eh_globals.o)
                              /opt/devkitpro/devkitARM/bin/../lib/gcc/arm-none-eabi/4.9.2/../../../../arm-none-eabi/lib/libstdc++.a(eh_throw.o) (__cxa_get_globals)
/opt/devkitpro/devkitARM/bin/../lib/gcc/arm-none-eabi/4.9.2/../../../../arm-none-eabi/lib/libstdc++.a(eh_catch.o)
                              /opt/devkitpro/devkitARM/bin/../lib/gcc/arm-none-eabi/4.9.2/../../../../arm-none-eabi/lib/libstdc++.a(eh_throw.o) (__cxa_begin_catch)
/opt/devkitpro/devkitARM/bin/../lib/gcc/arm-none-eabi/4.9.2/../../../../arm-none-eabi/lib/libstdc++.a(eh_alloc.o)
                              /opt/devkitpro/devkitARM/bin/../lib/gcc/arm-none-eabi/4.9.2/../../../../arm-none-eabi/lib/libstdc++.a(new_op.o) (__cxa_allocate_exception)
/opt/devkitpro/devkitARM/bin/../lib/gcc/arm-none-eabi/4.9.2/../../../../arm-none-eabi/lib/libstdc++.a(eh_exception.o)
                              /opt/devkitpro/devkitARM/bin/../lib/gcc/arm-none-eabi/4.9.2/../../../../arm-none-eabi/lib/libstdc++.a(bad_alloc.o) (std::exception::~exception())
/opt/devkitpro/devkitARM/bin/../lib/gcc/arm-none-eabi/4.9.2/../../../../arm-none-eabi/lib/libstdc++.a(eh_terminate.o)
                              /opt/devkitpro/devkitARM/bin/../lib/gcc/arm-none-eabi/4.9.2/../../../../arm-none-eabi/lib/libstdc++.a(eh_throw.o) (__cxxabiv1::__terminate(void (*)()))
/opt/devkitpro/devkitARM/bin/../lib/gcc/arm-none-eabi/4.9.2/../../../../arm-none-eabi/lib/libstdc++.a(eh_call.o)
                              /opt/devkitpro/devkitARM/bin/../lib/gcc/arm-none-eabi/4.9.2/../../../../arm-none-eabi/lib/libstdc++.a(eh_catch.o) (__cxa_call_unexpected)
/opt/devkitpro/devkitARM/bin/../lib/gcc/arm-none-eabi/4.9.2/../../../../arm-none-eabi/lib/libstdc++.a(eh_term_handler.o)
                              /opt/devkitpro/devkitARM/bin/../lib/gcc/arm-none-eabi/4.9.2/../../../../arm-none-eabi/lib/libstdc++.a(eh_terminate.o) (__cxxabiv1::__terminate_handler)
/opt/devkitpro/devkitARM/bin/../lib/gcc/arm-none-eabi/4.9.2/../../../../arm-none-eabi/lib/libstdc++.a(eh_personality.o)
                              /opt/devkitpro/devkitARM/bin/../lib/gcc/arm-none-eabi/4.9.2/../../../../arm-none-eabi/lib/libstdc++.a(eh_catch.o) (__gxx_personality_v0)
/opt/devkitpro/devkitARM/bin/../lib/gcc/arm-none-eabi/4.9.2/../../../../arm-none-eabi/lib/libstdc++.a(eh_arm.o)
                              /opt/devkitpro/devkitARM/bin/../lib/gcc/arm-none-eabi/4.9.2/../../../../arm-none-eabi/lib/libstdc++.a(eh_catch.o) (__cxa_end_cleanup)
/opt/devkitpro/devkitARM/bin/../lib/gcc/arm-none-eabi/4.9.2/../../../../arm-none-eabi/lib/libstdc++.a(vterminate.o)
                              /opt/devkitpro/devkitARM/bin/../lib/gcc/arm-none-eabi/4.9.2/../../../../arm-none-eabi/lib/libstdc++.a(eh_term_handler.o) (__gnu_cxx::__verbose_terminate_handler())
/opt/devkitpro/devkitARM/bin/../lib/gcc/arm-none-eabi/4.9.2/../../../../arm-none-eabi/lib/libstdc++.a(cp-demangle.o)
                              /opt/devkitpro/devkitARM/bin/../lib/gcc/arm-none-eabi/4.9.2/../../../../arm-none-eabi/lib/libstdc++.a(vterminate.o) (__cxa_demangle)
/opt/devkitpro/devkitARM/bin/../lib/gcc/arm-none-eabi/4.9.2/../../../../arm-none-eabi/lib/libstdc++.a(pure.o)
                              /opt/devkitpro/devkitARM/bin/../lib/gcc/arm-none-eabi/4.9.2/../../../../arm-none-eabi/lib/libstdc++.a(eh_exception.o) (__cxa_pure_virtual)
/opt/devkitpro/devkitARM/bin/../lib/gcc/arm-none-eabi/4.9.2/../../../../arm-none-eabi/lib/libstdc++.a(eh_type.o)
                              /opt/devkitpro/devkitARM/bin/../lib/gcc/arm-none-eabi/4.9.2/../../../../arm-none-eabi/lib/libstdc++.a(vterminate.o) (__cxa_current_exception_type)
/opt/devkitpro/devkitARM/bin/../lib/gcc/arm-none-eabi/4.9.2/../../../../arm-none-eabi/lib/libstdc++.a(eh_unex_handler.o)
                              /opt/devkitpro/devkitARM/bin/../lib/gcc/arm-none-eabi/4.9.2/../../../../arm-none-eabi/lib/libstdc++.a(eh_terminate.o) (__cxxabiv1::__unexpected_handler)
/opt/devkitpro/devkitARM/bin/../lib/gcc/arm-none-eabi/4.9.2/../../../../arm-none-eabi/lib/libc.a(lib_a-fputc.o)
                              /opt/devkitpro/devkitARM/bin/../lib/gcc/arm-none-eabi/4.9.2/../../../../arm-none-eabi/lib/libstdc++.a(vterminate.o) (fputc)
/opt/devkitpro/devkitARM/bin/../lib/gcc/arm-none-eabi/4.9.2/../../../../arm-none-eabi/lib/libc.a(lib_a-fputs.o)
                              /opt/devkitpro/devkitARM/bin/../lib/gcc/arm-none-eabi/4.9.2/../../../../arm-none-eabi/lib/libstdc++.a(vterminate.o) (fputs)
/opt/devkitpro/devkitARM/bin/../lib/gcc/arm-none-eabi/4.9.2/../../../../arm-none-eabi/lib/libc.a(lib_a-fvwrite.o)
                              /opt/devkitpro/devkitARM/bin/../lib/gcc/arm-none-eabi/4.9.2/../../../../arm-none-eabi/lib/libc.a(lib_a-fputs.o) (__sfvwrite_r)
/opt/devkitpro/devkitARM/bin/../lib/gcc/arm-none-eabi/4.9.2/../../../../arm-none-eabi/lib/libc.a(lib_a-fwrite.o)
                              /opt/devkitpro/devkitARM/bin/../lib/gcc/arm-none-eabi/4.9.2/../../../../arm-none-eabi/lib/libstdc++.a(vterminate.o) (fwrite)
/opt/devkitpro/devkitARM/bin/../lib/gcc/arm-none-eabi/4.9.2/../../../../arm-none-eabi/lib/libc.a(lib_a-memchr.o)
                              /opt/devkitpro/devkitARM/bin/../lib/gcc/arm-none-eabi/4.9.2/../../../../arm-none-eabi/lib/libc.a(lib_a-fvwrite.o) (memchr)
/opt/devkitpro/devkitARM/bin/../lib/gcc/arm-none-eabi/4.9.2/../../../../arm-none-eabi/lib/libc.a(lib_a-memcmp.o)
                              /opt/devkitpro/devkitARM/bin/../lib/gcc/arm-none-eabi/4.9.2/../../../../arm-none-eabi/lib/libstdc++.a(cp-demangle.o) (memcmp)
/opt/devkitpro/devkitARM/bin/../lib/gcc/arm-none-eabi/4.9.2/../../../../arm-none-eabi/lib/libc.a(lib_a-memmove.o)
                              /opt/devkitpro/devkitARM/bin/../lib/gcc/arm-none-eabi/4.9.2/../../../../arm-none-eabi/lib/libc.a(lib_a-fvwrite.o) (memmove)
/opt/devkitpro/devkitARM/bin/../lib/gcc/arm-none-eabi/4.9.2/../../../../arm-none-eabi/lib/libc.a(lib_a-putc.o)
                              /opt/devkitpro/devkitARM/bin/../lib/gcc/arm-none-eabi/4.9.2/../../../../arm-none-eabi/lib/libc.a(lib_a-fputc.o) (_putc_r)
/opt/devkitpro/devkitARM/bin/../lib/gcc/arm-none-eabi/4.9.2/../../../../arm-none-eabi/lib/libc.a(lib_a-realloc.o)
                              /opt/devkitpro/devkitARM/bin/../lib/gcc/arm-none-eabi/4.9.2/../../../../arm-none-eabi/lib/libstdc++.a(cp-demangle.o) (realloc)
/opt/devkitpro/devkitARM/bin/../lib/gcc/arm-none-eabi/4.9.2/../../../../arm-none-eabi/lib/libc.a(lib_a-reallocr.o)
                              /opt/devkitpro/devkitARM/bin/../lib/gcc/arm-none-eabi/4.9.2/../../../../arm-none-eabi/lib/libc.a(lib_a-fvwrite.o) (_realloc_r)
/opt/devkitpro/devkitARM/bin/../lib/gcc/arm-none-eabi/4.9.2/../../../../arm-none-eabi/lib/libc.a(lib_a-sprintf.o)
                              /opt/devkitpro/devkitARM/bin/../lib/gcc/arm-none-eabi/4.9.2/../../../../arm-none-eabi/lib/libstdc++.a(cp-demangle.o) (sprintf)
/opt/devkitpro/devkitARM/bin/../lib/gcc/arm-none-eabi/4.9.2/../../../../arm-none-eabi/lib/libc.a(lib_a-strcmp.o)
                              /opt/devkitpro/devkitARM/bin/../lib/gcc/arm-none-eabi/4.9.2/../../../../arm-none-eabi/lib/libstdc++.a(tinfo.o) (strcmp)
/opt/devkitpro/devkitARM/bin/../lib/gcc/arm-none-eabi/4.9.2/../../../../arm-none-eabi/lib/libc.a(lib_a-strlen.o)
                              /opt/devkitpro/devkitARM/bin/../lib/gcc/arm-none-eabi/4.9.2/../../../../arm-none-eabi/lib/libstdc++.a(cp-demangle.o) (strlen)
/opt/devkitpro/devkitARM/bin/../lib/gcc/arm-none-eabi/4.9.2/../../../../arm-none-eabi/lib/libc.a(lib_a-strncmp.o)
                              /opt/devkitpro/devkitARM/bin/../lib/gcc/arm-none-eabi/4.9.2/../../../../arm-none-eabi/lib/libstdc++.a(cp-demangle.o) (strncmp)
/opt/devkitpro/devkitARM/bin/../lib/gcc/arm-none-eabi/4.9.2/../../../../arm-none-eabi/lib/libc.a(lib_a-svfprintf.o)
                              /opt/devkitpro/devkitARM/bin/../lib/gcc/arm-none-eabi/4.9.2/../../../../arm-none-eabi/lib/libc.a(lib_a-sprintf.o) (_svfprintf_r)
/opt/devkitpro/devkitARM/bin/../lib/gcc/arm-none-eabi/4.9.2/../../../../arm-none-eabi/lib/libc.a(lib_a-syswrite.o)
                              /opt/devkitpro/devkitARM/bin/../lib/gcc/arm-none-eabi/4.9.2/../../../../arm-none-eabi/lib/libstdc++.a(pure.o) (write)
/opt/devkitpro/devkitARM/bin/../lib/gcc/arm-none-eabi/4.9.2/../../../../arm-none-eabi/lib/libc.a(lib_a-wbuf.o)
                              /opt/devkitpro/devkitARM/bin/../lib/gcc/arm-none-eabi/4.9.2/../../../../arm-none-eabi/lib/libc.a(lib_a-putc.o) (__swbuf_r)
/opt/devkitpro/devkitARM/bin/../lib/gcc/arm-none-eabi/4.9.2/../../../../arm-none-eabi/lib/libc.a(lib_a-wcrtomb.o)
                              /opt/devkitpro/devkitARM/bin/../lib/gcc/arm-none-eabi/4.9.2/../../../../arm-none-eabi/lib/libc.a(lib_a-svfprintf.o) (_wcrtomb_r)
/opt/devkitpro/devkitARM/bin/../lib/gcc/arm-none-eabi/4.9.2/../../../../arm-none-eabi/lib/libc.a(lib_a-wcsrtombs.o)
                              /opt/devkitpro/devkitARM/bin/../lib/gcc/arm-none-eabi/4.9.2/../../../../arm-none-eabi/lib/libc.a(lib_a-svfprintf.o) (_wcsrtombs_r)
/opt/devkitpro/devkitARM/bin/../lib/gcc/arm-none-eabi/4.9.2/../../../../arm-none-eabi/lib/libc.a(lib_a-wctomb_r.o)
                              /opt/devkitpro/devkitARM/bin/../lib/gcc/arm-none-eabi/4.9.2/../../../../arm-none-eabi/lib/libc.a(lib_a-wcrtomb.o) (__wctomb)
/opt/devkitpro/devkitARM/bin/../lib/gcc/arm-none-eabi/4.9.2/../../../../arm-none-eabi/lib/libc.a(lib_a-wsetup.o)
                              /opt/devkitpro/devkitARM/bin/../lib/gcc/arm-none-eabi/4.9.2/../../../../arm-none-eabi/lib/libc.a(lib_a-fvwrite.o) (__swsetup_r)
/opt/devkitpro/devkitARM/bin/../lib/gcc/arm-none-eabi/4.9.2/../../../../arm-none-eabi/lib/libc.a(lib_a-dtoa.o)
                              /opt/devkitpro/devkitARM/bin/../lib/gcc/arm-none-eabi/4.9.2/../../../../arm-none-eabi/lib/libc.a(lib_a-svfprintf.o) (_dtoa_r)
/opt/devkitpro/devkitARM/bin/../lib/gcc/arm-none-eabi/4.9.2/../../../../arm-none-eabi/lib/libc.a(lib_a-fflush.o)
                              /opt/devkitpro/devkitARM/bin/../lib/gcc/arm-none-eabi/4.9.2/../../../../arm-none-eabi/lib/libc.a(lib_a-fvwrite.o) (_fflush_r)
/opt/devkitpro/devkitARM/bin/../lib/gcc/arm-none-eabi/4.9.2/../../../../arm-none-eabi/lib/libc.a(lib_a-findfp.o)
                              /opt/devkitpro/devkitARM/bin/../lib/gcc/arm-none-eabi/4.9.2/../../../../arm-none-eabi/lib/libc.a(lib_a-fputc.o) (__sinit)
/opt/devkitpro/devkitARM/bin/../lib/gcc/arm-none-eabi/4.9.2/../../../../arm-none-eabi/lib/libc.a(lib_a-fwalk.o)
                              /opt/devkitpro/devkitARM/bin/../lib/gcc/arm-none-eabi/4.9.2/../../../../arm-none-eabi/lib/libc.a(lib_a-findfp.o) (_fwalk)
/opt/devkitpro/devkitARM/bin/../lib/gcc/arm-none-eabi/4.9.2/../../../../arm-none-eabi/lib/libc.a(lib_a-locale.o)
                              /opt/devkitpro/devkitARM/bin/../lib/gcc/arm-none-eabi/4.9.2/../../../../arm-none-eabi/lib/libc.a(lib_a-svfprintf.o) (__locale_charset)
/opt/devkitpro/devkitARM/bin/../lib/gcc/arm-none-eabi/4.9.2/../../../../arm-none-eabi/lib/libc.a(lib_a-makebuf.o)
                              /opt/devkitpro/devkitARM/bin/../lib/gcc/arm-none-eabi/4.9.2/../../../../arm-none-eabi/lib/libc.a(lib_a-wsetup.o) (__smakebuf_r)
/opt/devkitpro/devkitARM/bin/../lib/gcc/arm-none-eabi/4.9.2/../../../../arm-none-eabi/lib/libc.a(lib_a-mbtowc_r.o)
                              /opt/devkitpro/devkitARM/bin/../lib/gcc/arm-none-eabi/4.9.2/../../../../arm-none-eabi/lib/libc.a(lib_a-locale.o) (__utf8_mbtowc)
/opt/devkitpro/devkitARM/bin/../lib/gcc/arm-none-eabi/4.9.2/../../../../arm-none-eabi/lib/libc.a(lib_a-mprec.o)
                              /opt/devkitpro/devkitARM/bin/../lib/gcc/arm-none-eabi/4.9.2/../../../../arm-none-eabi/lib/libc.a(lib_a-dtoa.o) (_Balloc)
/opt/devkitpro/devkitARM/bin/../lib/gcc/arm-none-eabi/4.9.2/../../../../arm-none-eabi/lib/libc.a(lib_a-s_fpclassify.o)
                              /opt/devkitpro/devkitARM/bin/../lib/gcc/arm-none-eabi/4.9.2/../../../../arm-none-eabi/lib/libc.a(lib_a-svfprintf.o) (__fpclassifyd)
/opt/devkitpro/devkitARM/bin/../lib/gcc/arm-none-eabi/4.9.2/../../../../arm-none-eabi/lib/libc.a(lib_a-s_frexp.o)
                              /opt/devkitpro/devkitARM/bin/../lib/gcc/arm-none-eabi/4.9.2/../../../../arm-none-eabi/lib/libc.a(lib_a-svfprintf.o) (frexp)
/opt/devkitpro/devkitARM/bin/../lib/gcc/arm-none-eabi/4.9.2/../../../../arm-none-eabi/lib/libc.a(lib_a-stdio.o)
                              /opt/devkitpro/devkitARM/bin/../lib/gcc/arm-none-eabi/4.9.2/../../../../arm-none-eabi/lib/libc.a(lib_a-findfp.o) (__sread)
/opt/devkitpro/devkitARM/bin/../lib/gcc/arm-none-eabi/4.9.2/../../../../arm-none-eabi/lib/libc.a(lib_a-strcasecmp.o)
                              /opt/devkitpro/devkitARM/bin/../lib/gcc/arm-none-eabi/4.9.2/../../../../arm-none-eabi/lib/libc.a(lib_a-locale.o) (strcasecmp)
/opt/devkitpro/devkitARM/bin/../lib/gcc/arm-none-eabi/4.9.2/../../../../arm-none-eabi/lib/libc.a(lib_a-strcat.o)
                              /opt/devkitpro/devkitARM/bin/../lib/gcc/arm-none-eabi/4.9.2/../../../../arm-none-eabi/lib/libc.a(lib_a-locale.o) (strcat)
/opt/devkitpro/devkitARM/bin/../lib/gcc/arm-none-eabi/4.9.2/../../../../arm-none-eabi/lib/libc.a(lib_a-strchr.o)
                              /opt/devkitpro/devkitARM/bin/../lib/gcc/arm-none-eabi/4.9.2/../../../../arm-none-eabi/lib/libc.a(lib_a-locale.o) (strchr)
/opt/devkitpro/devkitARM/bin/../lib/gcc/arm-none-eabi/4.9.2/../../../../arm-none-eabi/lib/libc.a(lib_a-strcpy.o)
                              /opt/devkitpro/devkitARM/bin/../lib/gcc/arm-none-eabi/4.9.2/../../../../arm-none-eabi/lib/libc.a(lib_a-locale.o) (strcpy)
/opt/devkitpro/devkitARM/bin/../lib/gcc/arm-none-eabi/4.9.2/../../../../arm-none-eabi/lib/libc.a(lib_a-strlcpy.o)
                              /opt/devkitpro/devkitARM/bin/../lib/gcc/arm-none-eabi/4.9.2/../../../../arm-none-eabi/lib/libc.a(lib_a-locale.o) (strlcpy)
/opt/devkitpro/devkitARM/bin/../lib/gcc/arm-none-eabi/4.9.2/../../../../arm-none-eabi/lib/libc.a(lib_a-strncasecmp.o)
                              /opt/devkitpro/devkitARM/bin/../lib/gcc/arm-none-eabi/4.9.2/../../../../arm-none-eabi/lib/libc.a(lib_a-locale.o) (strncasecmp)
/opt/devkitpro/devkitARM/bin/../lib/gcc/arm-none-eabi/4.9.2/../../../../arm-none-eabi/lib/libc.a(lib_a-strncpy.o)
                              /opt/devkitpro/devkitARM/bin/../lib/gcc/arm-none-eabi/4.9.2/../../../../arm-none-eabi/lib/libc.a(lib_a-svfprintf.o) (strncpy)
/opt/devkitpro/devkitARM/bin/../lib/gcc/arm-none-eabi/4.9.2/../../../../arm-none-eabi/lib/libc.a(lib_a-strtol.o)
                              /opt/devkitpro/devkitARM/bin/../lib/gcc/arm-none-eabi/4.9.2/../../../../arm-none-eabi/lib/libc.a(lib_a-locale.o) (_strtol_r)
/opt/devkitpro/devkitARM/bin/../lib/gcc/arm-none-eabi/4.9.2/../../../../arm-none-eabi/lib/libc.a(lib_a-svfiprintf.o)
                              /opt/devkitpro/devkitARM/bin/../lib/gcc/arm-none-eabi/4.9.2/../../../../arm-none-eabi/lib/libc.a(lib_a-svfprintf.o) (__ssprint_r)
/opt/devkitpro/devkitARM/bin/../lib/gcc/arm-none-eabi/4.9.2/../../../../arm-none-eabi/lib/libc.a(lib_a-wcsnrtombs.o)
                              /opt/devkitpro/devkitARM/bin/../lib/gcc/arm-none-eabi/4.9.2/../../../../arm-none-eabi/lib/libc.a(lib_a-wcsrtombs.o) (_wcsnrtombs_r)
/opt/devkitpro/devkitARM/bin/../lib/gcc/arm-none-eabi/4.9.2/../../../../arm-none-eabi/lib/libc.a(lib_a-callocr.o)
                              /opt/devkitpro/devkitARM/bin/../lib/gcc/arm-none-eabi/4.9.2/../../../../arm-none-eabi/lib/libc.a(lib_a-mprec.o) (_calloc_r)
/opt/devkitpro/devkitARM/bin/../lib/gcc/arm-none-eabi/4.9.2/../../../../arm-none-eabi/lib/libc.a(lib_a-ctype_.o)
                              /opt/devkitpro/devkitARM/bin/../lib/gcc/arm-none-eabi/4.9.2/../../../../arm-none-eabi/lib/libc.a(lib_a-locale.o) (__set_ctype)
/opt/devkitpro/devkitARM/bin/../lib/gcc/arm-none-eabi/4.9.2/../../../../arm-none-eabi/lib/libc.a(lib_a-fclose.o)
                              /opt/devkitpro/devkitARM/bin/../lib/gcc/arm-none-eabi/4.9.2/../../../../arm-none-eabi/lib/libc.a(lib_a-findfp.o) (_fclose_r)
/opt/devkitpro/devkitARM/bin/../lib/gcc/arm-none-eabi/4.9.2/../../../../arm-none-eabi/lib/libc.a(lib_a-getenv_r.o)
                              /opt/devkitpro/devkitARM/bin/../lib/gcc/arm-none-eabi/4.9.2/../../../../arm-none-eabi/lib/libc.a(lib_a-locale.o) (_getenv_r)
/opt/devkitpro/devkitARM/bin/../lib/gcc/arm-none-eabi/4.9.2/../../../../arm-none-eabi/lib/libc.a(lib_a-environ.o)
                              /opt/devkitpro/devkitARM/bin/../lib/gcc/arm-none-eabi/4.9.2/../../../../arm-none-eabi/lib/libc.a(lib_a-getenv_r.o) (environ)
/opt/devkitpro/devkitARM/bin/../lib/gcc/arm-none-eabi/4.9.2/../../../../arm-none-eabi/lib/libc.a(lib_a-envlock.o)
                              /opt/devkitpro/devkitARM/bin/../lib/gcc/arm-none-eabi/4.9.2/../../../../arm-none-eabi/lib/libc.a(lib_a-getenv_r.o) (__env_lock)
/opt/devkitpro/devkitARM/bin/../lib/gcc/arm-none-eabi/4.9.2/../../../../arm-none-eabi/lib/libsysbase.a(close.o)
                              /opt/devkitpro/devkitARM/bin/../lib/gcc/arm-none-eabi/4.9.2/../../../../arm-none-eabi/lib/libc.a(lib_a-stdio.o) (_close_r)
/opt/devkitpro/devkitARM/bin/../lib/gcc/arm-none-eabi/4.9.2/../../../../arm-none-eabi/lib/libsysbase.a(fstat.o)
                              /opt/devkitpro/devkitARM/bin/../lib/gcc/arm-none-eabi/4.9.2/../../../../arm-none-eabi/lib/libc.a(lib_a-makebuf.o) (_fstat_r)
/opt/devkitpro/devkitARM/bin/../lib/gcc/arm-none-eabi/4.9.2/../../../../arm-none-eabi/lib/libsysbase.a(getpid.o)
                              /opt/devkitpro/devkitARM/bin/../lib/gcc/arm-none-eabi/4.9.2/../../../../arm-none-eabi/lib/libc.a(lib_a-signal.o) (_getpid_r)
/opt/devkitpro/devkitARM/bin/../lib/gcc/arm-none-eabi/4.9.2/../../../../arm-none-eabi/lib/libsysbase.a(isatty.o)
                              /opt/devkitpro/devkitARM/bin/../lib/gcc/arm-none-eabi/4.9.2/../../../../arm-none-eabi/lib/libc.a(lib_a-makebuf.o) (_isatty_r)
/opt/devkitpro/devkitARM/bin/../lib/gcc/arm-none-eabi/4.9.2/../../../../arm-none-eabi/lib/libsysbase.a(kill.o)
                              /opt/devkitpro/devkitARM/bin/../lib/gcc/arm-none-eabi/4.9.2/../../../../arm-none-eabi/lib/libc.a(lib_a-signal.o) (_kill_r)
/opt/devkitpro/devkitARM/bin/../lib/gcc/arm-none-eabi/4.9.2/../../../../arm-none-eabi/lib/libsysbase.a(lseek.o)
                              /opt/devkitpro/devkitARM/bin/../lib/gcc/arm-none-eabi/4.9.2/../../../../arm-none-eabi/lib/libc.a(lib_a-stdio.o) (_lseek_r)
/opt/devkitpro/devkitARM/bin/../lib/gcc/arm-none-eabi/4.9.2/../../../../arm-none-eabi/lib/libsysbase.a(read.o)
                              /opt/devkitpro/devkitARM/bin/../lib/gcc/arm-none-eabi/4.9.2/../../../../arm-none-eabi/lib/libc.a(lib_a-stdio.o) (_read_r)
/opt/devkitpro/devkitARM/bin/../lib/gcc/arm-none-eabi/4.9.2/../../../../arm-none-eabi/lib/libsysbase.a(sbrk.o)
                              /opt/devkitpro/devkitARM/bin/../lib/gcc/arm-none-eabi/4.9.2/../../../../arm-none-eabi/lib/libc.a(lib_a-mallocr.o) (_sbrk_r)
/opt/devkitpro/devkitARM/bin/../lib/gcc/arm-none-eabi/4.9.2/../../../../arm-none-eabi/lib/libsysbase.a(write.o)
                              /opt/devkitpro/devkitARM/bin/../lib/gcc/arm-none-eabi/4.9.2/../../../../arm-none-eabi/lib/libc.a(lib_a-syswrite.o) (_write_r)
/opt/devkitpro/devkitARM/bin/../lib/gcc/arm-none-eabi/4.9.2/../../../../arm-none-eabi/lib/libsysbase.a(_exit.o)
                              /opt/devkitpro/devkitARM/bin/../lib/gcc/arm-none-eabi/4.9.2/../../../../arm-none-eabi/lib/libc.a(lib_a-abort.o) (_exit)
/opt/devkitpro/devkitARM/bin/../lib/gcc/arm-none-eabi/4.9.2/../../../../arm-none-eabi/lib/libsysbase.a(malloc_vars.o)
                              /opt/devkitpro/devkitARM/bin/../lib/gcc/arm-none-eabi/4.9.2/../../../../arm-none-eabi/lib/libsysbase.a(sbrk.o) (fake_heap_start)
/opt/devkitpro/devkitARM/bin/../lib/gcc/arm-none-eabi/4.9.2/../../../../arm-none-eabi/lib/libsysbase.a(flock.o)
                              /opt/devkitpro/devkitARM/bin/../lib/gcc/arm-none-eabi/4.9.2/../../../../arm-none-eabi/lib/libc.a(lib_a-fputc.o) (__flockfile)
/opt/devkitpro/devkitARM/bin/../lib/gcc/arm-none-eabi/4.9.2/../../../../arm-none-eabi/lib/libsysbase.a(syscall_support.o)
                              /opt/devkitpro/devkitARM/bin/../lib/gcc/arm-none-eabi/4.9.2/../../../../arm-none-eabi/lib/libsysbase.a(_exit.o) (__syscalls)
/opt/devkitpro/devkitARM/bin/../lib/gcc/arm-none-eabi/4.9.2/../../../../arm-none-eabi/lib/libsysbase.a(handle_manager.o)
                              /opt/devkitpro/devkitARM/bin/../lib/gcc/arm-none-eabi/4.9.2/../../../../arm-none-eabi/lib/libsysbase.a(close.o) (__release_handle)
/opt/devkitpro/devkitARM/bin/../lib/gcc/arm-none-eabi/4.9.2/../../../../arm-none-eabi/lib/libsysbase.a(getreent.o)
                              /opt/devkitpro/devkitARM/bin/../lib/gcc/arm-none-eabi/4.9.2/../../../../arm-none-eabi/lib/libc.a(lib_a-malloc.o) (__getreent)
/opt/devkitpro/devkitARM/bin/../lib/gcc/arm-none-eabi/4.9.2/../../../../arm-none-eabi/lib/libsysbase.a(iosupport.o)
                              /opt/devkitpro/devkitARM/bin/../lib/gcc/arm-none-eabi/4.9.2/../../../../arm-none-eabi/lib/libsysbase.a(close.o) (devoptab_list)
/opt/devkitpro/devkitARM/bin/../lib/gcc/arm-none-eabi/4.9.2/libgcc.a(_udivsi3.o)
                              /opt/devkitpro/devkitARM/bin/../lib/gcc/arm-none-eabi/4.9.2/../../../../arm-none-eabi/lib/libc.a(lib_a-fwrite.o) (__aeabi_uidiv)
/opt/devkitpro/devkitARM/bin/../lib/gcc/arm-none-eabi/4.9.2/libgcc.a(_divsi3.o)
                              /opt/devkitpro/devkitARM/bin/../lib/gcc/arm-none-eabi/4.9.2/../../../../arm-none-eabi/lib/libc.a(lib_a-fvwrite.o) (__aeabi_idiv)
/opt/devkitpro/devkitARM/bin/../lib/gcc/arm-none-eabi/4.9.2/libgcc.a(_dvmd_tls.o)
                              /opt/devkitpro/devkitARM/bin/../lib/gcc/arm-none-eabi/4.9.2/libgcc.a(_udivsi3.o) (__aeabi_idiv0)
/opt/devkitpro/devkitARM/bin/../lib/gcc/arm-none-eabi/4.9.2/libgcc.a(_arm_addsubdf3.o)
                              /opt/devkitpro/devkitARM/bin/../lib/gcc/arm-none-eabi/4.9.2/../../../../arm-none-eabi/lib/libc.a(lib_a-svfprintf.o) (__aeabi_dsub)
/opt/devkitpro/devkitARM/bin/../lib/gcc/arm-none-eabi/4.9.2/libgcc.a(_arm_muldivdf3.o)
                              /opt/devkitpro/devkitARM/bin/../lib/gcc/arm-none-eabi/4.9.2/../../../../arm-none-eabi/lib/libc.a(lib_a-svfprintf.o) (__aeabi_dmul)
/opt/devkitpro/devkitARM/bin/../lib/gcc/arm-none-eabi/4.9.2/libgcc.a(_arm_cmpdf2.o)
                              /opt/devkitpro/devkitARM/bin/../lib/gcc/arm-none-eabi/4.9.2/../../../../arm-none-eabi/lib/libc.a(lib_a-svfprintf.o) (__aeabi_dcmpeq)
/opt/devkitpro/devkitARM/bin/../lib/gcc/arm-none-eabi/4.9.2/libgcc.a(_arm_fixdfsi.o)
                              /opt/devkitpro/devkitARM/bin/../lib/gcc/arm-none-eabi/4.9.2/../../../../arm-none-eabi/lib/libc.a(lib_a-svfprintf.o) (__aeabi_d2iz)
/opt/devkitpro/devkitARM/bin/../lib/gcc/arm-none-eabi/4.9.2/libgcc.a(_aeabi_uldivmod.o)
                              /opt/devkitpro/devkitARM/bin/../lib/gcc/arm-none-eabi/4.9.2/../../../../arm-none-eabi/lib/libc.a(lib_a-svfprintf.o) (__aeabi_uldivmod)
/opt/devkitpro/devkitARM/bin/../lib/gcc/arm-none-eabi/4.9.2/libgcc.a(bpabi.o)
                              /opt/devkitpro/devkitARM/bin/../lib/gcc/arm-none-eabi/4.9.2/libgcc.a(_aeabi_uldivmod.o) (__gnu_uldivmod_helper)
/opt/devkitpro/devkitARM/bin/../lib/gcc/arm-none-eabi/4.9.2/libgcc.a(_divdi3.o)
                              /opt/devkitpro/devkitARM/bin/../lib/gcc/arm-none-eabi/4.9.2/libgcc.a(bpabi.o) (__divdi3)
/opt/devkitpro/devkitARM/bin/../lib/gcc/arm-none-eabi/4.9.2/libgcc.a(_udivdi3.o)
                              /opt/devkitpro/devkitARM/bin/../lib/gcc/arm-none-eabi/4.9.2/libgcc.a(bpabi.o) (__udivdi3)
/opt/devkitpro/devkitARM/bin/../lib/gcc/arm-none-eabi/4.9.2/libgcc.a(_clzdi2.o)
                              /opt/devkitpro/devkitARM/bin/../lib/gcc/arm-none-eabi/4.9.2/libgcc.a(_divdi3.o) (__clzdi2)
/opt/devkitpro/devkitARM/bin/../lib/gcc/arm-none-eabi/4.9.2/libgcc.a(_clzsi2.o)
                              /opt/devkitpro/devkitARM/bin/../lib/gcc/arm-none-eabi/4.9.2/libgcc.a(_clzdi2.o) (__clzsi2)
/opt/devkitpro/devkitARM/bin/../lib/gcc/arm-none-eabi/4.9.2/../../../../arm-none-eabi/lib/libc.a(lib_a-errno.o)
                              /opt/devkitpro/devkitARM/bin/../lib/gcc/arm-none-eabi/4.9.2/../../../../arm-none-eabi/lib/libsysbase.a(handle_manager.o) (__errno)

Discarded input sections

 .group         0x0000000000000000       0x10 objs/active_level_class.thumb.o
 .group         0x0000000000000000       0x10 objs/block_stuff.thumb.o
 .group         0x0000000000000000       0x10 objs/block_stuff.thumb.o
 .group         0x0000000000000000       0x10 objs/block_stuff.thumb.o
 .group         0x0000000000000000       0x10 objs/block_stuff.thumb.o
 .group         0x0000000000000000       0x10 objs/block_stuff.thumb.o
 .group         0x0000000000000000       0x10 objs/block_stuff.thumb.o
 .group         0x0000000000000000       0x10 objs/block_stuff.thumb.o
 .group         0x0000000000000000       0x10 objs/block_stuff.thumb.o
 .group         0x0000000000000000       0x10 objs/block_stuff.thumb.o
 .group         0x0000000000000000       0x10 objs/block_stuff.thumb.o
 .group         0x0000000000000000       0x10 objs/block_stuff.thumb.o
 .group         0x0000000000000000       0x10 objs/block_stuff.thumb.o
 .group         0x0000000000000000       0x10 objs/block_stuff.thumb.o
 .group         0x0000000000000000       0x10 objs/block_stuff.thumb.o
 .group         0x0000000000000000       0x10 objs/block_stuff.thumb.o
 .group         0x0000000000000000       0x10 objs/block_stuff.thumb.o
 .group         0x0000000000000000       0x10 objs/block_stuff.thumb.o
 .group         0x0000000000000000       0x10 objs/block_stuff.thumb.o
 .group         0x0000000000000000       0x10 objs/block_stuff.thumb.o
 .group         0x0000000000000000       0x10 objs/block_stuff.thumb.o
 .group         0x0000000000000000       0x10 objs/block_stuff.thumb.o
 .group         0x0000000000000000       0x10 objs/block_stuff.thumb.o
 .group         0x0000000000000000       0x10 objs/block_stuff.thumb.o
 .group         0x0000000000000000       0x10 objs/block_stuff.thumb.o
 .group         0x0000000000000000       0x10 objs/block_stuff.thumb.o
 .group         0x0000000000000000       0x10 objs/block_stuff.thumb.o
 .group         0x0000000000000000       0x10 objs/block_stuff.thumb.o
 .group         0x0000000000000000       0x10 objs/block_stuff.thumb.o
 .group         0x0000000000000000       0x10 objs/block_stuff.thumb.o
 .group         0x0000000000000000       0x10 objs/block_stuff.thumb.o
 .group         0x0000000000000000       0x10 objs/block_stuff.thumb.o
 .group         0x0000000000000000       0x10 objs/block_stuff.thumb.o
 .group         0x0000000000000000       0x10 objs/block_stuff.thumb.o
 .group         0x0000000000000000       0x10 objs/block_stuff.thumb.o
 .group         0x0000000000000000       0x10 objs/block_stuff.thumb.o
 .group         0x0000000000000000       0x10 objs/block_stuff.thumb.o
 .group         0x0000000000000000       0x10 objs/block_stuff.thumb.o
 .group         0x0000000000000000       0x10 objs/block_stuff.thumb.o
 .group         0x0000000000000000       0x10 objs/block_stuff.thumb.o
 .group         0x0000000000000000       0x10 objs/block_stuff.thumb.o
 .group         0x0000000000000000       0x10 objs/block_stuff.thumb.o
 .group         0x0000000000000000       0x10 objs/block_stuff.thumb.o
 .group         0x0000000000000000       0x10 objs/block_stuff.thumb.o
 .group         0x0000000000000000       0x10 objs/block_stuff.thumb.o
 .group         0x0000000000000000       0x10 objs/block_stuff.thumb.o
 .group         0x0000000000000000       0x10 objs/block_stuff.thumb.o
 .group         0x0000000000000000       0x10 objs/block_stuff.thumb.o
 .group         0x0000000000000000       0x10 objs/block_stuff.thumb.o
 .group         0x0000000000000000       0x10 objs/block_stuff.thumb.o
 .group         0x0000000000000000       0x10 objs/block_stuff.thumb.o
 .group         0x0000000000000000       0x10 objs/block_stuff.thumb.o
 .group         0x0000000000000000       0x10 objs/block_stuff.thumb.o
 .group         0x0000000000000000       0x10 objs/block_stuff.thumb.o
 .group         0x0000000000000000       0x10 objs/block_stuff.thumb.o
 .group         0x0000000000000000        0x8 objs/block_stuff.thumb.o
 .group         0x0000000000000000        0x8 objs/block_stuff.thumb.o
 .group         0x0000000000000000        0x8 objs/block_stuff.thumb.o
 .group         0x0000000000000000        0x8 objs/block_stuff.thumb.o
 .group         0x0000000000000000        0x8 objs/block_stuff.thumb.o
 .group         0x0000000000000000        0x8 objs/block_stuff.thumb.o
 .group         0x0000000000000000        0x8 objs/block_stuff.thumb.o
 .group         0x0000000000000000        0x8 objs/block_stuff.thumb.o
 .group         0x0000000000000000        0x8 objs/block_stuff.thumb.o
 .group         0x0000000000000000        0x8 objs/block_stuff.thumb.o
 .group         0x0000000000000000        0x8 objs/block_stuff.thumb.o
 .group         0x0000000000000000        0x8 objs/block_stuff.thumb.o
 .group         0x0000000000000000        0x8 objs/block_stuff.thumb.o
 .group         0x0000000000000000        0x8 objs/block_stuff.thumb.o
 .group         0x0000000000000000        0x8 objs/block_stuff.thumb.o
 .group         0x0000000000000000        0x8 objs/block_stuff.thumb.o
 .group         0x0000000000000000        0x8 objs/block_stuff.thumb.o
 .group         0x0000000000000000        0x8 objs/block_stuff.thumb.o
 .group         0x0000000000000000        0x8 objs/block_stuff.thumb.o
 .group         0x0000000000000000        0x8 objs/block_stuff.thumb.o
 .group         0x0000000000000000        0x8 objs/block_stuff.thumb.o
 .group         0x0000000000000000        0x8 objs/block_stuff.thumb.o
 .group         0x0000000000000000        0x8 objs/block_stuff.thumb.o
 .group         0x0000000000000000        0x8 objs/block_stuff.thumb.o
 .group         0x0000000000000000        0x8 objs/block_stuff.thumb.o
 .group         0x0000000000000000        0x8 objs/block_stuff.thumb.o
 .group         0x0000000000000000        0x8 objs/block_stuff.thumb.o
 .group         0x0000000000000000        0x8 objs/block_stuff.thumb.o
 .group         0x0000000000000000        0x8 objs/block_stuff.thumb.o
 .group         0x0000000000000000        0x8 objs/block_stuff.thumb.o
 .group         0x0000000000000000        0x8 objs/block_stuff.thumb.o
 .group         0x0000000000000000        0x8 objs/block_stuff.thumb.o
 .group         0x0000000000000000        0x8 objs/block_stuff.thumb.o
 .group         0x0000000000000000        0x8 objs/block_stuff.thumb.o
 .group         0x0000000000000000        0x8 objs/block_stuff.thumb.o
 .group         0x0000000000000000        0x8 objs/block_stuff.thumb.o
 .group         0x0000000000000000        0x8 objs/block_stuff.thumb.o
 .group         0x0000000000000000        0x8 objs/block_stuff.thumb.o
 .group         0x0000000000000000        0x8 objs/block_stuff.thumb.o
 .group         0x0000000000000000        0x8 objs/block_stuff.thumb.o
 .group         0x0000000000000000        0x8 objs/block_stuff.thumb.o
 .group         0x0000000000000000        0x8 objs/block_stuff.thumb.o
 .group         0x0000000000000000        0x8 objs/block_stuff.thumb.o
 .group         0x0000000000000000        0x8 objs/block_stuff.thumb.o
 .group         0x0000000000000000        0x8 objs/block_stuff.thumb.o
 .group         0x0000000000000000        0x8 objs/block_stuff.thumb.o
 .group         0x0000000000000000        0x8 objs/block_stuff.thumb.o
 .group         0x0000000000000000        0x8 objs/block_stuff.thumb.o
 .group         0x0000000000000000        0x8 objs/block_stuff.thumb.o
 .group         0x0000000000000000        0x8 objs/block_stuff.thumb.o
 .group         0x0000000000000000        0x8 objs/block_stuff.thumb.o
 .group         0x0000000000000000        0x8 objs/block_stuff.thumb.o
 .group         0x0000000000000000        0x8 objs/block_stuff.thumb.o
 .group         0x0000000000000000        0x8 objs/block_stuff.thumb.o
 .group         0x0000000000000000       0x10 objs/main.thumb.o
 .group         0x0000000000000000       0x10 objs/player_sprite_stuff_class.thumb.o
 .group         0x0000000000000000       0x10 objs/player_sprite_stuff_class.thumb.o
 .group         0x0000000000000000       0x10 objs/player_sprite_stuff_class.thumb.o
 .group         0x0000000000000000       0x10 objs/player_sprite_stuff_class.thumb.o
 .group         0x0000000000000000       0x10 objs/sprite_base_stuff_class.thumb.o
 .group         0x0000000000000000       0x10 objs/sprite_base_stuff_class.thumb.o
 .group         0x0000000000000000       0x10 objs/sprite_gfx_stuff.thumb.o
 .group         0x0000000000000000       0x10 objs/sprite_gfx_stuff.thumb.o
 .text._ZNK17sprite_base_stuff12get_tile_arrEv
                0x0000000000000000        0x8 objs/sprite_gfx_stuff.thumb.o
 .ARM.extab.text._ZNK17sprite_base_stuff12get_tile_arrEv
                0x0000000000000000        0x0 objs/sprite_gfx_stuff.thumb.o
 .ARM.exidx.text._ZNK17sprite_base_stuff12get_tile_arrEv
                0x0000000000000000        0x8 objs/sprite_gfx_stuff.thumb.o
 .text._ZN17sprite_base_stuff24get_num_active_gfx_tilesEv
                0x0000000000000000        0x4 objs/sprite_gfx_stuff.thumb.o
 .ARM.extab.text._ZN17sprite_base_stuff24get_num_active_gfx_tilesEv
                0x0000000000000000        0x0 objs/sprite_gfx_stuff.thumb.o
 .ARM.exidx.text._ZN17sprite_base_stuff24get_num_active_gfx_tilesEv
                0x0000000000000000        0x8 objs/sprite_gfx_stuff.thumb.o
 .group         0x0000000000000000       0x10 objs/sprite_manager_class.thumb.o
 .group         0x0000000000000000       0x10 objs/sprite_type_stuff.thumb.o
 .group         0x0000000000000000       0x10 objs/sprite_type_stuff.thumb.o
 .group         0x0000000000000000       0x10 objs/sprite_type_stuff.thumb.o
 .group         0x0000000000000000       0x10 objs/sprite_type_stuff.thumb.o
 .group         0x0000000000000000       0x10 objs/sprite_type_stuff.thumb.o
 .group         0x0000000000000000       0x10 objs/sprite_type_stuff.thumb.o
 .group         0x0000000000000000       0x10 objs/sprite_type_stuff.thumb.o
 .group         0x0000000000000000       0x10 objs/sprite_type_stuff.thumb.o
 .group         0x0000000000000000       0x10 objs/sprite_type_stuff.thumb.o
 .group         0x0000000000000000       0x10 objs/sprite_type_stuff.thumb.o
 .group         0x0000000000000000       0x10 objs/sprite_type_stuff.thumb.o
 .group         0x0000000000000000       0x10 objs/sprite_type_stuff.thumb.o
 .group         0x0000000000000000       0x10 objs/sprite_type_stuff.thumb.o
 .group         0x0000000000000000       0x10 objs/sprite_type_stuff.thumb.o
 .group         0x0000000000000000       0x10 objs/sprite_type_stuff.thumb.o
 .group         0x0000000000000000       0x10 objs/sprite_type_stuff.thumb.o
 .group         0x0000000000000000       0x10 objs/sprite_type_stuff.thumb.o
 .group         0x0000000000000000       0x10 objs/sprite_type_stuff.thumb.o
 .group         0x0000000000000000       0x10 objs/sprite_type_stuff.thumb.o
 .group         0x0000000000000000       0x10 objs/sprite_type_stuff.thumb.o
 .group         0x0000000000000000       0x10 objs/sprite_type_stuff.thumb.o
 .group         0x0000000000000000       0x10 objs/sprite_type_stuff.thumb.o
 .group         0x0000000000000000       0x10 objs/sprite_type_stuff.thumb.o
 .group         0x0000000000000000       0x10 objs/sprite_type_stuff.thumb.o
 .group         0x0000000000000000       0x10 objs/sprite_type_stuff.thumb.o
 .group         0x0000000000000000        0x8 objs/sprite_type_stuff.thumb.o
 .group         0x0000000000000000        0x8 objs/sprite_type_stuff.thumb.o
 .group         0x0000000000000000        0x8 objs/sprite_type_stuff.thumb.o
 .group         0x0000000000000000        0x8 objs/sprite_type_stuff.thumb.o
 .group         0x0000000000000000        0x8 objs/sprite_type_stuff.thumb.o
 .group         0x0000000000000000        0x8 objs/sprite_type_stuff.thumb.o
 .group         0x0000000000000000        0x8 objs/sprite_type_stuff.thumb.o
 .group         0x0000000000000000        0x8 objs/sprite_type_stuff.thumb.o
 .group         0x0000000000000000        0x8 objs/sprite_type_stuff.thumb.o
 .group         0x0000000000000000        0x8 objs/sprite_type_stuff.thumb.o
 .group         0x0000000000000000        0x8 objs/sprite_type_stuff.thumb.o
 .group         0x0000000000000000        0x8 objs/sprite_type_stuff.thumb.o
 .group         0x0000000000000000        0x8 objs/sprite_type_stuff.thumb.o
 .group         0x0000000000000000        0x8 objs/sprite_type_stuff.thumb.o
 .group         0x0000000000000000        0x8 objs/sprite_type_stuff.thumb.o
 .group         0x0000000000000000       0x10 objs/waffle_sprite_stuff_class.thumb.o
 .group         0x0000000000000000       0x10 objs/waffle_sprite_stuff_class.thumb.o
 .group         0x0000000000000000       0x10 objs/waffle_sprite_stuff_class.thumb.o
 .group         0x0000000000000000       0x10 objs/waffle_sprite_stuff_class.thumb.o
 .group         0x0000000000000000       0x10 objs/waffle_sprite_stuff_class.thumb.o
 .group         0x0000000000000000       0x10 objs/waffle_sprite_stuff_class.thumb.o

Memory Configuration

Name             Origin             Length             Attributes
rom              0x0000000008000000 0x0000000002000000
iwram            0x0000000003000000 0x0000000000008000
ewram            0x0000000002000000 0x0000000000040000
sram             0x000000000e000000 0x0000000000010000
*default*        0x0000000000000000 0xffffffffffffffff

Linker script and memory map

LOAD /opt/devkitpro/devkitARM/bin/../lib/gcc/arm-none-eabi/4.9.2/crti.o
LOAD /opt/devkitpro/devkitARM/bin/../lib/gcc/arm-none-eabi/4.9.2/crtbegin.o
LOAD /opt/devkitpro/devkitARM/bin/../lib/gcc/arm-none-eabi/4.9.2/../../../../arm-none-eabi/lib/crt0.o
LOAD objs/active_level_class.thumb.o
LOAD objs/active_level_manager_class.arm.o
LOAD objs/active_level_manager_class.thumb.o
LOAD objs/air_block_stuff_class.thumb.o
LOAD objs/asm_init.o
LOAD objs/bg_reg_stuff.arm.o
LOAD objs/block_base_stuff_class.thumb.o
LOAD objs/block_stuff.thumb.o
LOAD objs/button_stuff.thumb.o
LOAD objs/coll_box_class.arm.o
LOAD objs/coll_box_class.thumb.o
LOAD objs/coll_point_group_class.thumb.o
LOAD objs/debug_vars.thumb.o
LOAD objs/division_funcs.o
LOAD objs/dma_stuff.thumb.o
LOAD objs/dud_block_stuff_class.thumb.o
LOAD objs/exclam_block_stuff_classes.thumb.o
LOAD objs/eyes_block_stuff_classes.thumb.o
LOAD objs/fixed_classes.thumb.o
LOAD objs/grass_and_dirt_block_stuff_classes.thumb.o
LOAD objs/interrupt_stuff.arm.o
LOAD objs/interrupt_stuff.thumb.o
LOAD objs/level_class.thumb.o
LOAD objs/log_block_stuff_class.thumb.o
LOAD objs/main.thumb.o
LOAD objs/memcpy32_from_tonc.o
LOAD objs/memory_funcs_8bit.o
LOAD objs/muffin_sprite_stuff_classes.thumb.o
LOAD objs/oam_entry_classes.thumb.o
LOAD objs/player_sprite_stuff_class.thumb.o
LOAD objs/practice_17.bin.o
LOAD objs/ram_funcs1.o
LOAD objs/sherwin_gfx.o
LOAD objs/sprite_base_stuff_class.arm.o
LOAD objs/sprite_base_stuff_class.thumb.o
LOAD objs/sprite_class.thumb.o
LOAD objs/sprite_gfx_stuff.thumb.o
LOAD objs/sprite_manager_class.arm.o
LOAD objs/sprite_manager_class.thumb.o
LOAD objs/sprite_type_stuff.thumb.o
LOAD objs/sublevel_class.thumb.o
LOAD objs/test_level.thumb.o
LOAD objs/the_block_gfx.o
LOAD objs/the_block_like_sprites_gfx.o
LOAD objs/the_golem_enemy_gfx.o
LOAD objs/the_powerup_gfx.o
LOAD objs/title_screen.o
LOAD objs/waffle_sprite_stuff_class.arm.o
LOAD objs/waffle_sprite_stuff_class.thumb.o
LOAD objs/warp_block_sprite_stuff_class.thumb.o
LOAD objs/wood_block_stuff_classes.thumb.o
LOAD /opt/devkitpro/devkitARM/bin/../lib/gcc/arm-none-eabi/4.9.2/../../../../arm-none-eabi/lib/librdimon.a
LOAD /opt/devkitpro/devkitARM/bin/../lib/gcc/arm-none-eabi/4.9.2/../../../../arm-none-eabi/lib/librdpmon.a
LOAD ./maxmod/lib/libmm.a
LOAD /opt/devkitpro/devkitARM/bin/../lib/gcc/arm-none-eabi/4.9.2/libgcc.a
LOAD /opt/devkitpro/devkitARM/bin/../lib/gcc/arm-none-eabi/4.9.2/../../../../arm-none-eabi/lib/libc.a
LOAD /opt/devkitpro/devkitARM/bin/../lib/gcc/arm-none-eabi/4.9.2/../../../../arm-none-eabi/lib/libstdc++.a
START GROUP
LOAD /opt/devkitpro/devkitARM/bin/../lib/gcc/arm-none-eabi/4.9.2/libgcc.a
LOAD /opt/devkitpro/devkitARM/bin/../lib/gcc/arm-none-eabi/4.9.2/../../../../arm-none-eabi/lib/libc.a
LOAD /opt/devkitpro/devkitARM/bin/../lib/gcc/arm-none-eabi/4.9.2/../../../../arm-none-eabi/lib/libsysbase.a
END GROUP
LOAD /opt/devkitpro/devkitARM/bin/../lib/gcc/arm-none-eabi/4.9.2/crtend.o
LOAD /opt/devkitpro/devkitARM/bin/../lib/gcc/arm-none-eabi/4.9.2/crtn.o
                0x0000000008000000                __text_start = ORIGIN (rom)
                0x0000000002000000                __ewram_start = ORIGIN (ewram)
                0x0000000003000000                __iwram_start = ORIGIN (iwram)
                0x000000000e000000                __sram_start = ORIGIN (sram)
                0x0000000008000000                . = __text_start

.startup        0x0000000008000000      0x254
 *(.startup)
 .startup       0x0000000008000000      0x254 objs/asm_init.o
                0x0000000008000000                _start2
                0x0000000008000100                next
 *(.asm_text)
                0x0000000008000254                . = ALIGN (0x4)

.text           0x0000000008000258    0x73fc8
 CREATE_OBJECT_SYMBOLS
 *(.text .text.* .gnu.linkonce.t.*)
 .text          0x0000000008000258        0x0 /opt/devkitpro/devkitARM/bin/../lib/gcc/arm-none-eabi/4.9.2/crti.o
 .text          0x0000000008000258      0x108 /opt/devkitpro/devkitARM/bin/../lib/gcc/arm-none-eabi/4.9.2/crtbegin.o
 .text          0x0000000008000360      0x104 /opt/devkitpro/devkitARM/bin/../lib/gcc/arm-none-eabi/4.9.2/../../../../arm-none-eabi/lib/crt0.o
                0x0000000008000360                _mainCRTStartup
                0x0000000008000360                _start
 .text          0x0000000008000464        0x0 objs/active_level_class.thumb.o
 .text._ZNSt5arrayISt12forward_listI23sprite_init_param_groupSaIS1_EELj512EED2Ev
                0x0000000008000464       0x2c objs/active_level_class.thumb.o
                0x0000000008000464                std::array<std::forward_list<sprite_init_param_group, std::allocator<sprite_init_param_group> >, 512u>::~array()
                0x0000000008000464                std::array<std::forward_list<sprite_init_param_group, std::allocator<sprite_init_param_group> >, 512u>::~array()
 .text.startup  0x0000000008000490       0x78 objs/active_level_class.thumb.o
 .text          0x0000000008000508        0x0 objs/active_level_manager_class.arm.o
 .text          0x0000000008000508        0x0 objs/active_level_manager_class.thumb.o
 .text          0x0000000008000508        0x0 objs/air_block_stuff_class.thumb.o
 .text          0x0000000008000508        0x8 objs/asm_init.o
                0x0000000008000508                asm_main
 .text          0x0000000008000510        0x0 objs/bg_reg_stuff.arm.o
 .text          0x0000000008000510        0x0 objs/block_base_stuff_class.thumb.o
 .text          0x0000000008000510        0x0 objs/block_stuff.thumb.o
 .text._ZN24grass_single_block_stuff19get_metatile_numberEv
                0x0000000008000510        0x4 objs/block_stuff.thumb.o
                0x0000000008000510                grass_single_block_stuff::get_metatile_number()
 .text._ZN24grass_single_block_stuff18get_palette_numberEv
                0x0000000008000514        0x4 objs/block_stuff.thumb.o
                0x0000000008000514                grass_single_block_stuff::get_palette_number()
 .text._ZN24grass_single_block_stuff26get_metatile_graphics_slotEv
                0x0000000008000518        0x4 objs/block_stuff.thumb.o
                0x0000000008000518                grass_single_block_stuff::get_metatile_graphics_slot()
 .text._ZN26grass_top_left_block_stuff19get_metatile_numberEv
                0x000000000800051c        0x4 objs/block_stuff.thumb.o
                0x000000000800051c                grass_top_left_block_stuff::get_metatile_number()
 .text._ZN26grass_top_left_block_stuff18get_palette_numberEv
                0x0000000008000520        0x4 objs/block_stuff.thumb.o
                0x0000000008000520                grass_top_left_block_stuff::get_palette_number()
 .text._ZN26grass_top_left_block_stuff26get_metatile_graphics_slotEv
                0x0000000008000524        0x4 objs/block_stuff.thumb.o
                0x0000000008000524                grass_top_left_block_stuff::get_metatile_graphics_slot()
 .text._ZN28grass_top_middle_block_stuff19get_metatile_numberEv
                0x0000000008000528        0x4 objs/block_stuff.thumb.o
                0x0000000008000528                grass_top_middle_block_stuff::get_metatile_number()
 .text._ZN28grass_top_middle_block_stuff18get_palette_numberEv
                0x000000000800052c        0x4 objs/block_stuff.thumb.o
                0x000000000800052c                grass_top_middle_block_stuff::get_palette_number()
 .text._ZN28grass_top_middle_block_stuff26get_metatile_graphics_slotEv
                0x0000000008000530        0x4 objs/block_stuff.thumb.o
                0x0000000008000530                grass_top_middle_block_stuff::get_metatile_graphics_slot()
 .text._ZN27grass_top_right_block_stuff19get_metatile_numberEv
                0x0000000008000534        0x4 objs/block_stuff.thumb.o
                0x0000000008000534                grass_top_right_block_stuff::get_metatile_number()
 .text._ZN27grass_top_right_block_stuff18get_palette_numberEv
                0x0000000008000538        0x4 objs/block_stuff.thumb.o
                0x0000000008000538                grass_top_right_block_stuff::get_palette_number()
 .text._ZN27grass_top_right_block_stuff26get_metatile_graphics_slotEv
                0x000000000800053c        0x4 objs/block_stuff.thumb.o
                0x000000000800053c                grass_top_right_block_stuff::get_metatile_graphics_slot()
 .text._ZN28dirt_middle_left_block_stuff19get_metatile_numberEv
                0x0000000008000540        0x4 objs/block_stuff.thumb.o
                0x0000000008000540                dirt_middle_left_block_stuff::get_metatile_number()
 .text._ZN28dirt_middle_left_block_stuff18get_palette_numberEv
                0x0000000008000544        0x4 objs/block_stuff.thumb.o
                0x0000000008000544                dirt_middle_left_block_stuff::get_palette_number()
 .text._ZN28dirt_middle_left_block_stuff26get_metatile_graphics_slotEv
                0x0000000008000548        0x4 objs/block_stuff.thumb.o
                0x0000000008000548                dirt_middle_left_block_stuff::get_metatile_graphics_slot()
 .text._ZN30dirt_middle_middle_block_stuff19get_metatile_numberEv
                0x000000000800054c        0x4 objs/block_stuff.thumb.o
                0x000000000800054c                dirt_middle_middle_block_stuff::get_metatile_number()
 .text._ZN30dirt_middle_middle_block_stuff18get_palette_numberEv
                0x0000000008000550        0x4 objs/block_stuff.thumb.o
                0x0000000008000550                dirt_middle_middle_block_stuff::get_palette_number()
 .text._ZN30dirt_middle_middle_block_stuff26get_metatile_graphics_slotEv
                0x0000000008000554        0x4 objs/block_stuff.thumb.o
                0x0000000008000554                dirt_middle_middle_block_stuff::get_metatile_graphics_slot()
 .text._ZN29dirt_middle_right_block_stuff19get_metatile_numberEv
                0x0000000008000558        0x4 objs/block_stuff.thumb.o
                0x0000000008000558                dirt_middle_right_block_stuff::get_metatile_number()
 .text._ZN29dirt_middle_right_block_stuff18get_palette_numberEv
                0x000000000800055c        0x4 objs/block_stuff.thumb.o
                0x000000000800055c                dirt_middle_right_block_stuff::get_palette_number()
 .text._ZN29dirt_middle_right_block_stuff26get_metatile_graphics_slotEv
                0x0000000008000560        0x4 objs/block_stuff.thumb.o
                0x0000000008000560                dirt_middle_right_block_stuff::get_metatile_graphics_slot()
 .text._ZN28dirt_bottom_left_block_stuff19get_metatile_numberEv
                0x0000000008000564        0x4 objs/block_stuff.thumb.o
                0x0000000008000564                dirt_bottom_left_block_stuff::get_metatile_number()
 .text._ZN28dirt_bottom_left_block_stuff18get_palette_numberEv
                0x0000000008000568        0x4 objs/block_stuff.thumb.o
                0x0000000008000568                dirt_bottom_left_block_stuff::get_palette_number()
 .text._ZN28dirt_bottom_left_block_stuff26get_metatile_graphics_slotEv
                0x000000000800056c        0x4 objs/block_stuff.thumb.o
                0x000000000800056c                dirt_bottom_left_block_stuff::get_metatile_graphics_slot()
 .text._ZN30dirt_bottom_middle_block_stuff19get_metatile_numberEv
                0x0000000008000570        0x4 objs/block_stuff.thumb.o
                0x0000000008000570                dirt_bottom_middle_block_stuff::get_metatile_number()
 .text._ZN30dirt_bottom_middle_block_stuff18get_palette_numberEv
                0x0000000008000574        0x4 objs/block_stuff.thumb.o
                0x0000000008000574                dirt_bottom_middle_block_stuff::get_palette_number()
 .text._ZN30dirt_bottom_middle_block_stuff26get_metatile_graphics_slotEv
                0x0000000008000578        0x4 objs/block_stuff.thumb.o
                0x0000000008000578                dirt_bottom_middle_block_stuff::get_metatile_graphics_slot()
 .text._ZN29dirt_bottom_right_block_stuff19get_metatile_numberEv
                0x000000000800057c        0x4 objs/block_stuff.thumb.o
                0x000000000800057c                dirt_bottom_right_block_stuff::get_metatile_number()
 .text._ZN29dirt_bottom_right_block_stuff18get_palette_numberEv
                0x0000000008000580        0x4 objs/block_stuff.thumb.o
                0x0000000008000580                dirt_bottom_right_block_stuff::get_palette_number()
 .text._ZN29dirt_bottom_right_block_stuff26get_metatile_graphics_slotEv
                0x0000000008000584        0x4 objs/block_stuff.thumb.o
                0x0000000008000584                dirt_bottom_right_block_stuff::get_metatile_graphics_slot()
 .text._ZN31grass_slope_p16_p16_block_stuff19get_metatile_numberEv
                0x0000000008000588        0x4 objs/block_stuff.thumb.o
                0x0000000008000588                grass_slope_p16_p16_block_stuff::get_metatile_number()
 .text._ZN31grass_slope_p16_p16_block_stuff18get_palette_numberEv
                0x000000000800058c        0x4 objs/block_stuff.thumb.o
                0x000000000800058c                grass_slope_p16_p16_block_stuff::get_palette_number()
 .text._ZN31grass_slope_p16_p16_block_stuff26get_metatile_graphics_slotEv
                0x0000000008000590        0x4 objs/block_stuff.thumb.o
                0x0000000008000590                grass_slope_p16_p16_block_stuff::get_metatile_graphics_slot()
 .text._ZN31grass_slope_n16_p16_block_stuff19get_metatile_numberEv
                0x0000000008000594        0x4 objs/block_stuff.thumb.o
                0x0000000008000594                grass_slope_n16_p16_block_stuff::get_metatile_number()
 .text._ZN31grass_slope_n16_p16_block_stuff18get_palette_numberEv
                0x0000000008000598        0x4 objs/block_stuff.thumb.o
                0x0000000008000598                grass_slope_n16_p16_block_stuff::get_palette_number()
 .text._ZN31grass_slope_n16_p16_block_stuff26get_metatile_graphics_slotEv
                0x000000000800059c        0x4 objs/block_stuff.thumb.o
                0x000000000800059c                grass_slope_n16_p16_block_stuff::get_metatile_graphics_slot()
 .text._ZN37grass_slope_p32_p16_short_block_stuff19get_metatile_numberEv
                0x00000000080005a0        0x4 objs/block_stuff.thumb.o
                0x00000000080005a0                grass_slope_p32_p16_short_block_stuff::get_metatile_number()
 .text._ZN37grass_slope_p32_p16_short_block_stuff18get_palette_numberEv
                0x00000000080005a4        0x4 objs/block_stuff.thumb.o
                0x00000000080005a4                grass_slope_p32_p16_short_block_stuff::get_palette_number()
 .text._ZN37grass_slope_p32_p16_short_block_stuff26get_metatile_graphics_slotEv
                0x00000000080005a8        0x4 objs/block_stuff.thumb.o
                0x00000000080005a8                grass_slope_p32_p16_short_block_stuff::get_metatile_graphics_slot()
 .text._ZN36grass_slope_p32_p16_tall_block_stuff19get_metatile_numberEv
                0x00000000080005ac        0x4 objs/block_stuff.thumb.o
                0x00000000080005ac                grass_slope_p32_p16_tall_block_stuff::get_metatile_number()
 .text._ZN36grass_slope_p32_p16_tall_block_stuff18get_palette_numberEv
                0x00000000080005b0        0x4 objs/block_stuff.thumb.o
                0x00000000080005b0                grass_slope_p32_p16_tall_block_stuff::get_palette_number()
 .text._ZN36grass_slope_p32_p16_tall_block_stuff26get_metatile_graphics_slotEv
                0x00000000080005b4        0x4 objs/block_stuff.thumb.o
                0x00000000080005b4                grass_slope_p32_p16_tall_block_stuff::get_metatile_graphics_slot()
 .text._ZN36grass_slope_n32_p16_tall_block_stuff19get_metatile_numberEv
                0x00000000080005b8        0x4 objs/block_stuff.thumb.o
                0x00000000080005b8                grass_slope_n32_p16_tall_block_stuff::get_metatile_number()
 .text._ZN36grass_slope_n32_p16_tall_block_stuff18get_palette_numberEv
                0x00000000080005bc        0x4 objs/block_stuff.thumb.o
                0x00000000080005bc                grass_slope_n32_p16_tall_block_stuff::get_palette_number()
 .text._ZN36grass_slope_n32_p16_tall_block_stuff26get_metatile_graphics_slotEv
                0x00000000080005c0        0x4 objs/block_stuff.thumb.o
                0x00000000080005c0                grass_slope_n32_p16_tall_block_stuff::get_metatile_graphics_slot()
 .text._ZN37grass_slope_n32_p16_short_block_stuff19get_metatile_numberEv
                0x00000000080005c4        0x4 objs/block_stuff.thumb.o
                0x00000000080005c4                grass_slope_n32_p16_short_block_stuff::get_metatile_number()
 .text._ZN37grass_slope_n32_p16_short_block_stuff18get_palette_numberEv
                0x00000000080005c8        0x4 objs/block_stuff.thumb.o
                0x00000000080005c8                grass_slope_n32_p16_short_block_stuff::get_palette_number()
 .text._ZN37grass_slope_n32_p16_short_block_stuff26get_metatile_graphics_slotEv
                0x00000000080005cc        0x4 objs/block_stuff.thumb.o
                0x00000000080005cc                grass_slope_n32_p16_short_block_stuff::get_metatile_graphics_slot()
 .text._ZN31grass_in_slope_left_block_stuff19get_metatile_numberEv
                0x00000000080005d0        0x4 objs/block_stuff.thumb.o
                0x00000000080005d0                grass_in_slope_left_block_stuff::get_metatile_number()
 .text._ZN31grass_in_slope_left_block_stuff18get_palette_numberEv
                0x00000000080005d4        0x4 objs/block_stuff.thumb.o
                0x00000000080005d4                grass_in_slope_left_block_stuff::get_palette_number()
 .text._ZN31grass_in_slope_left_block_stuff26get_metatile_graphics_slotEv
                0x00000000080005d8        0x4 objs/block_stuff.thumb.o
                0x00000000080005d8                grass_in_slope_left_block_stuff::get_metatile_graphics_slot()
 .text._ZN32grass_in_slope_right_block_stuff19get_metatile_numberEv
                0x00000000080005dc        0x4 objs/block_stuff.thumb.o
                0x00000000080005dc                grass_in_slope_right_block_stuff::get_metatile_number()
 .text._ZN32grass_in_slope_right_block_stuff18get_palette_numberEv
                0x00000000080005e0        0x4 objs/block_stuff.thumb.o
                0x00000000080005e0                grass_in_slope_right_block_stuff::get_palette_number()
 .text._ZN32grass_in_slope_right_block_stuff26get_metatile_graphics_slotEv
                0x00000000080005e4        0x4 objs/block_stuff.thumb.o
                0x00000000080005e4                grass_in_slope_right_block_stuff::get_metatile_graphics_slot()
 .text.startup  0x00000000080005e8      0x244 objs/block_stuff.thumb.o
 .text          0x000000000800082c      0x150 objs/button_stuff.thumb.o
                0x000000000800082c                soft_reset_keys_down()
 .text          0x000000000800097c        0x0 objs/coll_box_class.arm.o
 .text          0x000000000800097c       0x84 objs/coll_box_class.thumb.o
                0x000000000800097c                coll_box::set_side_coords(fixed24p8, fixed24p8, fixed24p8, fixed24p8)
                0x0000000008000994                coll_box::get_corners(vec2<fixed24p8>&, vec2<fixed24p8>&, vec2<fixed24p8>&, vec2<fixed24p8>&)
                0x00000000080009c4                coll_box::get_block_coords_intersected_by_corners(vec2<long>&, vec2<long>&, vec2<long>&, vec2<long>&)
 .text          0x0000000008000a00        0x0 objs/coll_point_group_class.thumb.o
 .text          0x0000000008000a00        0x0 objs/debug_vars.thumb.o
 .text          0x0000000008000a00        0x0 objs/division_funcs.o
 .text          0x0000000008000a00       0xd0 objs/dma_stuff.thumb.o
                0x0000000008000a00                dma3_cpy
                0x0000000008000a48                dma0_cpy
                0x0000000008000a90                dma3_fill
 .text          0x0000000008000ad0        0x0 objs/dud_block_stuff_class.thumb.o
 .text          0x0000000008000ad0        0x0 objs/exclam_block_stuff_classes.thumb.o
 .text          0x0000000008000ad0        0x0 objs/eyes_block_stuff_classes.thumb.o
 .text          0x0000000008000ad0        0x0 objs/fixed_classes.thumb.o
 .text          0x0000000008000ad0        0x0 objs/grass_and_dirt_block_stuff_classes.thumb.o
 .text          0x0000000008000ad0        0x0 objs/interrupt_stuff.arm.o
 .text          0x0000000008000ad0      0x16c objs/interrupt_stuff.thumb.o
                0x0000000008000ad0                irqEnable
                0x0000000008000b20                irqSet
                0x0000000008000bd0                irq_init()
 .text          0x0000000008000c3c        0x0 objs/level_class.thumb.o
 .text          0x0000000008000c3c        0x0 objs/log_block_stuff_class.thumb.o
 .text          0x0000000008000c3c       0xe4 objs/main.thumb.o
                0x0000000008000c3c                title_screen_func()
 .text._Z15reinit_the_gameRi
                0x0000000008000d20       0xe0 objs/main.thumb.o
                0x0000000008000d20                reinit_the_game(int&)
 .text.startup  0x0000000008000e00      0x19c objs/main.thumb.o
                0x0000000008000e00                main
 .text          0x0000000008000f9c        0x0 objs/memcpy32_from_tonc.o
 .text          0x0000000008000f9c        0x0 objs/memory_funcs_8bit.o
 .text          0x0000000008000f9c        0x0 objs/muffin_sprite_stuff_classes.thumb.o
 .text          0x0000000008000f9c      0x378 objs/oam_entry_classes.thumb.o
                0x0000000008000f9c                oam_entry::set_shape_size(oam_entry::shape_size)
                0x0000000008001080                oam_entry::get_shape_size() const
                0x0000000008001100                oam_entry::set_shape_size_with_vec2(vec2<unsigned long> const&)
                0x000000000800124c                oam_entry::get_shape_size_as_vec2() const
 .text          0x0000000008001314      0x46c objs/player_sprite_stuff_class.thumb.o
                0x0000000008001314                player_sprite_stuff::get_curr_relative_tile_slot(sprite&)
                0x00000000080013a4                player_sprite_stuff::gfx_update(sprite&)
                0x00000000080013f0                player_sprite_stuff::init(sprite&, bool)
                0x0000000008001488                player_sprite_stuff::update_part_1(sprite&)
                0x0000000008001674                player_sprite_stuff::init(sprite&, vec2<fixed24p8> const&, vec2<unsigned long> const&, vec2<short>&, bool)
 .text._ZNK19player_sprite_stuff15get_sprite_typeEv
                0x0000000008001780        0x4 objs/player_sprite_stuff_class.thumb.o
                0x0000000008001780                player_sprite_stuff::get_sprite_type() const
 .text._ZN19player_sprite_stuff16get_gfx_categoryER6sprite
                0x0000000008001784        0x4 objs/player_sprite_stuff_class.thumb.o
                0x0000000008001784                player_sprite_stuff::get_gfx_category(sprite&)
 .text._ZN19player_sprite_stuff24get_num_active_gfx_tilesEv
                0x0000000008001788        0x4 objs/player_sprite_stuff_class.thumb.o
                0x0000000008001788                player_sprite_stuff::get_num_active_gfx_tiles()
 .text._ZNK19player_sprite_stuff12get_tile_arrEv
                0x000000000800178c        0x8 objs/player_sprite_stuff_class.thumb.o
                0x000000000800178c                player_sprite_stuff::get_tile_arr() const
 .text          0x0000000008001794        0x0 objs/practice_17.bin.o
 .text          0x0000000008001794        0x0 objs/ram_funcs1.o
 .text          0x0000000008001794        0x0 objs/sherwin_gfx.o
 .text          0x0000000008001794        0x0 objs/sprite_base_stuff_class.arm.o
 .text          0x0000000008001794      0x124 objs/sprite_base_stuff_class.thumb.o
                0x0000000008001794                sprite_base_stuff::get_sprite_type() const
                0x0000000008001798                sprite_base_stuff::init(sprite&, vec2<fixed24p8> const&, vec2<short> const&, bool)
                0x00000000080017c4                sprite_base_stuff::init(sprite&, vec2<fixed24p8> const&, vec2<unsigned long> const&, vec2<short>&, bool)
                0x00000000080017f0                sprite_base_stuff::init(sprite&, bool)
 .text._ZNK17sprite_base_stuff12get_tile_arrEv
                0x00000000080018b8        0x8 objs/sprite_base_stuff_class.thumb.o
                0x00000000080018b8                sprite_base_stuff::get_tile_arr() const
 .text._ZN17sprite_base_stuff24get_num_active_gfx_tilesEv
                0x00000000080018c0        0x4 objs/sprite_base_stuff_class.thumb.o
                0x00000000080018c0                sprite_base_stuff::get_num_active_gfx_tiles()
 .text          0x00000000080018c4      0x180 objs/sprite_class.thumb.o
                0x00000000080018c4                sprite::sprite()
                0x00000000080018c4                sprite::sprite()
                0x0000000008001960                sprite::reinit_with_sprite_ipg(sprite_init_param_group*)
                0x00000000080019d0                sprite::reinit_with_sprite_ipg(unsigned long, sprite_init_param_group*)
 .text          0x0000000008001a44       0x50 objs/sprite_gfx_stuff.thumb.o
                0x0000000008001a44                sprite_gfx_manager::upload_default_sprite_palettes()
 .text          0x0000000008001a94        0x0 objs/sprite_manager_class.arm.o
 .text          0x0000000008001a94      0x538 objs/sprite_manager_class.thumb.o
                0x0000000008001a94                sprite_manager::init_the_player(vec2<fixed24p8> const&, vec2<unsigned long> const&, vec2<short>&)
                0x0000000008001b50                sprite_manager::some_sprite_init_thing()
                0x0000000008001c54                sprite_manager::initial_sprite_spawning_from_sublevel_data(vec2<unsigned long> const&, vec2<short>&, int&)
                0x0000000008001df8                sprite_manager::initial_sprite_spawning_from_sublevel_data_old(vec2<short> const&, int&)
                0x0000000008001f2c                sprite_manager::init_horiz_sublevel_sprite_ipg_lists(sprite_init_param_group const*, unsigned long)
 .text._ZNSt12forward_listI23sprite_init_param_groupSaIS0_EE4sortISt4lessIS0_EEEvT_
                0x0000000008001fcc       0xc8 objs/sprite_manager_class.thumb.o
                0x0000000008001fcc                void std::forward_list<sprite_init_param_group, std::allocator<sprite_init_param_group> >::sort<std::less<sprite_init_param_group> >(std::less<sprite_init_param_group>)
 .text.startup  0x0000000008002094       0x2c objs/sprite_manager_class.thumb.o
 .text          0x00000000080020c0        0x0 objs/sprite_type_stuff.thumb.o
 .text._ZNK19muffin_sprite_stuff15get_sprite_typeEv
                0x00000000080020c0        0x4 objs/sprite_type_stuff.thumb.o
                0x00000000080020c0                muffin_sprite_stuff::get_sprite_type() const
 .text._ZN19muffin_sprite_stuff16get_gfx_categoryER6sprite
                0x00000000080020c4        0x4 objs/sprite_type_stuff.thumb.o
                0x00000000080020c4                muffin_sprite_stuff::get_gfx_category(sprite&)
 .text._ZN19muffin_sprite_stuff27get_curr_relative_tile_slotER6sprite
                0x00000000080020c8        0x4 objs/sprite_type_stuff.thumb.o
                0x00000000080020c8                muffin_sprite_stuff::get_curr_relative_tile_slot(sprite&)
 .text._ZN19muffin_sprite_stuff24get_num_active_gfx_tilesEv
                0x00000000080020cc        0x4 objs/sprite_type_stuff.thumb.o
                0x00000000080020cc                muffin_sprite_stuff::get_num_active_gfx_tiles()
 .text._ZNK19muffin_sprite_stuff12get_tile_arrEv
                0x00000000080020d0        0x8 objs/sprite_type_stuff.thumb.o
                0x00000000080020d0                muffin_sprite_stuff::get_tile_arr() const
 .text._ZNK24fire_muffin_sprite_stuff15get_sprite_typeEv
                0x00000000080020d8        0x4 objs/sprite_type_stuff.thumb.o
                0x00000000080020d8                fire_muffin_sprite_stuff::get_sprite_type() const
 .text._ZN24fire_muffin_sprite_stuff16get_gfx_categoryER6sprite
                0x00000000080020dc        0x4 objs/sprite_type_stuff.thumb.o
                0x00000000080020dc                fire_muffin_sprite_stuff::get_gfx_category(sprite&)
 .text._ZN24fire_muffin_sprite_stuff27get_curr_relative_tile_slotER6sprite
                0x00000000080020e0        0x4 objs/sprite_type_stuff.thumb.o
                0x00000000080020e0                fire_muffin_sprite_stuff::get_curr_relative_tile_slot(sprite&)
 .text._ZN24fire_muffin_sprite_stuff24get_num_active_gfx_tilesEv
                0x00000000080020e4        0x4 objs/sprite_type_stuff.thumb.o
                0x00000000080020e4                fire_muffin_sprite_stuff::get_num_active_gfx_tiles()
 .text._ZNK24fire_muffin_sprite_stuff12get_tile_arrEv
                0x00000000080020e8        0x8 objs/sprite_type_stuff.thumb.o
                0x00000000080020e8                fire_muffin_sprite_stuff::get_tile_arr() const
 .text._ZNK23ice_muffin_sprite_stuff15get_sprite_typeEv
                0x00000000080020f0        0x4 objs/sprite_type_stuff.thumb.o
                0x00000000080020f0                ice_muffin_sprite_stuff::get_sprite_type() const
 .text._ZN23ice_muffin_sprite_stuff16get_gfx_categoryER6sprite
                0x00000000080020f4        0x4 objs/sprite_type_stuff.thumb.o
                0x00000000080020f4                ice_muffin_sprite_stuff::get_gfx_category(sprite&)
 .text._ZN23ice_muffin_sprite_stuff27get_curr_relative_tile_slotER6sprite
                0x00000000080020f8        0x4 objs/sprite_type_stuff.thumb.o
                0x00000000080020f8                ice_muffin_sprite_stuff::get_curr_relative_tile_slot(sprite&)
 .text._ZN23ice_muffin_sprite_stuff24get_num_active_gfx_tilesEv
                0x00000000080020fc        0x4 objs/sprite_type_stuff.thumb.o
                0x00000000080020fc                ice_muffin_sprite_stuff::get_num_active_gfx_tiles()
 .text._ZNK23ice_muffin_sprite_stuff12get_tile_arrEv
                0x0000000008002100        0x8 objs/sprite_type_stuff.thumb.o
                0x0000000008002100                ice_muffin_sprite_stuff::get_tile_arr() const
 .text._ZNK29chocolate_muffin_sprite_stuff15get_sprite_typeEv
                0x0000000008002108        0x4 objs/sprite_type_stuff.thumb.o
                0x0000000008002108                chocolate_muffin_sprite_stuff::get_sprite_type() const
 .text._ZN29chocolate_muffin_sprite_stuff16get_gfx_categoryER6sprite
                0x000000000800210c        0x4 objs/sprite_type_stuff.thumb.o
                0x000000000800210c                chocolate_muffin_sprite_stuff::get_gfx_category(sprite&)
 .text._ZN29chocolate_muffin_sprite_stuff27get_curr_relative_tile_slotER6sprite
                0x0000000008002110        0x4 objs/sprite_type_stuff.thumb.o
                0x0000000008002110                chocolate_muffin_sprite_stuff::get_curr_relative_tile_slot(sprite&)
 .text._ZN29chocolate_muffin_sprite_stuff24get_num_active_gfx_tilesEv
                0x0000000008002114        0x4 objs/sprite_type_stuff.thumb.o
                0x0000000008002114                chocolate_muffin_sprite_stuff::get_num_active_gfx_tiles()
 .text._ZNK29chocolate_muffin_sprite_stuff12get_tile_arrEv
                0x0000000008002118        0x8 objs/sprite_type_stuff.thumb.o
                0x0000000008002118                chocolate_muffin_sprite_stuff::get_tile_arr() const
 .text._ZNK23warp_block_sprite_stuff15get_sprite_typeEv
                0x0000000008002120        0x4 objs/sprite_type_stuff.thumb.o
                0x0000000008002120                warp_block_sprite_stuff::get_sprite_type() const
 .text._ZN23warp_block_sprite_stuff16get_gfx_categoryER6sprite
                0x0000000008002124        0x4 objs/sprite_type_stuff.thumb.o
                0x0000000008002124                warp_block_sprite_stuff::get_gfx_category(sprite&)
 .text._ZN23warp_block_sprite_stuff27get_curr_relative_tile_slotER6sprite
                0x0000000008002128        0x4 objs/sprite_type_stuff.thumb.o
                0x0000000008002128                warp_block_sprite_stuff::get_curr_relative_tile_slot(sprite&)
 .text._ZN23warp_block_sprite_stuff24get_num_active_gfx_tilesEv
                0x000000000800212c        0x4 objs/sprite_type_stuff.thumb.o
                0x000000000800212c                warp_block_sprite_stuff::get_num_active_gfx_tiles()
 .text._ZNK23warp_block_sprite_stuff12get_tile_arrEv
                0x0000000008002130        0x8 objs/sprite_type_stuff.thumb.o
                0x0000000008002130                warp_block_sprite_stuff::get_tile_arr() const
 .text          0x0000000008002138        0x0 objs/sublevel_class.thumb.o
 .text          0x0000000008002138        0x0 objs/test_level.thumb.o
 .text          0x0000000008002138        0x0 objs/the_block_gfx.o
 .text          0x0000000008002138        0x0 objs/the_block_like_sprites_gfx.o
 .text          0x0000000008002138        0x0 objs/the_golem_enemy_gfx.o
 .text          0x0000000008002138        0x0 objs/the_powerup_gfx.o
 .text          0x0000000008002138        0x0 objs/title_screen.o
 .text          0x0000000008002138        0x0 objs/waffle_sprite_stuff_class.arm.o
 .text          0x0000000008002138        0x0 objs/waffle_sprite_stuff_class.thumb.o
 .text._ZNK19waffle_sprite_stuff15get_sprite_typeEv
                0x0000000008002138        0x4 objs/waffle_sprite_stuff_class.thumb.o
                0x0000000008002138                waffle_sprite_stuff::get_sprite_type() const
 .text._ZN19waffle_sprite_stuff16get_gfx_categoryER6sprite
                0x000000000800213c        0x4 objs/waffle_sprite_stuff_class.thumb.o
                0x000000000800213c                waffle_sprite_stuff::get_gfx_category(sprite&)
 .text._ZN19waffle_sprite_stuff27get_curr_relative_tile_slotER6sprite
                0x0000000008002140        0x4 objs/waffle_sprite_stuff_class.thumb.o
                0x0000000008002140                waffle_sprite_stuff::get_curr_relative_tile_slot(sprite&)
 .text._ZN19waffle_sprite_stuff24get_num_active_gfx_tilesEv
                0x0000000008002144        0x4 objs/waffle_sprite_stuff_class.thumb.o
                0x0000000008002144                waffle_sprite_stuff::get_num_active_gfx_tiles()
 .text._ZNK19waffle_sprite_stuff12get_tile_arrEv
                0x0000000008002148        0x8 objs/waffle_sprite_stuff_class.thumb.o
                0x0000000008002148                waffle_sprite_stuff::get_tile_arr() const
 .text._ZN19waffle_sprite_stuff21block_collision_stuffER6sprite
                0x0000000008002150       0x14 objs/waffle_sprite_stuff_class.thumb.o
                0x0000000008002150                waffle_sprite_stuff::block_collision_stuff(sprite&)
 .text          0x0000000008002164        0x0 objs/warp_block_sprite_stuff_class.thumb.o
 .text          0x0000000008002164        0x0 objs/wood_block_stuff_classes.thumb.o
 .text          0x0000000008002164      0x140 ./maxmod/lib/libmm.a(mm_main.o)
                0x0000000008002164                mpp_call_r7
                0x0000000008002166                mpp_call_r1
                0x0000000008002168                mpp_call_r2
                0x000000000800216a                mpp_call_r3
                0x000000000800216c                mmSetEventHandler
                0x0000000008002174                mmInit
                0x00000000080021c8                mmSetVBlankHandler
                0x00000000080021ce                mmFrame
 .text          0x00000000080022a4     0x155c ./maxmod/lib/libmm.a(mm_mas.o)
                0x0000000008002318                mmStart
                0x0000000008002338                mmJingle
                0x000000000800233e                mmPlayModule
                0x0000000008002408                mmPause
                0x0000000008002424                mmResume
                0x0000000008002434                mmActive
                0x000000000800243a                mmActiveSub
                0x0000000008002440                mmSetModuleVolume
                0x0000000008002450                mmSetJingleVolume
                0x000000000800248c                mmPosition
                0x00000000080024a6                mmSetModuleTempo
                0x00000000080024d8                mmSetModulePitch
                0x0000000008002518                mmStop
                0x00000000080025de                mppUpdateSub
                0x000000000800273a                mpp_Process_VolumeCommand
                0x0000000008002972                mpp_Process_Effect
                0x00000000080030c0                ST3_FREQTABLE
                0x00000000080034e0                IT_PitchTable
 .text          0x0000000008003800       0x54 ./maxmod/lib/libmm.a(mm_init_default.o)
                0x0000000008003800                mmInitDefault
 .text          0x0000000008003854      0x1e0 ./maxmod/lib/libmm.a(mm_mixer_gba.o)
                0x0000000008003854                mmMixerSetSource
                0x0000000008003868                mmMixerSetRead
                0x0000000008003876                mmMixerSetFreq
                0x0000000008003886                mmMixerMulFreq
                0x000000000800389a                mmMixerStopChannel
                0x00000000080038ac                mmMixerChannelActive
                0x00000000080038be                mmMixerSetVolume
                0x00000000080038cc                mmMixerSetPan
                0x00000000080038da                mmMixerInit
 .text          0x0000000008003a34      0x300 ./maxmod/lib/libmm.a(mm_effect.o)
                0x0000000008003a34                mmResetEffects
                0x0000000008003a60                mmEffect
                0x0000000008003a76                mmEffectEx
                0x0000000008003b94                mmEffectVolume
                0x0000000008003bb0                mmEffectPanning
                0x0000000008003bc4                mmEffectRate
                0x0000000008003bd8                mmEffectCancel
                0x0000000008003c12                mmEffectRelease
                0x0000000008003c38                mmEffectScaleRate
                0x0000000008003c4c                mmSetEffectsVolume
                0x0000000008003c5a                mmEffectCancelAll
                0x0000000008003c9a                mmUpdateEffects
 .text          0x0000000008003d34        0x0 ./maxmod/lib/libmm.a(mm_mas_arm.o)
 .text          0x0000000008003d34       0x3c /opt/devkitpro/devkitARM/bin/../lib/gcc/arm-none-eabi/4.9.2/libgcc.a(_call_via_rX.o)
                0x0000000008003d34                _call_via_r0
                0x0000000008003d38                _call_via_r1
                0x0000000008003d3c                _call_via_r2
                0x0000000008003d40                _call_via_r3
                0x0000000008003d44                _call_via_r4
                0x0000000008003d48                _call_via_r5
                0x0000000008003d4c                _call_via_r6
                0x0000000008003d50                _call_via_r7
                0x0000000008003d54                _call_via_r8
                0x0000000008003d58                _call_via_r9
                0x0000000008003d5c                _call_via_sl
                0x0000000008003d60                _call_via_fp
                0x0000000008003d64                _call_via_ip
                0x0000000008003d68                _call_via_sp
                0x0000000008003d6c                _call_via_lr
 .text          0x0000000008003d70     0x10dc /opt/devkitpro/devkitARM/bin/../lib/gcc/arm-none-eabi/4.9.2/libgcc.a(unwind-arm.o)
                0x0000000008004238                _Unwind_GetCFA
                0x0000000008004240                __gnu_Unwind_RaiseException
                0x00000000080042f0                __gnu_Unwind_ForcedUnwind
                0x0000000008004314                __gnu_Unwind_Resume
                0x0000000008004388                __gnu_Unwind_Resume_or_Rethrow
                0x00000000080043a4                _Unwind_Complete
                0x00000000080043a8                _Unwind_DeleteException
                0x00000000080043c0                _Unwind_VRS_Get
                0x000000000800444c                _Unwind_VRS_Set
                0x00000000080044dc                __gnu_Unwind_Backtrace
                0x00000000080049fc                __aeabi_unwind_cpp_pr0
                0x0000000008004a04                __aeabi_unwind_cpp_pr1
                0x0000000008004a0c                __aeabi_unwind_cpp_pr2
                0x0000000008004a14                _Unwind_VRS_Pop
 .text          0x0000000008004e4c      0x1b0 /opt/devkitpro/devkitARM/bin/../lib/gcc/arm-none-eabi/4.9.2/libgcc.a(libunwind.o)
                0x0000000008004e4c                __restore_core_regs
                0x0000000008004e4c                restore_core_regs
                0x0000000008004e68                __gnu_Unwind_Restore_VFP
                0x0000000008004e70                __gnu_Unwind_Save_VFP
                0x0000000008004e78                __gnu_Unwind_Restore_VFP_D
                0x0000000008004e80                __gnu_Unwind_Save_VFP_D
                0x0000000008004e88                __gnu_Unwind_Restore_VFP_D_16_to_31
                0x0000000008004e90                __gnu_Unwind_Save_VFP_D_16_to_31
                0x0000000008004e98                __gnu_Unwind_Restore_WMMXD
                0x0000000008004edc                __gnu_Unwind_Save_WMMXD
                0x0000000008004f20                __gnu_Unwind_Restore_WMMXC
                0x0000000008004f34                __gnu_Unwind_Save_WMMXC
                0x0000000008004f48                ___Unwind_RaiseException
                0x0000000008004f48                _Unwind_RaiseException
                0x0000000008004f6c                ___Unwind_Resume
                0x0000000008004f6c                _Unwind_Resume
                0x0000000008004f90                _Unwind_Resume_or_Rethrow
                0x0000000008004f90                ___Unwind_Resume_or_Rethrow
                0x0000000008004fb4                ___Unwind_ForcedUnwind
                0x0000000008004fb4                _Unwind_ForcedUnwind
                0x0000000008004fd8                _Unwind_Backtrace
                0x0000000008004fd8                ___Unwind_Backtrace
 .text          0x0000000008004ffc      0x4e4 /opt/devkitpro/devkitARM/bin/../lib/gcc/arm-none-eabi/4.9.2/libgcc.a(pr-support.o)
                0x0000000008005090                __gnu_unwind_execute
                0x0000000008005454                __gnu_unwind_frame
                0x000000000800549c                _Unwind_GetRegionStart
                0x00000000080054b0                _Unwind_GetLanguageSpecificData
                0x00000000080054d0                _Unwind_GetDataRelBase
                0x00000000080054d8                _Unwind_GetTextRelBase
 .text          0x00000000080054e0        0x0 /opt/devkitpro/devkitARM/bin/../lib/gcc/arm-none-eabi/4.9.2/../../../../arm-none-eabi/lib/libc.a(lib_a-abort.o)
 .text.abort    0x00000000080054e0       0x14 /opt/devkitpro/devkitARM/bin/../lib/gcc/arm-none-eabi/4.9.2/../../../../arm-none-eabi/lib/libc.a(lib_a-abort.o)
                0x00000000080054e0                abort
 .text          0x00000000080054f4        0x0 /opt/devkitpro/devkitARM/bin/../lib/gcc/arm-none-eabi/4.9.2/../../../../arm-none-eabi/lib/libc.a(lib_a-aeabi_atexit.o)
 .text.__aeabi_atexit
                0x00000000080054f4       0x1c /opt/devkitpro/devkitARM/bin/../lib/gcc/arm-none-eabi/4.9.2/../../../../arm-none-eabi/lib/libc.a(lib_a-aeabi_atexit.o)
                0x00000000080054f4                __aeabi_atexit
 .text          0x0000000008005510        0x0 /opt/devkitpro/devkitARM/bin/../lib/gcc/arm-none-eabi/4.9.2/../../../../arm-none-eabi/lib/libc.a(lib_a-atexit.o)
 .text.atexit   0x0000000008005510       0x20 /opt/devkitpro/devkitARM/bin/../lib/gcc/arm-none-eabi/4.9.2/../../../../arm-none-eabi/lib/libc.a(lib_a-atexit.o)
                0x0000000008005510                atexit
 .text          0x0000000008005530        0x0 /opt/devkitpro/devkitARM/bin/../lib/gcc/arm-none-eabi/4.9.2/../../../../arm-none-eabi/lib/libc.a(lib_a-cxa_atexit.o)
 .text.__cxa_atexit
                0x0000000008005530       0x24 /opt/devkitpro/devkitARM/bin/../lib/gcc/arm-none-eabi/4.9.2/../../../../arm-none-eabi/lib/libc.a(lib_a-cxa_atexit.o)
                0x0000000008005530                __cxa_atexit
 .text          0x0000000008005554        0x0 /opt/devkitpro/devkitARM/bin/../lib/gcc/arm-none-eabi/4.9.2/../../../../arm-none-eabi/lib/libc.a(lib_a-exit.o)
 .text.exit     0x0000000008005554       0x34 /opt/devkitpro/devkitARM/bin/../lib/gcc/arm-none-eabi/4.9.2/../../../../arm-none-eabi/lib/libc.a(lib_a-exit.o)
                0x0000000008005554                exit
 .text          0x0000000008005588        0x0 /opt/devkitpro/devkitARM/bin/../lib/gcc/arm-none-eabi/4.9.2/../../../../arm-none-eabi/lib/libc.a(lib_a-fini.o)
 .text.__libc_fini_array
                0x0000000008005588       0x48 /opt/devkitpro/devkitARM/bin/../lib/gcc/arm-none-eabi/4.9.2/../../../../arm-none-eabi/lib/libc.a(lib_a-fini.o)
                0x0000000008005588                __libc_fini_array
 .text          0x00000000080055d0        0x0 /opt/devkitpro/devkitARM/bin/../lib/gcc/arm-none-eabi/4.9.2/../../../../arm-none-eabi/lib/libc.a(lib_a-impure.o)
 .text          0x00000000080055d0        0x0 /opt/devkitpro/devkitARM/bin/../lib/gcc/arm-none-eabi/4.9.2/../../../../arm-none-eabi/lib/libc.a(lib_a-init.o)
 .text.__libc_init_array
                0x00000000080055d0       0x80 /opt/devkitpro/devkitARM/bin/../lib/gcc/arm-none-eabi/4.9.2/../../../../arm-none-eabi/lib/libc.a(lib_a-init.o)
                0x00000000080055d0                __libc_init_array
 .text          0x0000000008005650        0x0 /opt/devkitpro/devkitARM/bin/../lib/gcc/arm-none-eabi/4.9.2/../../../../arm-none-eabi/lib/libc.a(lib_a-malloc.o)
 .text.malloc   0x0000000008005650       0x1c /opt/devkitpro/devkitARM/bin/../lib/gcc/arm-none-eabi/4.9.2/../../../../arm-none-eabi/lib/libc.a(lib_a-malloc.o)
                0x0000000008005650                malloc
 .text.free     0x000000000800566c       0x1c /opt/devkitpro/devkitARM/bin/../lib/gcc/arm-none-eabi/4.9.2/../../../../arm-none-eabi/lib/libc.a(lib_a-malloc.o)
                0x000000000800566c                free
 .text          0x0000000008005688        0x0 /opt/devkitpro/devkitARM/bin/../lib/gcc/arm-none-eabi/4.9.2/../../../../arm-none-eabi/lib/libc.a(lib_a-mallocr.o)
 .text._malloc_r
                0x0000000008005688      0x740 /opt/devkitpro/devkitARM/bin/../lib/gcc/arm-none-eabi/4.9.2/../../../../arm-none-eabi/lib/libc.a(lib_a-mallocr.o)
                0x0000000008005688                _malloc_r
 .text          0x0000000008005dc8        0x0 /opt/devkitpro/devkitARM/bin/../lib/gcc/arm-none-eabi/4.9.2/../../../../arm-none-eabi/lib/libc.a(lib_a-memcpy.o)
 .text.memcpy   0x0000000008005dc8       0xf0 /opt/devkitpro/devkitARM/bin/../lib/gcc/arm-none-eabi/4.9.2/../../../../arm-none-eabi/lib/libc.a(lib_a-memcpy.o)
                0x0000000008005dc8                memcpy
 .text          0x0000000008005eb8        0x0 /opt/devkitpro/devkitARM/bin/../lib/gcc/arm-none-eabi/4.9.2/../../../../arm-none-eabi/lib/libc.a(lib_a-memset.o)
 .text.memset   0x0000000008005eb8       0xf4 /opt/devkitpro/devkitARM/bin/../lib/gcc/arm-none-eabi/4.9.2/../../../../arm-none-eabi/lib/libc.a(lib_a-memset.o)
                0x0000000008005eb8                memset
 .text          0x0000000008005fac        0x0 /opt/devkitpro/devkitARM/bin/../lib/gcc/arm-none-eabi/4.9.2/../../../../arm-none-eabi/lib/libc.a(lib_a-mlock.o)
 .text.__malloc_lock
                0x0000000008005fac        0x4 /opt/devkitpro/devkitARM/bin/../lib/gcc/arm-none-eabi/4.9.2/../../../../arm-none-eabi/lib/libc.a(lib_a-mlock.o)
                0x0000000008005fac                __malloc_lock
 .text.__malloc_unlock
                0x0000000008005fb0        0x4 /opt/devkitpro/devkitARM/bin/../lib/gcc/arm-none-eabi/4.9.2/../../../../arm-none-eabi/lib/libc.a(lib_a-mlock.o)
                0x0000000008005fb0                __malloc_unlock
 .text          0x0000000008005fb4        0x0 /opt/devkitpro/devkitARM/bin/../lib/gcc/arm-none-eabi/4.9.2/../../../../arm-none-eabi/lib/libc.a(lib_a-signal.o)
 .text._init_signal_r
                0x0000000008005fb4       0x60 /opt/devkitpro/devkitARM/bin/../lib/gcc/arm-none-eabi/4.9.2/../../../../arm-none-eabi/lib/libc.a(lib_a-signal.o)
                0x0000000008005fb4                _init_signal_r
 .text._signal_r
                0x0000000008006014       0x60 /opt/devkitpro/devkitARM/bin/../lib/gcc/arm-none-eabi/4.9.2/../../../../arm-none-eabi/lib/libc.a(lib_a-signal.o)
                0x0000000008006014                _signal_r
 .text._raise_r
                0x0000000008006074       0x98 /opt/devkitpro/devkitARM/bin/../lib/gcc/arm-none-eabi/4.9.2/../../../../arm-none-eabi/lib/libc.a(lib_a-signal.o)
                0x0000000008006074                _raise_r
 .text.__sigtramp_r
                0x000000000800610c       0x94 /opt/devkitpro/devkitARM/bin/../lib/gcc/arm-none-eabi/4.9.2/../../../../arm-none-eabi/lib/libc.a(lib_a-signal.o)
                0x000000000800610c                __sigtramp_r
 .text.raise    0x00000000080061a0       0x18 /opt/devkitpro/devkitARM/bin/../lib/gcc/arm-none-eabi/4.9.2/../../../../arm-none-eabi/lib/libc.a(lib_a-signal.o)
                0x00000000080061a0                raise
 .text.signal   0x00000000080061b8       0x20 /opt/devkitpro/devkitARM/bin/../lib/gcc/arm-none-eabi/4.9.2/../../../../arm-none-eabi/lib/libc.a(lib_a-signal.o)
                0x00000000080061b8                signal
 .text._init_signal
                0x00000000080061d8       0x10 /opt/devkitpro/devkitARM/bin/../lib/gcc/arm-none-eabi/4.9.2/../../../../arm-none-eabi/lib/libc.a(lib_a-signal.o)
                0x00000000080061d8                _init_signal
 .text.__sigtramp
                0x00000000080061e8       0x18 /opt/devkitpro/devkitARM/bin/../lib/gcc/arm-none-eabi/4.9.2/../../../../arm-none-eabi/lib/libc.a(lib_a-signal.o)
                0x00000000080061e8                __sigtramp
 .text          0x0000000008006200        0x0 /opt/devkitpro/devkitARM/bin/../lib/gcc/arm-none-eabi/4.9.2/../../../../arm-none-eabi/lib/libc.a(lib_a-__atexit.o)
 .text.__register_exitproc
                0x0000000008006200       0xe0 /opt/devkitpro/devkitARM/bin/../lib/gcc/arm-none-eabi/4.9.2/../../../../arm-none-eabi/lib/libc.a(lib_a-__atexit.o)
                0x0000000008006200                __register_exitproc
 .text          0x00000000080062e0        0x0 /opt/devkitpro/devkitARM/bin/../lib/gcc/arm-none-eabi/4.9.2/../../../../arm-none-eabi/lib/libc.a(lib_a-__call_atexit.o)
 .text.__call_exitprocs
                0x00000000080062e0      0x16c /opt/devkitpro/devkitARM/bin/../lib/gcc/arm-none-eabi/4.9.2/../../../../arm-none-eabi/lib/libc.a(lib_a-__call_atexit.o)
                0x00000000080062e0                __call_exitprocs
 .text          0x000000000800644c        0x0 /opt/devkitpro/devkitARM/bin/../lib/gcc/arm-none-eabi/4.9.2/../../../../arm-none-eabi/lib/libc.a(lib_a-freer.o)
 .text._malloc_trim_r
                0x000000000800644c      0x100 /opt/devkitpro/devkitARM/bin/../lib/gcc/arm-none-eabi/4.9.2/../../../../arm-none-eabi/lib/libc.a(lib_a-freer.o)
                0x000000000800644c                _malloc_trim_r
 .text._free_r  0x000000000800654c      0x2bc /opt/devkitpro/devkitARM/bin/../lib/gcc/arm-none-eabi/4.9.2/../../../../arm-none-eabi/lib/libc.a(lib_a-freer.o)
                0x000000000800654c                _free_r
 .text          0x0000000008006808        0x0 /opt/devkitpro/devkitARM/bin/../lib/gcc/arm-none-eabi/4.9.2/../../../../arm-none-eabi/lib/libstdc++.a(del_op.o)
 .text._ZdlPv   0x0000000008006808       0x10 /opt/devkitpro/devkitARM/bin/../lib/gcc/arm-none-eabi/4.9.2/../../../../arm-none-eabi/lib/libstdc++.a(del_op.o)
                0x0000000008006808                operator delete(void*)
 .text          0x0000000008006818        0x0 /opt/devkitpro/devkitARM/bin/../lib/gcc/arm-none-eabi/4.9.2/../../../../arm-none-eabi/lib/libstdc++.a(si_class_type_info.o)
 .text._ZN10__cxxabiv120__si_class_type_infoD2Ev
                0x0000000008006818       0x24 /opt/devkitpro/devkitARM/bin/../lib/gcc/arm-none-eabi/4.9.2/../../../../arm-none-eabi/lib/libstdc++.a(si_class_type_info.o)
                0x0000000008006818                __cxxabiv1::__si_class_type_info::~__si_class_type_info()
                0x0000000008006818                __cxxabiv1::__si_class_type_info::~__si_class_type_info()
 .text._ZN10__cxxabiv120__si_class_type_infoD0Ev
                0x000000000800683c       0x2c /opt/devkitpro/devkitARM/bin/../lib/gcc/arm-none-eabi/4.9.2/../../../../arm-none-eabi/lib/libstdc++.a(si_class_type_info.o)
                0x000000000800683c                __cxxabiv1::__si_class_type_info::~__si_class_type_info()
 .text._ZNK10__cxxabiv120__si_class_type_info20__do_find_public_srcEiPKvPKNS_17__class_type_infoES2_
                0x0000000008006868       0x6c /opt/devkitpro/devkitARM/bin/../lib/gcc/arm-none-eabi/4.9.2/../../../../arm-none-eabi/lib/libstdc++.a(si_class_type_info.o)
                0x0000000008006868                __cxxabiv1::__si_class_type_info::__do_find_public_src(int, void const*, __cxxabiv1::__class_type_info const*, void const*) const
 .text._ZNK10__cxxabiv120__si_class_type_info12__do_dyncastEiNS_17__class_type_info10__sub_kindEPKS1_PKvS4_S6_RNS1_16__dyncast_resultE
                0x00000000080068d4       0xe0 /opt/devkitpro/devkitARM/bin/../lib/gcc/arm-none-eabi/4.9.2/../../../../arm-none-eabi/lib/libstdc++.a(si_class_type_info.o)
                0x00000000080068d4                __cxxabiv1::__si_class_type_info::__do_dyncast(int, __cxxabiv1::__class_type_info::__sub_kind, __cxxabiv1::__class_type_info const*, void const*, __cxxabiv1::__class_type_info const*, void const*, __cxxabiv1::__class_type_info::__dyncast_result&) const
 .text._ZNK10__cxxabiv120__si_class_type_info11__do_upcastEPKNS_17__class_type_infoEPKvRNS1_15__upcast_resultE
                0x00000000080069b4       0x48 /opt/devkitpro/devkitARM/bin/../lib/gcc/arm-none-eabi/4.9.2/../../../../arm-none-eabi/lib/libstdc++.a(si_class_type_info.o)
                0x00000000080069b4                __cxxabiv1::__si_class_type_info::__do_upcast(__cxxabiv1::__class_type_info const*, void const*, __cxxabiv1::__class_type_info::__upcast_result&) const
 .text          0x00000000080069fc        0x0 /opt/devkitpro/devkitARM/bin/../lib/gcc/arm-none-eabi/4.9.2/../../../../arm-none-eabi/lib/libstdc++.a(tinfo.o)
 .text._ZNSt9type_infoD2Ev
                0x00000000080069fc        0x4 /opt/devkitpro/devkitARM/bin/../lib/gcc/arm-none-eabi/4.9.2/../../../../arm-none-eabi/lib/libstdc++.a(tinfo.o)
                0x00000000080069fc                std::type_info::~type_info()
                0x00000000080069fc                std::type_info::~type_info()
 .text._ZNKSt9type_info14__is_pointer_pEv
                0x0000000008006a00        0x8 /opt/devkitpro/devkitARM/bin/../lib/gcc/arm-none-eabi/4.9.2/../../../../arm-none-eabi/lib/libstdc++.a(tinfo.o)
                0x0000000008006a00                std::type_info::__is_pointer_p() const
 .text._ZNKSt9type_info15__is_function_pEv
                0x0000000008006a08        0x8 /opt/devkitpro/devkitARM/bin/../lib/gcc/arm-none-eabi/4.9.2/../../../../arm-none-eabi/lib/libstdc++.a(tinfo.o)
                0x0000000008006a08                std::type_info::__is_function_p() const
 .text._ZNKSt9type_info11__do_upcastEPKN10__cxxabiv117__class_type_infoEPPv
                0x0000000008006a10        0x8 /opt/devkitpro/devkitARM/bin/../lib/gcc/arm-none-eabi/4.9.2/../../../../arm-none-eabi/lib/libstdc++.a(tinfo.o)
                0x0000000008006a10                std::type_info::__do_upcast(__cxxabiv1::__class_type_info const*, void**) const
 .text._ZNSt9type_infoD0Ev
                0x0000000008006a18       0x18 /opt/devkitpro/devkitARM/bin/../lib/gcc/arm-none-eabi/4.9.2/../../../../arm-none-eabi/lib/libstdc++.a(tinfo.o)
                0x0000000008006a18                std::type_info::~type_info()
 .text._ZNKSt9type_infoeqERKS_
                0x0000000008006a30       0x4c /opt/devkitpro/devkitARM/bin/../lib/gcc/arm-none-eabi/4.9.2/../../../../arm-none-eabi/lib/libstdc++.a(tinfo.o)
                0x0000000008006a30                std::type_info::operator==(std::type_info const&) const
 .text._ZNKSt9type_info10__do_catchEPKS_PPvj
                0x0000000008006a7c        0x4 /opt/devkitpro/devkitARM/bin/../lib/gcc/arm-none-eabi/4.9.2/../../../../arm-none-eabi/lib/libstdc++.a(tinfo.o)
                0x0000000008006a7c                std::type_info::__do_catch(std::type_info const*, void**, unsigned int) const
 .text          0x0000000008006a80        0x0 /opt/devkitpro/devkitARM/bin/../lib/gcc/arm-none-eabi/4.9.2/../../../../arm-none-eabi/lib/libstdc++.a(new_op.o)
 .text._Znwj    0x0000000008006a80       0x74 /opt/devkitpro/devkitARM/bin/../lib/gcc/arm-none-eabi/4.9.2/../../../../arm-none-eabi/lib/libstdc++.a(new_op.o)
                0x0000000008006a80                operator new(unsigned int)
 .text          0x0000000008006af4        0x0 /opt/devkitpro/devkitARM/bin/../lib/gcc/arm-none-eabi/4.9.2/../../../../arm-none-eabi/lib/libstdc++.a(new_handler.o)
 .text._ZSt15set_new_handlerPFvvE
                0x0000000008006af4       0x18 /opt/devkitpro/devkitARM/bin/../lib/gcc/arm-none-eabi/4.9.2/../../../../arm-none-eabi/lib/libstdc++.a(new_handler.o)
                0x0000000008006af4                std::set_new_handler(void (*)())
 .text._ZSt15get_new_handlerv
                0x0000000008006b0c       0x10 /opt/devkitpro/devkitARM/bin/../lib/gcc/arm-none-eabi/4.9.2/../../../../arm-none-eabi/lib/libstdc++.a(new_handler.o)
                0x0000000008006b0c                std::get_new_handler()
 .text          0x0000000008006b1c        0x0 /opt/devkitpro/devkitARM/bin/../lib/gcc/arm-none-eabi/4.9.2/../../../../arm-none-eabi/lib/libstdc++.a(class_type_info.o)
 .text._ZNK10__cxxabiv117__class_type_info11__do_upcastEPKS0_PPv
                0x0000000008006b1c       0x64 /opt/devkitpro/devkitARM/bin/../lib/gcc/arm-none-eabi/4.9.2/../../../../arm-none-eabi/lib/libstdc++.a(class_type_info.o)
                0x0000000008006b1c                __cxxabiv1::__class_type_info::__do_upcast(__cxxabiv1::__class_type_info const*, void**) const
 .text._ZNK10__cxxabiv117__class_type_info20__do_find_public_srcEiPKvPKS0_S2_
                0x0000000008006b80       0x14 /opt/devkitpro/devkitARM/bin/../lib/gcc/arm-none-eabi/4.9.2/../../../../arm-none-eabi/lib/libstdc++.a(class_type_info.o)
                0x0000000008006b80                __cxxabiv1::__class_type_info::__do_find_public_src(int, void const*, __cxxabiv1::__class_type_info const*, void const*) const
 .text._ZN10__cxxabiv117__class_type_infoD2Ev
                0x0000000008006b94       0x24 /opt/devkitpro/devkitARM/bin/../lib/gcc/arm-none-eabi/4.9.2/../../../../arm-none-eabi/lib/libstdc++.a(class_type_info.o)
                0x0000000008006b94                __cxxabiv1::__class_type_info::~__class_type_info()
                0x0000000008006b94                __cxxabiv1::__class_type_info::~__class_type_info()
 .text._ZN10__cxxabiv117__class_type_infoD0Ev
                0x0000000008006bb8       0x2c /opt/devkitpro/devkitARM/bin/../lib/gcc/arm-none-eabi/4.9.2/../../../../arm-none-eabi/lib/libstdc++.a(class_type_info.o)
                0x0000000008006bb8                __cxxabiv1::__class_type_info::~__class_type_info()
 .text._ZNK10__cxxabiv117__class_type_info11__do_upcastEPKS0_PKvRNS0_15__upcast_resultE
                0x0000000008006be4       0x30 /opt/devkitpro/devkitARM/bin/../lib/gcc/arm-none-eabi/4.9.2/../../../../arm-none-eabi/lib/libstdc++.a(class_type_info.o)
                0x0000000008006be4                __cxxabiv1::__class_type_info::__do_upcast(__cxxabiv1::__class_type_info const*, void const*, __cxxabiv1::__class_type_info::__upcast_result&) const
 .text._ZNK10__cxxabiv117__class_type_info10__do_catchEPKSt9type_infoPPvj
                0x0000000008006c14       0x4c /opt/devkitpro/devkitARM/bin/../lib/gcc/arm-none-eabi/4.9.2/../../../../arm-none-eabi/lib/libstdc++.a(class_type_info.o)
                0x0000000008006c14                __cxxabiv1::__class_type_info::__do_catch(std::type_info const*, void**, unsigned int) const
 .text._ZNK10__cxxabiv117__class_type_info12__do_dyncastEiNS0_10__sub_kindEPKS0_PKvS3_S5_RNS0_16__dyncast_resultE
                0x0000000008006c60       0x7c /opt/devkitpro/devkitARM/bin/../lib/gcc/arm-none-eabi/4.9.2/../../../../arm-none-eabi/lib/libstdc++.a(class_type_info.o)
                0x0000000008006c60                __cxxabiv1::__class_type_info::__do_dyncast(int, __cxxabiv1::__class_type_info::__sub_kind, __cxxabiv1::__class_type_info const*, void const*, __cxxabiv1::__class_type_info const*, void const*, __cxxabiv1::__class_type_info::__dyncast_result&) const
 .text          0x0000000008006cdc        0x0 /opt/devkitpro/devkitARM/bin/../lib/gcc/arm-none-eabi/4.9.2/../../../../arm-none-eabi/lib/libstdc++.a(bad_alloc.o)
 .text._ZNKSt9bad_alloc4whatEv
                0x0000000008006cdc        0xc /opt/devkitpro/devkitARM/bin/../lib/gcc/arm-none-eabi/4.9.2/../../../../arm-none-eabi/lib/libstdc++.a(bad_alloc.o)
                0x0000000008006cdc                std::bad_alloc::what() const
 .text._ZNSt9bad_allocD2Ev
                0x0000000008006ce8       0x24 /opt/devkitpro/devkitARM/bin/../lib/gcc/arm-none-eabi/4.9.2/../../../../arm-none-eabi/lib/libstdc++.a(bad_alloc.o)
                0x0000000008006ce8                std::bad_alloc::~bad_alloc()
                0x0000000008006ce8                std::bad_alloc::~bad_alloc()
 .text._ZNSt9bad_allocD0Ev
                0x0000000008006d0c       0x2c /opt/devkitpro/devkitARM/bin/../lib/gcc/arm-none-eabi/4.9.2/../../../../arm-none-eabi/lib/libstdc++.a(bad_alloc.o)
                0x0000000008006d0c                std::bad_alloc::~bad_alloc()
 .text          0x0000000008006d38        0x0 /opt/devkitpro/devkitARM/bin/../lib/gcc/arm-none-eabi/4.9.2/../../../../arm-none-eabi/lib/libstdc++.a(eh_throw.o)
 .text._ZL23__gxx_exception_cleanup19_Unwind_Reason_CodeP21_Unwind_Control_Block
                0x0000000008006d38       0x3c /opt/devkitpro/devkitARM/bin/../lib/gcc/arm-none-eabi/4.9.2/../../../../arm-none-eabi/lib/libstdc++.a(eh_throw.o)
 .text.__cxa_throw
                0x0000000008006d74       0x9c /opt/devkitpro/devkitARM/bin/../lib/gcc/arm-none-eabi/4.9.2/../../../../arm-none-eabi/lib/libstdc++.a(eh_throw.o)
                0x0000000008006d74                __cxa_throw
 .text.__cxa_rethrow
                0x0000000008006e10       0xb0 /opt/devkitpro/devkitARM/bin/../lib/gcc/arm-none-eabi/4.9.2/../../../../arm-none-eabi/lib/libstdc++.a(eh_throw.o)
                0x0000000008006e10                __cxa_rethrow
 .text          0x0000000008006ec0        0x0 /opt/devkitpro/devkitARM/bin/../lib/gcc/arm-none-eabi/4.9.2/../../../../arm-none-eabi/lib/libstdc++.a(eh_globals.o)
 .text.__cxa_get_globals_fast
                0x0000000008006ec0        0xc /opt/devkitpro/devkitARM/bin/../lib/gcc/arm-none-eabi/4.9.2/../../../../arm-none-eabi/lib/libstdc++.a(eh_globals.o)
                0x0000000008006ec0                __cxa_get_globals_fast
 .text.__cxa_get_globals
                0x0000000008006ecc        0xc /opt/devkitpro/devkitARM/bin/../lib/gcc/arm-none-eabi/4.9.2/../../../../arm-none-eabi/lib/libstdc++.a(eh_globals.o)
                0x0000000008006ecc                __cxa_get_globals
 .text          0x0000000008006ed8        0x0 /opt/devkitpro/devkitARM/bin/../lib/gcc/arm-none-eabi/4.9.2/../../../../arm-none-eabi/lib/libstdc++.a(eh_catch.o)
 .text.__cxa_get_exception_ptr
                0x0000000008006ed8        0x8 /opt/devkitpro/devkitARM/bin/../lib/gcc/arm-none-eabi/4.9.2/../../../../arm-none-eabi/lib/libstdc++.a(eh_catch.o)
                0x0000000008006ed8                __cxa_get_exception_ptr
 .text.__cxa_begin_catch
                0x0000000008006ee0       0xe4 /opt/devkitpro/devkitARM/bin/../lib/gcc/arm-none-eabi/4.9.2/../../../../arm-none-eabi/lib/libstdc++.a(eh_catch.o)
                0x0000000008006ee0                __cxa_begin_catch
 .text.__cxa_end_catch
                0x0000000008006fc4       0xe4 /opt/devkitpro/devkitARM/bin/../lib/gcc/arm-none-eabi/4.9.2/../../../../arm-none-eabi/lib/libstdc++.a(eh_catch.o)
                0x0000000008006fc4                __cxa_end_catch
 .text._ZSt18uncaught_exceptionv
                0x00000000080070a8       0x1c /opt/devkitpro/devkitARM/bin/../lib/gcc/arm-none-eabi/4.9.2/../../../../arm-none-eabi/lib/libstdc++.a(eh_catch.o)
                0x00000000080070a8                std::uncaught_exception()
 .text          0x00000000080070c4        0x0 /opt/devkitpro/devkitARM/bin/../lib/gcc/arm-none-eabi/4.9.2/../../../../arm-none-eabi/lib/libstdc++.a(eh_alloc.o)
 .text.__cxa_allocate_exception
                0x00000000080070c4       0x88 /opt/devkitpro/devkitARM/bin/../lib/gcc/arm-none-eabi/4.9.2/../../../../arm-none-eabi/lib/libstdc++.a(eh_alloc.o)
                0x00000000080070c4                __cxa_allocate_exception
 .text.__cxa_free_exception
                0x000000000800714c       0x64 /opt/devkitpro/devkitARM/bin/../lib/gcc/arm-none-eabi/4.9.2/../../../../arm-none-eabi/lib/libstdc++.a(eh_alloc.o)
                0x000000000800714c                __cxa_free_exception
 .text.__cxa_allocate_dependent_exception
                0x00000000080071b0       0x80 /opt/devkitpro/devkitARM/bin/../lib/gcc/arm-none-eabi/4.9.2/../../../../arm-none-eabi/lib/libstdc++.a(eh_alloc.o)
                0x00000000080071b0                __cxa_allocate_dependent_exception
 .text.__cxa_free_dependent_exception
                0x0000000008007230       0x70 /opt/devkitpro/devkitARM/bin/../lib/gcc/arm-none-eabi/4.9.2/../../../../arm-none-eabi/lib/libstdc++.a(eh_alloc.o)
                0x0000000008007230                __cxa_free_dependent_exception
 .text          0x00000000080072a0        0x0 /opt/devkitpro/devkitARM/bin/../lib/gcc/arm-none-eabi/4.9.2/../../../../arm-none-eabi/lib/libstdc++.a(eh_exception.o)
 .text._ZNSt9exceptionD2Ev
                0x00000000080072a0        0x4 /opt/devkitpro/devkitARM/bin/../lib/gcc/arm-none-eabi/4.9.2/../../../../arm-none-eabi/lib/libstdc++.a(eh_exception.o)
                0x00000000080072a0                std::exception::~exception()
                0x00000000080072a0                std::exception::~exception()
 .text._ZNSt13bad_exceptionD2Ev
                0x00000000080072a4        0x4 /opt/devkitpro/devkitARM/bin/../lib/gcc/arm-none-eabi/4.9.2/../../../../arm-none-eabi/lib/libstdc++.a(eh_exception.o)
                0x00000000080072a4                std::bad_exception::~bad_exception()
                0x00000000080072a4                std::bad_exception::~bad_exception()
 .text._ZNKSt9exception4whatEv
                0x00000000080072a8        0xc /opt/devkitpro/devkitARM/bin/../lib/gcc/arm-none-eabi/4.9.2/../../../../arm-none-eabi/lib/libstdc++.a(eh_exception.o)
                0x00000000080072a8                std::exception::what() const
 .text._ZNKSt13bad_exception4whatEv
                0x00000000080072b4        0xc /opt/devkitpro/devkitARM/bin/../lib/gcc/arm-none-eabi/4.9.2/../../../../arm-none-eabi/lib/libstdc++.a(eh_exception.o)
                0x00000000080072b4                std::bad_exception::what() const
 .text._ZNSt9exceptionD0Ev
                0x00000000080072c0       0x18 /opt/devkitpro/devkitARM/bin/../lib/gcc/arm-none-eabi/4.9.2/../../../../arm-none-eabi/lib/libstdc++.a(eh_exception.o)
                0x00000000080072c0                std::exception::~exception()
 .text._ZNSt13bad_exceptionD0Ev
                0x00000000080072d8       0x18 /opt/devkitpro/devkitARM/bin/../lib/gcc/arm-none-eabi/4.9.2/../../../../arm-none-eabi/lib/libstdc++.a(eh_exception.o)
                0x00000000080072d8                std::bad_exception::~bad_exception()
 .text._ZN10__cxxabiv115__forced_unwindD2Ev
                0x00000000080072f0        0x4 /opt/devkitpro/devkitARM/bin/../lib/gcc/arm-none-eabi/4.9.2/../../../../arm-none-eabi/lib/libstdc++.a(eh_exception.o)
                0x00000000080072f0                __cxxabiv1::__forced_unwind::~__forced_unwind()
                0x00000000080072f0                __cxxabiv1::__forced_unwind::~__forced_unwind()
 .text._ZN10__cxxabiv115__forced_unwindD0Ev
                0x00000000080072f4       0x18 /opt/devkitpro/devkitARM/bin/../lib/gcc/arm-none-eabi/4.9.2/../../../../arm-none-eabi/lib/libstdc++.a(eh_exception.o)
                0x00000000080072f4                __cxxabiv1::__forced_unwind::~__forced_unwind()
 .text._ZN10__cxxabiv119__foreign_exceptionD2Ev
                0x000000000800730c        0x4 /opt/devkitpro/devkitARM/bin/../lib/gcc/arm-none-eabi/4.9.2/../../../../arm-none-eabi/lib/libstdc++.a(eh_exception.o)
                0x000000000800730c                __cxxabiv1::__foreign_exception::~__foreign_exception()
                0x000000000800730c                __cxxabiv1::__foreign_exception::~__foreign_exception()
 .text._ZN10__cxxabiv119__foreign_exceptionD0Ev
                0x0000000008007310       0x18 /opt/devkitpro/devkitARM/bin/../lib/gcc/arm-none-eabi/4.9.2/../../../../arm-none-eabi/lib/libstdc++.a(eh_exception.o)
                0x0000000008007310                __cxxabiv1::__foreign_exception::~__foreign_exception()
 .text          0x0000000008007328        0x0 /opt/devkitpro/devkitARM/bin/../lib/gcc/arm-none-eabi/4.9.2/../../../../arm-none-eabi/lib/libstdc++.a(eh_terminate.o)
 .text._ZN10__cxxabiv111__terminateEPFvvE
                0x0000000008007328       0x34 /opt/devkitpro/devkitARM/bin/../lib/gcc/arm-none-eabi/4.9.2/../../../../arm-none-eabi/lib/libstdc++.a(eh_terminate.o)
                0x0000000008007328                __cxxabiv1::__terminate(void (*)())
 .text._ZSt9terminatev
                0x000000000800735c       0x14 /opt/devkitpro/devkitARM/bin/../lib/gcc/arm-none-eabi/4.9.2/../../../../arm-none-eabi/lib/libstdc++.a(eh_terminate.o)
                0x000000000800735c                std::terminate()
 .text._ZN10__cxxabiv112__unexpectedEPFvvE
                0x0000000008007370       0x10 /opt/devkitpro/devkitARM/bin/../lib/gcc/arm-none-eabi/4.9.2/../../../../arm-none-eabi/lib/libstdc++.a(eh_terminate.o)
                0x0000000008007370                __cxxabiv1::__unexpected(void (*)())
 .text._ZSt10unexpectedv
                0x0000000008007380       0x14 /opt/devkitpro/devkitARM/bin/../lib/gcc/arm-none-eabi/4.9.2/../../../../arm-none-eabi/lib/libstdc++.a(eh_terminate.o)
                0x0000000008007380                std::unexpected()
 .text._ZSt13set_terminatePFvvE
                0x0000000008007394       0x18 /opt/devkitpro/devkitARM/bin/../lib/gcc/arm-none-eabi/4.9.2/../../../../arm-none-eabi/lib/libstdc++.a(eh_terminate.o)
                0x0000000008007394                std::set_terminate(void (*)())
 .text._ZSt13get_terminatev
                0x00000000080073ac       0x10 /opt/devkitpro/devkitARM/bin/../lib/gcc/arm-none-eabi/4.9.2/../../../../arm-none-eabi/lib/libstdc++.a(eh_terminate.o)
                0x00000000080073ac                std::get_terminate()
 .text._ZSt14set_unexpectedPFvvE
                0x00000000080073bc       0x18 /opt/devkitpro/devkitARM/bin/../lib/gcc/arm-none-eabi/4.9.2/../../../../arm-none-eabi/lib/libstdc++.a(eh_terminate.o)
                0x00000000080073bc                std::set_unexpected(void (*)())
 .text._ZSt14get_unexpectedv
                0x00000000080073d4       0x10 /opt/devkitpro/devkitARM/bin/../lib/gcc/arm-none-eabi/4.9.2/../../../../arm-none-eabi/lib/libstdc++.a(eh_terminate.o)
                0x00000000080073d4                std::get_unexpected()
 .text          0x00000000080073e4        0x0 /opt/devkitpro/devkitARM/bin/../lib/gcc/arm-none-eabi/4.9.2/../../../../arm-none-eabi/lib/libstdc++.a(eh_call.o)
 .text._ZN10__cxxabiv1L24__is_gxx_exception_classEPc
                0x00000000080073e4       0x70 /opt/devkitpro/devkitARM/bin/../lib/gcc/arm-none-eabi/4.9.2/../../../../arm-none-eabi/lib/libstdc++.a(eh_call.o)
 .text.__cxa_call_terminate
                0x0000000008007454       0x2c /opt/devkitpro/devkitARM/bin/../lib/gcc/arm-none-eabi/4.9.2/../../../../arm-none-eabi/lib/libstdc++.a(eh_call.o)
                0x0000000008007454                __cxa_call_terminate
 .text.__cxa_call_unexpected
                0x0000000008007480      0x138 /opt/devkitpro/devkitARM/bin/../lib/gcc/arm-none-eabi/4.9.2/../../../../arm-none-eabi/lib/libstdc++.a(eh_call.o)
                0x0000000008007480                __cxa_call_unexpected
 .text          0x00000000080075b8        0x0 /opt/devkitpro/devkitARM/bin/../lib/gcc/arm-none-eabi/4.9.2/../../../../arm-none-eabi/lib/libstdc++.a(eh_term_handler.o)
 .text          0x00000000080075b8        0x0 /opt/devkitpro/devkitARM/bin/../lib/gcc/arm-none-eabi/4.9.2/../../../../arm-none-eabi/lib/libstdc++.a(eh_personality.o)
 .text._ZL12read_sleb128PKhPl
                0x00000000080075b8       0x44 /opt/devkitpro/devkitARM/bin/../lib/gcc/arm-none-eabi/4.9.2/../../../../arm-none-eabi/lib/libstdc++.a(eh_personality.o)
 .text._ZL28read_encoded_value_with_basehjPKhPj
                0x00000000080075fc      0x1b0 /opt/devkitpro/devkitARM/bin/../lib/gcc/arm-none-eabi/4.9.2/../../../../arm-none-eabi/lib/libstdc++.a(eh_personality.o)
 .text._ZL21base_of_encoded_valuehP15_Unwind_Context
                0x00000000080077ac       0x8c /opt/devkitpro/devkitARM/bin/../lib/gcc/arm-none-eabi/4.9.2/../../../../arm-none-eabi/lib/libstdc++.a(eh_personality.o)
 .text._ZL17parse_lsda_headerP15_Unwind_ContextPKhP16lsda_header_info
                0x0000000008007838       0xe0 /opt/devkitpro/devkitARM/bin/../lib/gcc/arm-none-eabi/4.9.2/../../../../arm-none-eabi/lib/libstdc++.a(eh_personality.o)
 .text.__gxx_personality_v0
                0x0000000008007918      0x62c /opt/devkitpro/devkitARM/bin/../lib/gcc/arm-none-eabi/4.9.2/../../../../arm-none-eabi/lib/libstdc++.a(eh_personality.o)
                0x0000000008007918                __gxx_personality_v0
 .text          0x0000000008007f44        0x0 /opt/devkitpro/devkitARM/bin/../lib/gcc/arm-none-eabi/4.9.2/../../../../arm-none-eabi/lib/libstdc++.a(eh_arm.o)
 .text.__cxa_end_cleanup
                0x0000000008007f44       0x10 /opt/devkitpro/devkitARM/bin/../lib/gcc/arm-none-eabi/4.9.2/../../../../arm-none-eabi/lib/libstdc++.a(eh_arm.o)
                0x0000000008007f44                __cxa_end_cleanup
 .text.__cxa_type_match
                0x0000000008007f54      0x158 /opt/devkitpro/devkitARM/bin/../lib/gcc/arm-none-eabi/4.9.2/../../../../arm-none-eabi/lib/libstdc++.a(eh_arm.o)
                0x0000000008007f54                __cxa_type_match
 .text.__cxa_begin_cleanup
                0x00000000080080ac       0xbc /opt/devkitpro/devkitARM/bin/../lib/gcc/arm-none-eabi/4.9.2/../../../../arm-none-eabi/lib/libstdc++.a(eh_arm.o)
                0x00000000080080ac                __cxa_begin_cleanup
 .text.__gnu_end_cleanup
                0x0000000008008168       0xbc /opt/devkitpro/devkitARM/bin/../lib/gcc/arm-none-eabi/4.9.2/../../../../arm-none-eabi/lib/libstdc++.a(eh_arm.o)
                0x0000000008008168                __gnu_end_cleanup
 .text          0x0000000008008224        0x0 /opt/devkitpro/devkitARM/bin/../lib/gcc/arm-none-eabi/4.9.2/../../../../arm-none-eabi/lib/libstdc++.a(vterminate.o)
 .text._ZN9__gnu_cxx27__verbose_terminate_handlerEv
                0x0000000008008224      0x1b0 /opt/devkitpro/devkitARM/bin/../lib/gcc/arm-none-eabi/4.9.2/../../../../arm-none-eabi/lib/libstdc++.a(vterminate.o)
                0x0000000008008224                __gnu_cxx::__verbose_terminate_handler()
 .text          0x00000000080083d4     0xd294 /opt/devkitpro/devkitARM/bin/../lib/gcc/arm-none-eabi/4.9.2/../../../../arm-none-eabi/lib/libstdc++.a(cp-demangle.o)
                0x00000000080154e0                __cxa_demangle
                0x0000000008015638                __gcclibcxx_demangle_callback
 .text          0x0000000008015668        0x0 /opt/devkitpro/devkitARM/bin/../lib/gcc/arm-none-eabi/4.9.2/../../../../arm-none-eabi/lib/libstdc++.a(pure.o)
 .text.__cxa_pure_virtual
                0x0000000008015668       0x1c /opt/devkitpro/devkitARM/bin/../lib/gcc/arm-none-eabi/4.9.2/../../../../arm-none-eabi/lib/libstdc++.a(pure.o)
                0x0000000008015668                __cxa_pure_virtual
 .text.__cxa_deleted_virtual
                0x0000000008015684       0x1c /opt/devkitpro/devkitARM/bin/../lib/gcc/arm-none-eabi/4.9.2/../../../../arm-none-eabi/lib/libstdc++.a(pure.o)
                0x0000000008015684                __cxa_deleted_virtual
 .text          0x00000000080156a0        0x0 /opt/devkitpro/devkitARM/bin/../lib/gcc/arm-none-eabi/4.9.2/../../../../arm-none-eabi/lib/libstdc++.a(eh_type.o)
 .text.__cxa_current_exception_type
                0x00000000080156a0       0x30 /opt/devkitpro/devkitARM/bin/../lib/gcc/arm-none-eabi/4.9.2/../../../../arm-none-eabi/lib/libstdc++.a(eh_type.o)
                0x00000000080156a0                __cxa_current_exception_type
 .text          0x00000000080156d0        0x0 /opt/devkitpro/devkitARM/bin/../lib/gcc/arm-none-eabi/4.9.2/../../../../arm-none-eabi/lib/libstdc++.a(eh_unex_handler.o)
 .text          0x00000000080156d0        0x0 /opt/devkitpro/devkitARM/bin/../lib/gcc/arm-none-eabi/4.9.2/../../../../arm-none-eabi/lib/libc.a(lib_a-fputc.o)
 .text._fputc_r
                0x00000000080156d0       0xac /opt/devkitpro/devkitARM/bin/../lib/gcc/arm-none-eabi/4.9.2/../../../../arm-none-eabi/lib/libc.a(lib_a-fputc.o)
                0x00000000080156d0                _fputc_r
 .text.fputc    0x000000000801577c       0x9c /opt/devkitpro/devkitARM/bin/../lib/gcc/arm-none-eabi/4.9.2/../../../../arm-none-eabi/lib/libc.a(lib_a-fputc.o)
                0x000000000801577c                fputc
 .text          0x0000000008015818        0x0 /opt/devkitpro/devkitARM/bin/../lib/gcc/arm-none-eabi/4.9.2/../../../../arm-none-eabi/lib/libc.a(lib_a-fputs.o)
 .text._fputs_r
                0x0000000008015818       0xf0 /opt/devkitpro/devkitARM/bin/../lib/gcc/arm-none-eabi/4.9.2/../../../../arm-none-eabi/lib/libc.a(lib_a-fputs.o)
                0x0000000008015818                _fputs_r
 .text.fputs    0x0000000008015908       0x20 /opt/devkitpro/devkitARM/bin/../lib/gcc/arm-none-eabi/4.9.2/../../../../arm-none-eabi/lib/libc.a(lib_a-fputs.o)
                0x0000000008015908                fputs
 .text          0x0000000008015928        0x0 /opt/devkitpro/devkitARM/bin/../lib/gcc/arm-none-eabi/4.9.2/../../../../arm-none-eabi/lib/libc.a(lib_a-fvwrite.o)
 .text.__sfvwrite_r
                0x0000000008015928      0x4ec /opt/devkitpro/devkitARM/bin/../lib/gcc/arm-none-eabi/4.9.2/../../../../arm-none-eabi/lib/libc.a(lib_a-fvwrite.o)
                0x0000000008015928                __sfvwrite_r
 .text          0x0000000008015e14        0x0 /opt/devkitpro/devkitARM/bin/../lib/gcc/arm-none-eabi/4.9.2/../../../../arm-none-eabi/lib/libc.a(lib_a-fwrite.o)
 .text._fwrite_r
                0x0000000008015e14      0x128 /opt/devkitpro/devkitARM/bin/../lib/gcc/arm-none-eabi/4.9.2/../../../../arm-none-eabi/lib/libc.a(lib_a-fwrite.o)
                0x0000000008015e14                _fwrite_r
 .text.fwrite   0x0000000008015f3c       0x3c /opt/devkitpro/devkitARM/bin/../lib/gcc/arm-none-eabi/4.9.2/../../../../arm-none-eabi/lib/libc.a(lib_a-fwrite.o)
                0x0000000008015f3c                fwrite
 .text          0x0000000008015f78        0x0 /opt/devkitpro/devkitARM/bin/../lib/gcc/arm-none-eabi/4.9.2/../../../../arm-none-eabi/lib/libc.a(lib_a-memchr.o)
 .text.memchr   0x0000000008015f78      0x118 /opt/devkitpro/devkitARM/bin/../lib/gcc/arm-none-eabi/4.9.2/../../../../arm-none-eabi/lib/libc.a(lib_a-memchr.o)
                0x0000000008015f78                memchr
 .text          0x0000000008016090        0x0 /opt/devkitpro/devkitARM/bin/../lib/gcc/arm-none-eabi/4.9.2/../../../../arm-none-eabi/lib/libc.a(lib_a-memcmp.o)
 .text.memcmp   0x0000000008016090       0xb0 /opt/devkitpro/devkitARM/bin/../lib/gcc/arm-none-eabi/4.9.2/../../../../arm-none-eabi/lib/libc.a(lib_a-memcmp.o)
                0x0000000008016090                memcmp
 .text          0x0000000008016140        0x0 /opt/devkitpro/devkitARM/bin/../lib/gcc/arm-none-eabi/4.9.2/../../../../arm-none-eabi/lib/libc.a(lib_a-memmove.o)
 .text.memmove  0x0000000008016140      0x12c /opt/devkitpro/devkitARM/bin/../lib/gcc/arm-none-eabi/4.9.2/../../../../arm-none-eabi/lib/libc.a(lib_a-memmove.o)
                0x0000000008016140                memmove
 .text          0x000000000801626c        0x0 /opt/devkitpro/devkitARM/bin/../lib/gcc/arm-none-eabi/4.9.2/../../../../arm-none-eabi/lib/libc.a(lib_a-putc.o)
 .text._putc_r  0x000000000801626c      0x100 /opt/devkitpro/devkitARM/bin/../lib/gcc/arm-none-eabi/4.9.2/../../../../arm-none-eabi/lib/libc.a(lib_a-putc.o)
                0x000000000801626c                _putc_r
 .text.putc     0x000000000801636c      0x104 /opt/devkitpro/devkitARM/bin/../lib/gcc/arm-none-eabi/4.9.2/../../../../arm-none-eabi/lib/libc.a(lib_a-putc.o)
                0x000000000801636c                putc
 .text          0x0000000008016470        0x0 /opt/devkitpro/devkitARM/bin/../lib/gcc/arm-none-eabi/4.9.2/../../../../arm-none-eabi/lib/libc.a(lib_a-realloc.o)
 .text.realloc  0x0000000008016470       0x24 /opt/devkitpro/devkitARM/bin/../lib/gcc/arm-none-eabi/4.9.2/../../../../arm-none-eabi/lib/libc.a(lib_a-realloc.o)
                0x0000000008016470                realloc
 .text          0x0000000008016494        0x0 /opt/devkitpro/devkitARM/bin/../lib/gcc/arm-none-eabi/4.9.2/../../../../arm-none-eabi/lib/libc.a(lib_a-reallocr.o)
 .text._realloc_r
                0x0000000008016494      0x4dc /opt/devkitpro/devkitARM/bin/../lib/gcc/arm-none-eabi/4.9.2/../../../../arm-none-eabi/lib/libc.a(lib_a-reallocr.o)
                0x0000000008016494                _realloc_r
 .text          0x0000000008016970        0x0 /opt/devkitpro/devkitARM/bin/../lib/gcc/arm-none-eabi/4.9.2/../../../../arm-none-eabi/lib/libc.a(lib_a-sprintf.o)
 .text._sprintf_r
                0x0000000008016970       0x68 /opt/devkitpro/devkitARM/bin/../lib/gcc/arm-none-eabi/4.9.2/../../../../arm-none-eabi/lib/libc.a(lib_a-sprintf.o)
                0x0000000008016970                _sprintf_r
 .text.sprintf  0x00000000080169d8       0x68 /opt/devkitpro/devkitARM/bin/../lib/gcc/arm-none-eabi/4.9.2/../../../../arm-none-eabi/lib/libc.a(lib_a-sprintf.o)
                0x00000000080169d8                sprintf
 .text          0x0000000008016a40      0x224 /opt/devkitpro/devkitARM/bin/../lib/gcc/arm-none-eabi/4.9.2/../../../../arm-none-eabi/lib/libc.a(lib_a-strcmp.o)
                0x0000000008016a40                strcmp
 .text          0x0000000008016c64        0x0 /opt/devkitpro/devkitARM/bin/../lib/gcc/arm-none-eabi/4.9.2/../../../../arm-none-eabi/lib/libc.a(lib_a-strlen.o)
 .text.strlen   0x0000000008016c64       0x60 /opt/devkitpro/devkitARM/bin/../lib/gcc/arm-none-eabi/4.9.2/../../../../arm-none-eabi/lib/libc.a(lib_a-strlen.o)
                0x0000000008016c64                strlen
 .text          0x0000000008016cc4        0x0 /opt/devkitpro/devkitARM/bin/../lib/gcc/arm-none-eabi/4.9.2/../../../../arm-none-eabi/lib/libc.a(lib_a-strncmp.o)
 .text.strncmp  0x0000000008016cc4      0x118 /opt/devkitpro/devkitARM/bin/../lib/gcc/arm-none-eabi/4.9.2/../../../../arm-none-eabi/lib/libc.a(lib_a-strncmp.o)
                0x0000000008016cc4                strncmp
 .text          0x0000000008016ddc        0x0 /opt/devkitpro/devkitARM/bin/../lib/gcc/arm-none-eabi/4.9.2/../../../../arm-none-eabi/lib/libc.a(lib_a-svfprintf.o)
 .text.get_arg  0x0000000008016ddc      0x860 /opt/devkitpro/devkitARM/bin/../lib/gcc/arm-none-eabi/4.9.2/../../../../arm-none-eabi/lib/libc.a(lib_a-svfprintf.o)
 .text._svfprintf_r
                0x000000000801763c     0x4450 /opt/devkitpro/devkitARM/bin/../lib/gcc/arm-none-eabi/4.9.2/../../../../arm-none-eabi/lib/libc.a(lib_a-svfprintf.o)
                0x000000000801763c                _svfprintf_r
 .text          0x000000000801ba8c        0x0 /opt/devkitpro/devkitARM/bin/../lib/gcc/arm-none-eabi/4.9.2/../../../../arm-none-eabi/lib/libc.a(lib_a-syswrite.o)
 .text.write    0x000000000801ba8c       0x2c /opt/devkitpro/devkitARM/bin/../lib/gcc/arm-none-eabi/4.9.2/../../../../arm-none-eabi/lib/libc.a(lib_a-syswrite.o)
                0x000000000801ba8c                write
 .text          0x000000000801bab8        0x0 /opt/devkitpro/devkitARM/bin/../lib/gcc/arm-none-eabi/4.9.2/../../../../arm-none-eabi/lib/libc.a(lib_a-wbuf.o)
 .text.__swbuf_r
                0x000000000801bab8      0x128 /opt/devkitpro/devkitARM/bin/../lib/gcc/arm-none-eabi/4.9.2/../../../../arm-none-eabi/lib/libc.a(lib_a-wbuf.o)
                0x000000000801bab8                __swbuf_r
 .text.__swbuf  0x000000000801bbe0       0x20 /opt/devkitpro/devkitARM/bin/../lib/gcc/arm-none-eabi/4.9.2/../../../../arm-none-eabi/lib/libc.a(lib_a-wbuf.o)
                0x000000000801bbe0                __swbuf
 .text          0x000000000801bc00        0x0 /opt/devkitpro/devkitARM/bin/../lib/gcc/arm-none-eabi/4.9.2/../../../../arm-none-eabi/lib/libc.a(lib_a-wcrtomb.o)
 .text._wcrtomb_r
                0x000000000801bc00       0x98 /opt/devkitpro/devkitARM/bin/../lib/gcc/arm-none-eabi/4.9.2/../../../../arm-none-eabi/lib/libc.a(lib_a-wcrtomb.o)
                0x000000000801bc00                _wcrtomb_r
 .text.wcrtomb  0x000000000801bc98       0xa0 /opt/devkitpro/devkitARM/bin/../lib/gcc/arm-none-eabi/4.9.2/../../../../arm-none-eabi/lib/libc.a(lib_a-wcrtomb.o)
                0x000000000801bc98                wcrtomb
 .text          0x000000000801bd38        0x0 /opt/devkitpro/devkitARM/bin/../lib/gcc/arm-none-eabi/4.9.2/../../../../arm-none-eabi/lib/libc.a(lib_a-wcsrtombs.o)
 .text._wcsrtombs_r
                0x000000000801bd38       0x24 /opt/devkitpro/devkitARM/bin/../lib/gcc/arm-none-eabi/4.9.2/../../../../arm-none-eabi/lib/libc.a(lib_a-wcsrtombs.o)
                0x000000000801bd38                _wcsrtombs_r
 .text.wcsrtombs
                0x000000000801bd5c       0x40 /opt/devkitpro/devkitARM/bin/../lib/gcc/arm-none-eabi/4.9.2/../../../../arm-none-eabi/lib/libc.a(lib_a-wcsrtombs.o)
                0x000000000801bd5c                wcsrtombs
 .text          0x000000000801bd9c        0x0 /opt/devkitpro/devkitARM/bin/../lib/gcc/arm-none-eabi/4.9.2/../../../../arm-none-eabi/lib/libc.a(lib_a-wctomb_r.o)
 .text.__utf8_wctomb
                0x000000000801bd9c      0x114 /opt/devkitpro/devkitARM/bin/../lib/gcc/arm-none-eabi/4.9.2/../../../../arm-none-eabi/lib/libc.a(lib_a-wctomb_r.o)
                0x000000000801bd9c                __utf8_wctomb
 .text._wctomb_r
                0x000000000801beb0       0x50 /opt/devkitpro/devkitARM/bin/../lib/gcc/arm-none-eabi/4.9.2/../../../../arm-none-eabi/lib/libc.a(lib_a-wctomb_r.o)
                0x000000000801beb0                _wctomb_r
 .text.__ascii_wctomb
                0x000000000801bf00       0x28 /opt/devkitpro/devkitARM/bin/../lib/gcc/arm-none-eabi/4.9.2/../../../../arm-none-eabi/lib/libc.a(lib_a-wctomb_r.o)
                0x000000000801bf00                __ascii_wctomb
 .text.__sjis_wctomb
                0x000000000801bf28       0x8c /opt/devkitpro/devkitARM/bin/../lib/gcc/arm-none-eabi/4.9.2/../../../../arm-none-eabi/lib/libc.a(lib_a-wctomb_r.o)
                0x000000000801bf28                __sjis_wctomb
 .text.__eucjp_wctomb
                0x000000000801bfb4       0xd4 /opt/devkitpro/devkitARM/bin/../lib/gcc/arm-none-eabi/4.9.2/../../../../arm-none-eabi/lib/libc.a(lib_a-wctomb_r.o)
                0x000000000801bfb4                __eucjp_wctomb
 .text.__jis_wctomb
                0x000000000801c088       0xe0 /opt/devkitpro/devkitARM/bin/../lib/gcc/arm-none-eabi/4.9.2/../../../../arm-none-eabi/lib/libc.a(lib_a-wctomb_r.o)
                0x000000000801c088                __jis_wctomb
 .text          0x000000000801c168        0x0 /opt/devkitpro/devkitARM/bin/../lib/gcc/arm-none-eabi/4.9.2/../../../../arm-none-eabi/lib/libc.a(lib_a-wsetup.o)
 .text.__swsetup_r
                0x000000000801c168      0x154 /opt/devkitpro/devkitARM/bin/../lib/gcc/arm-none-eabi/4.9.2/../../../../arm-none-eabi/lib/libc.a(lib_a-wsetup.o)
                0x000000000801c168                __swsetup_r
 .text          0x000000000801c2bc        0x0 /opt/devkitpro/devkitARM/bin/../lib/gcc/arm-none-eabi/4.9.2/../../../../arm-none-eabi/lib/libc.a(lib_a-dtoa.o)
 .text.quorem   0x000000000801c2bc      0x1d8 /opt/devkitpro/devkitARM/bin/../lib/gcc/arm-none-eabi/4.9.2/../../../../arm-none-eabi/lib/libc.a(lib_a-dtoa.o)
 *fill*         0x000000000801c494        0x4 
 .text._dtoa_r  0x000000000801c498     0x16a0 /opt/devkitpro/devkitARM/bin/../lib/gcc/arm-none-eabi/4.9.2/../../../../arm-none-eabi/lib/libc.a(lib_a-dtoa.o)
                0x000000000801c498                _dtoa_r
 .text          0x000000000801db38        0x0 /opt/devkitpro/devkitARM/bin/../lib/gcc/arm-none-eabi/4.9.2/../../../../arm-none-eabi/lib/libc.a(lib_a-fflush.o)
 .text.__sflush_r
                0x000000000801db38      0x240 /opt/devkitpro/devkitARM/bin/../lib/gcc/arm-none-eabi/4.9.2/../../../../arm-none-eabi/lib/libc.a(lib_a-fflush.o)
                0x000000000801db38                __sflush_r
 .text._fflush_r
                0x000000000801dd78       0x98 /opt/devkitpro/devkitARM/bin/../lib/gcc/arm-none-eabi/4.9.2/../../../../arm-none-eabi/lib/libc.a(lib_a-fflush.o)
                0x000000000801dd78                _fflush_r
 .text.fflush   0x000000000801de10       0x3c /opt/devkitpro/devkitARM/bin/../lib/gcc/arm-none-eabi/4.9.2/../../../../arm-none-eabi/lib/libc.a(lib_a-fflush.o)
                0x000000000801de10                fflush
 .text          0x000000000801de4c        0x0 /opt/devkitpro/devkitARM/bin/../lib/gcc/arm-none-eabi/4.9.2/../../../../arm-none-eabi/lib/libc.a(lib_a-findfp.o)
 .text._cleanup_r
                0x000000000801de4c       0x18 /opt/devkitpro/devkitARM/bin/../lib/gcc/arm-none-eabi/4.9.2/../../../../arm-none-eabi/lib/libc.a(lib_a-findfp.o)
                0x000000000801de4c                _cleanup_r
 .text.__fp_lock
                0x000000000801de64       0x1c /opt/devkitpro/devkitARM/bin/../lib/gcc/arm-none-eabi/4.9.2/../../../../arm-none-eabi/lib/libc.a(lib_a-findfp.o)
 .text.__fp_unlock
                0x000000000801de80       0x1c /opt/devkitpro/devkitARM/bin/../lib/gcc/arm-none-eabi/4.9.2/../../../../arm-none-eabi/lib/libc.a(lib_a-findfp.o)
 .text.__sinit.part.1
                0x000000000801de9c      0x160 /opt/devkitpro/devkitARM/bin/../lib/gcc/arm-none-eabi/4.9.2/../../../../arm-none-eabi/lib/libc.a(lib_a-findfp.o)
 .text.__sfmoreglue
                0x000000000801dffc       0x50 /opt/devkitpro/devkitARM/bin/../lib/gcc/arm-none-eabi/4.9.2/../../../../arm-none-eabi/lib/libc.a(lib_a-findfp.o)
                0x000000000801dffc                __sfmoreglue
 .text.__sfp    0x000000000801e04c       0xec /opt/devkitpro/devkitARM/bin/../lib/gcc/arm-none-eabi/4.9.2/../../../../arm-none-eabi/lib/libc.a(lib_a-findfp.o)
                0x000000000801e04c                __sfp
 .text._cleanup
                0x000000000801e138       0x24 /opt/devkitpro/devkitARM/bin/../lib/gcc/arm-none-eabi/4.9.2/../../../../arm-none-eabi/lib/libc.a(lib_a-findfp.o)
                0x000000000801e138                _cleanup
 .text.__sinit  0x000000000801e15c       0x10 /opt/devkitpro/devkitARM/bin/../lib/gcc/arm-none-eabi/4.9.2/../../../../arm-none-eabi/lib/libc.a(lib_a-findfp.o)
                0x000000000801e15c                __sinit
 .text.__sfp_lock_acquire
                0x000000000801e16c        0x4 /opt/devkitpro/devkitARM/bin/../lib/gcc/arm-none-eabi/4.9.2/../../../../arm-none-eabi/lib/libc.a(lib_a-findfp.o)
                0x000000000801e16c                __sfp_lock_acquire
 .text.__sfp_lock_release
                0x000000000801e170        0x4 /opt/devkitpro/devkitARM/bin/../lib/gcc/arm-none-eabi/4.9.2/../../../../arm-none-eabi/lib/libc.a(lib_a-findfp.o)
                0x000000000801e170                __sfp_lock_release
 .text.__sinit_lock_acquire
                0x000000000801e174        0x4 /opt/devkitpro/devkitARM/bin/../lib/gcc/arm-none-eabi/4.9.2/../../../../arm-none-eabi/lib/libc.a(lib_a-findfp.o)
                0x000000000801e174                __sinit_lock_acquire
 .text.__sinit_lock_release
                0x000000000801e178        0x4 /opt/devkitpro/devkitARM/bin/../lib/gcc/arm-none-eabi/4.9.2/../../../../arm-none-eabi/lib/libc.a(lib_a-findfp.o)
                0x000000000801e178                __sinit_lock_release
 .text.__fp_lock_all
                0x000000000801e17c       0x1c /opt/devkitpro/devkitARM/bin/../lib/gcc/arm-none-eabi/4.9.2/../../../../arm-none-eabi/lib/libc.a(lib_a-findfp.o)
                0x000000000801e17c                __fp_lock_all
 .text.__fp_unlock_all
                0x000000000801e198       0x1c /opt/devkitpro/devkitARM/bin/../lib/gcc/arm-none-eabi/4.9.2/../../../../arm-none-eabi/lib/libc.a(lib_a-findfp.o)
                0x000000000801e198                __fp_unlock_all
 .text          0x000000000801e1b4        0x0 /opt/devkitpro/devkitARM/bin/../lib/gcc/arm-none-eabi/4.9.2/../../../../arm-none-eabi/lib/libc.a(lib_a-fwalk.o)
 .text._fwalk   0x000000000801e1b4       0x84 /opt/devkitpro/devkitARM/bin/../lib/gcc/arm-none-eabi/4.9.2/../../../../arm-none-eabi/lib/libc.a(lib_a-fwalk.o)
                0x000000000801e1b4                _fwalk
 .text._fwalk_reent
                0x000000000801e238       0x8c /opt/devkitpro/devkitARM/bin/../lib/gcc/arm-none-eabi/4.9.2/../../../../arm-none-eabi/lib/libc.a(lib_a-fwalk.o)
                0x000000000801e238                _fwalk_reent
 .text          0x000000000801e2c4        0x0 /opt/devkitpro/devkitARM/bin/../lib/gcc/arm-none-eabi/4.9.2/../../../../arm-none-eabi/lib/libc.a(lib_a-locale.o)
 .text.__get_locale_env
                0x000000000801e2c4       0x94 /opt/devkitpro/devkitARM/bin/../lib/gcc/arm-none-eabi/4.9.2/../../../../arm-none-eabi/lib/libc.a(lib_a-locale.o)
 .text.loadlocale
                0x000000000801e358      0x8ac /opt/devkitpro/devkitARM/bin/../lib/gcc/arm-none-eabi/4.9.2/../../../../arm-none-eabi/lib/libc.a(lib_a-locale.o)
 .text.currentlocale
                0x000000000801ec04       0x90 /opt/devkitpro/devkitARM/bin/../lib/gcc/arm-none-eabi/4.9.2/../../../../arm-none-eabi/lib/libc.a(lib_a-locale.o)
 .text._setlocale_r
                0x000000000801ec94      0x308 /opt/devkitpro/devkitARM/bin/../lib/gcc/arm-none-eabi/4.9.2/../../../../arm-none-eabi/lib/libc.a(lib_a-locale.o)
                0x000000000801ec94                _setlocale_r
 .text.__locale_charset
                0x000000000801ef9c        0xc /opt/devkitpro/devkitARM/bin/../lib/gcc/arm-none-eabi/4.9.2/../../../../arm-none-eabi/lib/libc.a(lib_a-locale.o)
                0x000000000801ef9c                __locale_charset
 .text.__locale_mb_cur_max
                0x000000000801efa8       0x10 /opt/devkitpro/devkitARM/bin/../lib/gcc/arm-none-eabi/4.9.2/../../../../arm-none-eabi/lib/libc.a(lib_a-locale.o)
                0x000000000801efa8                __locale_mb_cur_max
 .text.__locale_msgcharset
                0x000000000801efb8        0xc /opt/devkitpro/devkitARM/bin/../lib/gcc/arm-none-eabi/4.9.2/../../../../arm-none-eabi/lib/libc.a(lib_a-locale.o)
                0x000000000801efb8                __locale_msgcharset
 .text.__locale_cjk_lang
                0x000000000801efc4       0x10 /opt/devkitpro/devkitARM/bin/../lib/gcc/arm-none-eabi/4.9.2/../../../../arm-none-eabi/lib/libc.a(lib_a-locale.o)
                0x000000000801efc4                __locale_cjk_lang
 .text._localeconv_r
                0x000000000801efd4        0xc /opt/devkitpro/devkitARM/bin/../lib/gcc/arm-none-eabi/4.9.2/../../../../arm-none-eabi/lib/libc.a(lib_a-locale.o)
                0x000000000801efd4                _localeconv_r
 .text.setlocale
                0x000000000801efe0       0x20 /opt/devkitpro/devkitARM/bin/../lib/gcc/arm-none-eabi/4.9.2/../../../../arm-none-eabi/lib/libc.a(lib_a-locale.o)
                0x000000000801efe0                setlocale
 .text.localeconv
                0x000000000801f000       0x18 /opt/devkitpro/devkitARM/bin/../lib/gcc/arm-none-eabi/4.9.2/../../../../arm-none-eabi/lib/libc.a(lib_a-locale.o)
                0x000000000801f000                localeconv
 .text          0x000000000801f018        0x0 /opt/devkitpro/devkitARM/bin/../lib/gcc/arm-none-eabi/4.9.2/../../../../arm-none-eabi/lib/libc.a(lib_a-makebuf.o)
 .text.__smakebuf_r
                0x000000000801f018      0x168 /opt/devkitpro/devkitARM/bin/../lib/gcc/arm-none-eabi/4.9.2/../../../../arm-none-eabi/lib/libc.a(lib_a-makebuf.o)
                0x000000000801f018                __smakebuf_r
 .text          0x000000000801f180        0x0 /opt/devkitpro/devkitARM/bin/../lib/gcc/arm-none-eabi/4.9.2/../../../../arm-none-eabi/lib/libc.a(lib_a-mbtowc_r.o)
 .text.__utf8_mbtowc
                0x000000000801f180      0x304 /opt/devkitpro/devkitARM/bin/../lib/gcc/arm-none-eabi/4.9.2/../../../../arm-none-eabi/lib/libc.a(lib_a-mbtowc_r.o)
                0x000000000801f180                __utf8_mbtowc
 .text._mbtowc_r
                0x000000000801f484       0x54 /opt/devkitpro/devkitARM/bin/../lib/gcc/arm-none-eabi/4.9.2/../../../../arm-none-eabi/lib/libc.a(lib_a-mbtowc_r.o)
                0x000000000801f484                _mbtowc_r
 .text.__ascii_mbtowc
                0x000000000801f4d8       0x4c /opt/devkitpro/devkitARM/bin/../lib/gcc/arm-none-eabi/4.9.2/../../../../arm-none-eabi/lib/libc.a(lib_a-mbtowc_r.o)
                0x000000000801f4d8                __ascii_mbtowc
 .text.__sjis_mbtowc
                0x000000000801f524       0xdc /opt/devkitpro/devkitARM/bin/../lib/gcc/arm-none-eabi/4.9.2/../../../../arm-none-eabi/lib/libc.a(lib_a-mbtowc_r.o)
                0x000000000801f524                __sjis_mbtowc
 .text.__eucjp_mbtowc
                0x000000000801f600      0x150 /opt/devkitpro/devkitARM/bin/../lib/gcc/arm-none-eabi/4.9.2/../../../../arm-none-eabi/lib/libc.a(lib_a-mbtowc_r.o)
                0x000000000801f600                __eucjp_mbtowc
 .text.__jis_mbtowc
                0x000000000801f750      0x1bc /opt/devkitpro/devkitARM/bin/../lib/gcc/arm-none-eabi/4.9.2/../../../../arm-none-eabi/lib/libc.a(lib_a-mbtowc_r.o)
                0x000000000801f750                __jis_mbtowc
 .text          0x000000000801f90c        0x0 /opt/devkitpro/devkitARM/bin/../lib/gcc/arm-none-eabi/4.9.2/../../../../arm-none-eabi/lib/libc.a(lib_a-mprec.o)
 .text._Balloc  0x000000000801f90c       0x90 /opt/devkitpro/devkitARM/bin/../lib/gcc/arm-none-eabi/4.9.2/../../../../arm-none-eabi/lib/libc.a(lib_a-mprec.o)
                0x000000000801f90c                _Balloc
 .text._Bfree   0x000000000801f99c       0x1c /opt/devkitpro/devkitARM/bin/../lib/gcc/arm-none-eabi/4.9.2/../../../../arm-none-eabi/lib/libc.a(lib_a-mprec.o)
                0x000000000801f99c                _Bfree
 .text.__multadd
                0x000000000801f9b8       0xdc /opt/devkitpro/devkitARM/bin/../lib/gcc/arm-none-eabi/4.9.2/../../../../arm-none-eabi/lib/libc.a(lib_a-mprec.o)
                0x000000000801f9b8                __multadd
 .text.__s2b    0x000000000801fa94       0xe8 /opt/devkitpro/devkitARM/bin/../lib/gcc/arm-none-eabi/4.9.2/../../../../arm-none-eabi/lib/libc.a(lib_a-mprec.o)
                0x000000000801fa94                __s2b
 .text.__hi0bits
                0x000000000801fb7c       0x5c /opt/devkitpro/devkitARM/bin/../lib/gcc/arm-none-eabi/4.9.2/../../../../arm-none-eabi/lib/libc.a(lib_a-mprec.o)
                0x000000000801fb7c                __hi0bits
 .text.__lo0bits
                0x000000000801fbd8       0x94 /opt/devkitpro/devkitARM/bin/../lib/gcc/arm-none-eabi/4.9.2/../../../../arm-none-eabi/lib/libc.a(lib_a-mprec.o)
                0x000000000801fbd8                __lo0bits
 .text.__i2b    0x000000000801fc6c       0x24 /opt/devkitpro/devkitARM/bin/../lib/gcc/arm-none-eabi/4.9.2/../../../../arm-none-eabi/lib/libc.a(lib_a-mprec.o)
                0x000000000801fc6c                __i2b
 .text.__multiply
                0x000000000801fc90      0x1f0 /opt/devkitpro/devkitARM/bin/../lib/gcc/arm-none-eabi/4.9.2/../../../../arm-none-eabi/lib/libc.a(lib_a-mprec.o)
                0x000000000801fc90                __multiply
 .text.__pow5mult
                0x000000000801fe80      0x104 /opt/devkitpro/devkitARM/bin/../lib/gcc/arm-none-eabi/4.9.2/../../../../arm-none-eabi/lib/libc.a(lib_a-mprec.o)
                0x000000000801fe80                __pow5mult
 .text.__lshift
                0x000000000801ff84       0xf8 /opt/devkitpro/devkitARM/bin/../lib/gcc/arm-none-eabi/4.9.2/../../../../arm-none-eabi/lib/libc.a(lib_a-mprec.o)
                0x000000000801ff84                __lshift
 .text.__mcmp   0x000000000802007c       0x64 /opt/devkitpro/devkitARM/bin/../lib/gcc/arm-none-eabi/4.9.2/../../../../arm-none-eabi/lib/libc.a(lib_a-mprec.o)
                0x000000000802007c                __mcmp
 .text.__mdiff  0x00000000080200e0      0x154 /opt/devkitpro/devkitARM/bin/../lib/gcc/arm-none-eabi/4.9.2/../../../../arm-none-eabi/lib/libc.a(lib_a-mprec.o)
                0x00000000080200e0                __mdiff
 .text.__ulp    0x0000000008020234       0x64 /opt/devkitpro/devkitARM/bin/../lib/gcc/arm-none-eabi/4.9.2/../../../../arm-none-eabi/lib/libc.a(lib_a-mprec.o)
                0x0000000008020234                __ulp
 .text.__b2d    0x0000000008020298       0xfc /opt/devkitpro/devkitARM/bin/../lib/gcc/arm-none-eabi/4.9.2/../../../../arm-none-eabi/lib/libc.a(lib_a-mprec.o)
                0x0000000008020298                __b2d
 .text.__d2b    0x0000000008020394      0x10c /opt/devkitpro/devkitARM/bin/../lib/gcc/arm-none-eabi/4.9.2/../../../../arm-none-eabi/lib/libc.a(lib_a-mprec.o)
                0x0000000008020394                __d2b
 .text.__ratio  0x00000000080204a0       0x98 /opt/devkitpro/devkitARM/bin/../lib/gcc/arm-none-eabi/4.9.2/../../../../arm-none-eabi/lib/libc.a(lib_a-mprec.o)
                0x00000000080204a0                __ratio
 .text._mprec_log10
                0x0000000008020538       0x54 /opt/devkitpro/devkitARM/bin/../lib/gcc/arm-none-eabi/4.9.2/../../../../arm-none-eabi/lib/libc.a(lib_a-mprec.o)
                0x0000000008020538                _mprec_log10
 .text.__copybits
                0x000000000802058c       0x70 /opt/devkitpro/devkitARM/bin/../lib/gcc/arm-none-eabi/4.9.2/../../../../arm-none-eabi/lib/libc.a(lib_a-mprec.o)
                0x000000000802058c                __copybits
 .text.__any_on
                0x00000000080205fc       0x80 /opt/devkitpro/devkitARM/bin/../lib/gcc/arm-none-eabi/4.9.2/../../../../arm-none-eabi/lib/libc.a(lib_a-mprec.o)
                0x00000000080205fc                __any_on
 .text          0x000000000802067c        0x0 /opt/devkitpro/devkitARM/bin/../lib/gcc/arm-none-eabi/4.9.2/../../../../arm-none-eabi/lib/libc.a(lib_a-s_fpclassify.o)
 .text.__fpclassifyd
                0x000000000802067c       0x6c /opt/devkitpro/devkitARM/bin/../lib/gcc/arm-none-eabi/4.9.2/../../../../arm-none-eabi/lib/libc.a(lib_a-s_fpclassify.o)
                0x000000000802067c                __fpclassifyd
 .text          0x00000000080206e8        0x0 /opt/devkitpro/devkitARM/bin/../lib/gcc/arm-none-eabi/4.9.2/../../../../arm-none-eabi/lib/libc.a(lib_a-s_frexp.o)
 .text.frexp    0x00000000080206e8       0xa8 /opt/devkitpro/devkitARM/bin/../lib/gcc/arm-none-eabi/4.9.2/../../../../arm-none-eabi/lib/libc.a(lib_a-s_frexp.o)
                0x00000000080206e8                frexp
 .text          0x0000000008020790        0x0 /opt/devkitpro/devkitARM/bin/../lib/gcc/arm-none-eabi/4.9.2/../../../../arm-none-eabi/lib/libc.a(lib_a-stdio.o)
 .text.__sread  0x0000000008020790       0x34 /opt/devkitpro/devkitARM/bin/../lib/gcc/arm-none-eabi/4.9.2/../../../../arm-none-eabi/lib/libc.a(lib_a-stdio.o)
                0x0000000008020790                __sread
 .text.__seofread
                0x00000000080207c4        0x8 /opt/devkitpro/devkitARM/bin/../lib/gcc/arm-none-eabi/4.9.2/../../../../arm-none-eabi/lib/libc.a(lib_a-stdio.o)
                0x00000000080207c4                __seofread
 .text.__swrite
                0x00000000080207cc       0x58 /opt/devkitpro/devkitARM/bin/../lib/gcc/arm-none-eabi/4.9.2/../../../../arm-none-eabi/lib/libc.a(lib_a-stdio.o)
                0x00000000080207cc                __swrite
 .text.__sseek  0x0000000008020824       0x30 /opt/devkitpro/devkitARM/bin/../lib/gcc/arm-none-eabi/4.9.2/../../../../arm-none-eabi/lib/libc.a(lib_a-stdio.o)
                0x0000000008020824                __sseek
 .text.__sclose
                0x0000000008020854       0x14 /opt/devkitpro/devkitARM/bin/../lib/gcc/arm-none-eabi/4.9.2/../../../../arm-none-eabi/lib/libc.a(lib_a-stdio.o)
                0x0000000008020854                __sclose
 .text          0x0000000008020868        0x0 /opt/devkitpro/devkitARM/bin/../lib/gcc/arm-none-eabi/4.9.2/../../../../arm-none-eabi/lib/libc.a(lib_a-strcasecmp.o)
 .text.strcasecmp
                0x0000000008020868       0x6c /opt/devkitpro/devkitARM/bin/../lib/gcc/arm-none-eabi/4.9.2/../../../../arm-none-eabi/lib/libc.a(lib_a-strcasecmp.o)
                0x0000000008020868                strcasecmp
 .text          0x00000000080208d4        0x0 /opt/devkitpro/devkitARM/bin/../lib/gcc/arm-none-eabi/4.9.2/../../../../arm-none-eabi/lib/libc.a(lib_a-strcat.o)
 .text.strcat   0x00000000080208d4       0x84 /opt/devkitpro/devkitARM/bin/../lib/gcc/arm-none-eabi/4.9.2/../../../../arm-none-eabi/lib/libc.a(lib_a-strcat.o)
                0x00000000080208d4                strcat
 .text          0x0000000008020958        0x0 /opt/devkitpro/devkitARM/bin/../lib/gcc/arm-none-eabi/4.9.2/../../../../arm-none-eabi/lib/libc.a(lib_a-strchr.o)
 .text.strchr   0x0000000008020958      0x160 /opt/devkitpro/devkitARM/bin/../lib/gcc/arm-none-eabi/4.9.2/../../../../arm-none-eabi/lib/libc.a(lib_a-strchr.o)
                0x0000000008020958                strchr
 .text          0x0000000008020ab8        0x0 /opt/devkitpro/devkitARM/bin/../lib/gcc/arm-none-eabi/4.9.2/../../../../arm-none-eabi/lib/libc.a(lib_a-strcpy.o)
 .text.strcpy   0x0000000008020ab8       0xf0 /opt/devkitpro/devkitARM/bin/../lib/gcc/arm-none-eabi/4.9.2/../../../../arm-none-eabi/lib/libc.a(lib_a-strcpy.o)
                0x0000000008020ab8                strcpy
 .text          0x0000000008020ba8        0x0 /opt/devkitpro/devkitARM/bin/../lib/gcc/arm-none-eabi/4.9.2/../../../../arm-none-eabi/lib/libc.a(lib_a-strlcpy.o)
 .text.strlcpy  0x0000000008020ba8       0x48 /opt/devkitpro/devkitARM/bin/../lib/gcc/arm-none-eabi/4.9.2/../../../../arm-none-eabi/lib/libc.a(lib_a-strlcpy.o)
                0x0000000008020ba8                strlcpy
 .text          0x0000000008020bf0        0x0 /opt/devkitpro/devkitARM/bin/../lib/gcc/arm-none-eabi/4.9.2/../../../../arm-none-eabi/lib/libc.a(lib_a-strncasecmp.o)
 .text.strncasecmp
                0x0000000008020bf0       0x94 /opt/devkitpro/devkitARM/bin/../lib/gcc/arm-none-eabi/4.9.2/../../../../arm-none-eabi/lib/libc.a(lib_a-strncasecmp.o)
                0x0000000008020bf0                strncasecmp
 .text          0x0000000008020c84        0x0 /opt/devkitpro/devkitARM/bin/../lib/gcc/arm-none-eabi/4.9.2/../../../../arm-none-eabi/lib/libc.a(lib_a-strncpy.o)
 .text.strncpy  0x0000000008020c84       0xe4 /opt/devkitpro/devkitARM/bin/../lib/gcc/arm-none-eabi/4.9.2/../../../../arm-none-eabi/lib/libc.a(lib_a-strncpy.o)
                0x0000000008020c84                strncpy
 .text          0x0000000008020d68        0x0 /opt/devkitpro/devkitARM/bin/../lib/gcc/arm-none-eabi/4.9.2/../../../../arm-none-eabi/lib/libc.a(lib_a-strtol.o)
 .text._strtol_r
                0x0000000008020d68      0x1dc /opt/devkitpro/devkitARM/bin/../lib/gcc/arm-none-eabi/4.9.2/../../../../arm-none-eabi/lib/libc.a(lib_a-strtol.o)
                0x0000000008020d68                _strtol_r
 .text.strtol   0x0000000008020f44       0x28 /opt/devkitpro/devkitARM/bin/../lib/gcc/arm-none-eabi/4.9.2/../../../../arm-none-eabi/lib/libc.a(lib_a-strtol.o)
                0x0000000008020f44                strtol
 .text          0x0000000008020f6c        0x0 /opt/devkitpro/devkitARM/bin/../lib/gcc/arm-none-eabi/4.9.2/../../../../arm-none-eabi/lib/libc.a(lib_a-svfiprintf.o)
 .text.get_arg  0x0000000008020f6c      0x860 /opt/devkitpro/devkitARM/bin/../lib/gcc/arm-none-eabi/4.9.2/../../../../arm-none-eabi/lib/libc.a(lib_a-svfiprintf.o)
 .text.__ssprint_r
                0x00000000080217cc      0x1b0 /opt/devkitpro/devkitARM/bin/../lib/gcc/arm-none-eabi/4.9.2/../../../../arm-none-eabi/lib/libc.a(lib_a-svfiprintf.o)
                0x00000000080217cc                __ssprint_r
 .text._svfiprintf_r
                0x000000000802197c     0x2e94 /opt/devkitpro/devkitARM/bin/../lib/gcc/arm-none-eabi/4.9.2/../../../../arm-none-eabi/lib/libc.a(lib_a-svfiprintf.o)
                0x000000000802197c                _svfiprintf_r
 .text          0x0000000008024810        0x0 /opt/devkitpro/devkitARM/bin/../lib/gcc/arm-none-eabi/4.9.2/../../../../arm-none-eabi/lib/libc.a(lib_a-wcsnrtombs.o)
 .text._wcsnrtombs_r
                0x0000000008024810      0x194 /opt/devkitpro/devkitARM/bin/../lib/gcc/arm-none-eabi/4.9.2/../../../../arm-none-eabi/lib/libc.a(lib_a-wcsnrtombs.o)
                0x0000000008024810                _wcsnrtombs_r
 .text.wcsnrtombs
                0x00000000080249a4       0x44 /opt/devkitpro/devkitARM/bin/../lib/gcc/arm-none-eabi/4.9.2/../../../../arm-none-eabi/lib/libc.a(lib_a-wcsnrtombs.o)
                0x00000000080249a4                wcsnrtombs
 .text          0x00000000080249e8        0x0 /opt/devkitpro/devkitARM/bin/../lib/gcc/arm-none-eabi/4.9.2/../../../../arm-none-eabi/lib/libc.a(lib_a-callocr.o)
 .text._calloc_r
                0x00000000080249e8       0x9c /opt/devkitpro/devkitARM/bin/../lib/gcc/arm-none-eabi/4.9.2/../../../../arm-none-eabi/lib/libc.a(lib_a-callocr.o)
                0x00000000080249e8                _calloc_r
 .text          0x0000000008024a84        0x0 /opt/devkitpro/devkitARM/bin/../lib/gcc/arm-none-eabi/4.9.2/../../../../arm-none-eabi/lib/libc.a(lib_a-ctype_.o)
 .text.__set_ctype
                0x0000000008024a84       0x18 /opt/devkitpro/devkitARM/bin/../lib/gcc/arm-none-eabi/4.9.2/../../../../arm-none-eabi/lib/libc.a(lib_a-ctype_.o)
                0x0000000008024a84                __set_ctype
 .text          0x0000000008024a9c        0x0 /opt/devkitpro/devkitARM/bin/../lib/gcc/arm-none-eabi/4.9.2/../../../../arm-none-eabi/lib/libc.a(lib_a-fclose.o)
 .text._fclose_r
                0x0000000008024a9c      0x11c /opt/devkitpro/devkitARM/bin/../lib/gcc/arm-none-eabi/4.9.2/../../../../arm-none-eabi/lib/libc.a(lib_a-fclose.o)
                0x0000000008024a9c                _fclose_r
 .text.fclose   0x0000000008024bb8       0x18 /opt/devkitpro/devkitARM/bin/../lib/gcc/arm-none-eabi/4.9.2/../../../../arm-none-eabi/lib/libc.a(lib_a-fclose.o)
                0x0000000008024bb8                fclose
 .text          0x0000000008024bd0        0x0 /opt/devkitpro/devkitARM/bin/../lib/gcc/arm-none-eabi/4.9.2/../../../../arm-none-eabi/lib/libc.a(lib_a-getenv_r.o)
 .text._findenv_r
                0x0000000008024bd0       0xd0 /opt/devkitpro/devkitARM/bin/../lib/gcc/arm-none-eabi/4.9.2/../../../../arm-none-eabi/lib/libc.a(lib_a-getenv_r.o)
                0x0000000008024bd0                _findenv_r
 .text._getenv_r
                0x0000000008024ca0       0x1c /opt/devkitpro/devkitARM/bin/../lib/gcc/arm-none-eabi/4.9.2/../../../../arm-none-eabi/lib/libc.a(lib_a-getenv_r.o)
                0x0000000008024ca0                _getenv_r
 .text          0x0000000008024cbc        0x0 /opt/devkitpro/devkitARM/bin/../lib/gcc/arm-none-eabi/4.9.2/../../../../arm-none-eabi/lib/libc.a(lib_a-environ.o)
 .text          0x0000000008024cbc        0x0 /opt/devkitpro/devkitARM/bin/../lib/gcc/arm-none-eabi/4.9.2/../../../../arm-none-eabi/lib/libc.a(lib_a-envlock.o)
 .text.__env_lock
                0x0000000008024cbc        0x4 /opt/devkitpro/devkitARM/bin/../lib/gcc/arm-none-eabi/4.9.2/../../../../arm-none-eabi/lib/libc.a(lib_a-envlock.o)
                0x0000000008024cbc                __env_lock
 .text.__env_unlock
                0x0000000008024cc0        0x4 /opt/devkitpro/devkitARM/bin/../lib/gcc/arm-none-eabi/4.9.2/../../../../arm-none-eabi/lib/libc.a(lib_a-envlock.o)
                0x0000000008024cc0                __env_unlock
 .text          0x0000000008024cc4       0x88 /opt/devkitpro/devkitARM/bin/../lib/gcc/arm-none-eabi/4.9.2/../../../../arm-none-eabi/lib/libsysbase.a(close.o)
                0x0000000008024cc4                _close_r
 .text          0x0000000008024d4c       0x70 /opt/devkitpro/devkitARM/bin/../lib/gcc/arm-none-eabi/4.9.2/../../../../arm-none-eabi/lib/libsysbase.a(fstat.o)
                0x0000000008024d4c                _fstat_r
 .text          0x0000000008024dbc       0x10 /opt/devkitpro/devkitARM/bin/../lib/gcc/arm-none-eabi/4.9.2/../../../../arm-none-eabi/lib/libsysbase.a(getpid.o)
                0x0000000008024dbc                _getpid_r
 .text          0x0000000008024dcc        0x8 /opt/devkitpro/devkitARM/bin/../lib/gcc/arm-none-eabi/4.9.2/../../../../arm-none-eabi/lib/libsysbase.a(isatty.o)
                0x0000000008024dcc                _isatty_r
 .text          0x0000000008024dd4       0x10 /opt/devkitpro/devkitARM/bin/../lib/gcc/arm-none-eabi/4.9.2/../../../../arm-none-eabi/lib/libsysbase.a(kill.o)
                0x0000000008024dd4                _kill_r
 .text          0x0000000008024de4       0x78 /opt/devkitpro/devkitARM/bin/../lib/gcc/arm-none-eabi/4.9.2/../../../../arm-none-eabi/lib/libsysbase.a(lseek.o)
                0x0000000008024de4                _lseek_r
 .text          0x0000000008024e5c       0x78 /opt/devkitpro/devkitARM/bin/../lib/gcc/arm-none-eabi/4.9.2/../../../../arm-none-eabi/lib/libsysbase.a(read.o)
                0x0000000008024e5c                _read_r
 .text          0x0000000008024ed4       0x70 /opt/devkitpro/devkitARM/bin/../lib/gcc/arm-none-eabi/4.9.2/../../../../arm-none-eabi/lib/libsysbase.a(sbrk.o)
                0x0000000008024ed4                _sbrk_r
 .text          0x0000000008024f44       0x78 /opt/devkitpro/devkitARM/bin/../lib/gcc/arm-none-eabi/4.9.2/../../../../arm-none-eabi/lib/libsysbase.a(write.o)
                0x0000000008024f44                _write_r
 .text          0x0000000008024fbc       0x20 /opt/devkitpro/devkitARM/bin/../lib/gcc/arm-none-eabi/4.9.2/../../../../arm-none-eabi/lib/libsysbase.a(_exit.o)
                0x0000000008024fbc                _exit
 .text          0x0000000008024fdc        0x0 /opt/devkitpro/devkitARM/bin/../lib/gcc/arm-none-eabi/4.9.2/../../../../arm-none-eabi/lib/libsysbase.a(malloc_vars.o)
 .text          0x0000000008024fdc        0x8 /opt/devkitpro/devkitARM/bin/../lib/gcc/arm-none-eabi/4.9.2/../../../../arm-none-eabi/lib/libsysbase.a(flock.o)
                0x0000000008024fdc                __flockfile
                0x0000000008024fe0                __funlockfile
 .text          0x0000000008024fe4      0x100 /opt/devkitpro/devkitARM/bin/../lib/gcc/arm-none-eabi/4.9.2/../../../../arm-none-eabi/lib/libsysbase.a(syscall_support.o)
                0x0000000008024fe4                __libc_lock_init
                0x0000000008024ffc                __libc_lock_acquire
                0x0000000008025014                __libc_lock_try_acquire
                0x0000000008025034                __libc_lock_release
                0x000000000802504c                __libc_lock_close
                0x0000000008025064                __libc_lock_init_recursive
                0x000000000802507c                __libc_lock_acquire_recursive
                0x0000000008025094                __libc_lock_try_acquire_recursive
                0x00000000080250b4                __libc_lock_release_recursive
                0x00000000080250cc                __libc_lock_close_recursive
 .text          0x00000000080250e4      0x27c /opt/devkitpro/devkitARM/bin/../lib/gcc/arm-none-eabi/4.9.2/../../../../arm-none-eabi/lib/libsysbase.a(handle_manager.o)
                0x00000000080250e4                __free_handle
                0x0000000008025130                __release_handle
                0x0000000008025160                __alloc_handle
                0x00000000080251d0                __get_handle
                0x00000000080251ec                dup
                0x0000000008025280                dup2
 .text          0x0000000008025360       0x24 /opt/devkitpro/devkitARM/bin/../lib/gcc/arm-none-eabi/4.9.2/../../../../arm-none-eabi/lib/libsysbase.a(getreent.o)
                0x0000000008025360                __getreent
 .text          0x0000000008025384      0x1c4 /opt/devkitpro/devkitARM/bin/../lib/gcc/arm-none-eabi/4.9.2/../../../../arm-none-eabi/lib/libsysbase.a(iosupport.o)
                0x0000000008025384                setDefaultDevice
                0x000000000802539c                FindDevice
                0x0000000008025454                RemoveDevice
                0x0000000008025484                AddDevice
                0x0000000008025520                GetDeviceOpTab
 .text          0x0000000008025548      0x114 /opt/devkitpro/devkitARM/bin/../lib/gcc/arm-none-eabi/4.9.2/libgcc.a(_udivsi3.o)
                0x0000000008025548                __udivsi3
                0x0000000008025548                __aeabi_uidiv
                0x000000000802563c                __aeabi_uidivmod
 .text          0x000000000802565c      0x148 /opt/devkitpro/devkitARM/bin/../lib/gcc/arm-none-eabi/4.9.2/libgcc.a(_divsi3.o)
                0x000000000802565c                __aeabi_idiv
                0x000000000802565c                __divsi3
                0x0000000008025784                __aeabi_idivmod
 .text          0x00000000080257a4        0x4 /opt/devkitpro/devkitARM/bin/../lib/gcc/arm-none-eabi/4.9.2/libgcc.a(_dvmd_tls.o)
                0x00000000080257a4                __aeabi_ldiv0
                0x00000000080257a4                __aeabi_idiv0
 .text          0x00000000080257a8      0x41c /opt/devkitpro/devkitARM/bin/../lib/gcc/arm-none-eabi/4.9.2/libgcc.a(_arm_addsubdf3.o)
                0x00000000080257a8                __aeabi_drsub
                0x00000000080257b0                __aeabi_dsub
                0x00000000080257b0                __subdf3
                0x00000000080257b4                __adddf3
                0x00000000080257b4                __aeabi_dadd
                0x0000000008025ac4                __aeabi_ui2d
                0x0000000008025ac4                __floatunsidf
                0x0000000008025ae8                __floatsidf
                0x0000000008025ae8                __aeabi_i2d
                0x0000000008025b10                __extendsfdf2
                0x0000000008025b10                __aeabi_f2d
                0x0000000008025b50                __aeabi_ul2d
                0x0000000008025b50                __floatundidf
                0x0000000008025b64                __floatdidf
                0x0000000008025b64                __aeabi_l2d
 .text          0x0000000008025bc4      0x49c /opt/devkitpro/devkitARM/bin/../lib/gcc/arm-none-eabi/4.9.2/libgcc.a(_arm_muldivdf3.o)
                0x0000000008025bc4                __aeabi_dmul
                0x0000000008025bc4                __muldf3
                0x0000000008025e54                __aeabi_ddiv
                0x0000000008025e54                __divdf3
 .text          0x0000000008026060      0x144 /opt/devkitpro/devkitARM/bin/../lib/gcc/arm-none-eabi/4.9.2/libgcc.a(_arm_cmpdf2.o)
                0x0000000008026060                __gtdf2
                0x0000000008026060                __gedf2
                0x0000000008026068                __ltdf2
                0x0000000008026068                __ledf2
                0x0000000008026070                __cmpdf2
                0x0000000008026070                __eqdf2
                0x0000000008026070                __nedf2
                0x00000000080260f8                __aeabi_cdrcmple
                0x0000000008026114                __aeabi_cdcmple
                0x0000000008026114                __aeabi_cdcmpeq
                0x000000000802612c                __aeabi_dcmpeq
                0x0000000008026144                __aeabi_dcmplt
                0x000000000802615c                __aeabi_dcmple
                0x0000000008026174                __aeabi_dcmpge
                0x000000000802618c                __aeabi_dcmpgt
 .text          0x00000000080261a4       0x5c /opt/devkitpro/devkitARM/bin/../lib/gcc/arm-none-eabi/4.9.2/libgcc.a(_arm_fixdfsi.o)
                0x00000000080261a4                __fixdfsi
                0x00000000080261a4                __aeabi_d2iz
 .text          0x0000000008026200       0x3c /opt/devkitpro/devkitARM/bin/../lib/gcc/arm-none-eabi/4.9.2/libgcc.a(_aeabi_uldivmod.o)
                0x0000000008026200                __aeabi_uldivmod
 .text          0x000000000802623c       0x84 /opt/devkitpro/devkitARM/bin/../lib/gcc/arm-none-eabi/4.9.2/libgcc.a(bpabi.o)
                0x000000000802623c                __gnu_ldivmod_helper
                0x0000000008026280                __gnu_uldivmod_helper
 .text          0x00000000080262c0      0x178 /opt/devkitpro/devkitARM/bin/../lib/gcc/arm-none-eabi/4.9.2/libgcc.a(_divdi3.o)
                0x00000000080262c0                __divdi3
 .text          0x0000000008026438      0x120 /opt/devkitpro/devkitARM/bin/../lib/gcc/arm-none-eabi/4.9.2/libgcc.a(_udivdi3.o)
                0x0000000008026438                __udivdi3
 .text          0x0000000008026558       0x28 /opt/devkitpro/devkitARM/bin/../lib/gcc/arm-none-eabi/4.9.2/libgcc.a(_clzdi2.o)
                0x0000000008026558                __clzdi2
 .text          0x0000000008026580       0x48 /opt/devkitpro/devkitARM/bin/../lib/gcc/arm-none-eabi/4.9.2/libgcc.a(_clzsi2.o)
                0x0000000008026580                __clzsi2
 .text          0x00000000080265c8        0x0 /opt/devkitpro/devkitARM/bin/../lib/gcc/arm-none-eabi/4.9.2/../../../../arm-none-eabi/lib/libc.a(lib_a-errno.o)
 .text.__errno  0x00000000080265c8       0x10 /opt/devkitpro/devkitARM/bin/../lib/gcc/arm-none-eabi/4.9.2/../../../../arm-none-eabi/lib/libc.a(lib_a-errno.o)
                0x00000000080265c8                __errno
 .text          0x00000000080265d8        0x0 /opt/devkitpro/devkitARM/bin/../lib/gcc/arm-none-eabi/4.9.2/crtend.o
 .text          0x00000000080265d8        0x0 /opt/devkitpro/devkitARM/bin/../lib/gcc/arm-none-eabi/4.9.2/crtn.o
 *(.plt)
 *(.gnu_warning)
 *(.glue_7t)
 .glue_7t       0x00000000080265d8        0x0 linker stubs
 *(.glue_7)
 .glue_7        0x00000000080265d8        0x0 linker stubs
                0x00000000080265d8                . = ALIGN (0x4)
 *crtbegin.o(.ctors)
 *(EXCLUDE_FILE(*crtend.o) .ctors)
 *(SORT(.ctors.*))
 *crtend.o(.ctors)
 *ctrbegin.o(.dtors)
 *(EXCLUDE_FILE(*crtend.o) .dtors)
 *(SORT(.dtors.*))
 *ctrend.o(.dtors)
 *(.rodata .rodata.* .gnu.linkonce.r.*)
 .rodata        0x00000000080265d8       0x38 objs/air_block_stuff_class.thumb.o
                0x00000000080265d8                typeinfo name for air_block_stuff
                0x00000000080265ec                typeinfo for air_block_stuff
                0x00000000080265f8                vtable for air_block_stuff
 .rodata        0x0000000008026610    0x403f8 objs/asm_init.o
                0x0000000008026610                div_table
                0x0000000008066608                sin_table
 .rodata        0x0000000008066a08       0x38 objs/block_base_stuff_class.thumb.o
                0x0000000008066a08                typeinfo name for block_base_stuff
                0x0000000008066a1c                typeinfo for block_base_stuff
                0x0000000008066a28                vtable for block_base_stuff
 .rodata._ZTI24grass_single_block_stuff
                0x0000000008066a40        0xc objs/block_stuff.thumb.o
                0x0000000008066a40                typeinfo for grass_single_block_stuff
 .rodata._ZTS24grass_single_block_stuff
                0x0000000008066a4c       0x1c objs/block_stuff.thumb.o
                0x0000000008066a4c                typeinfo name for grass_single_block_stuff
 .rodata._ZTI26grass_top_left_block_stuff
                0x0000000008066a68        0xc objs/block_stuff.thumb.o
                0x0000000008066a68                typeinfo for grass_top_left_block_stuff
 .rodata._ZTS26grass_top_left_block_stuff
                0x0000000008066a74       0x20 objs/block_stuff.thumb.o
                0x0000000008066a74                typeinfo name for grass_top_left_block_stuff
 .rodata._ZTI28grass_top_middle_block_stuff
                0x0000000008066a94        0xc objs/block_stuff.thumb.o
                0x0000000008066a94                typeinfo for grass_top_middle_block_stuff
 .rodata._ZTS28grass_top_middle_block_stuff
                0x0000000008066aa0       0x20 objs/block_stuff.thumb.o
                0x0000000008066aa0                typeinfo name for grass_top_middle_block_stuff
 .rodata._ZTI27grass_top_right_block_stuff
                0x0000000008066ac0        0xc objs/block_stuff.thumb.o
                0x0000000008066ac0                typeinfo for grass_top_right_block_stuff
 .rodata._ZTS27grass_top_right_block_stuff
                0x0000000008066acc       0x20 objs/block_stuff.thumb.o
                0x0000000008066acc                typeinfo name for grass_top_right_block_stuff
 .rodata._ZTI28dirt_middle_left_block_stuff
                0x0000000008066aec        0xc objs/block_stuff.thumb.o
                0x0000000008066aec                typeinfo for dirt_middle_left_block_stuff
 .rodata._ZTS28dirt_middle_left_block_stuff
                0x0000000008066af8       0x20 objs/block_stuff.thumb.o
                0x0000000008066af8                typeinfo name for dirt_middle_left_block_stuff
 .rodata._ZTI30dirt_middle_middle_block_stuff
                0x0000000008066b18        0xc objs/block_stuff.thumb.o
                0x0000000008066b18                typeinfo for dirt_middle_middle_block_stuff
 .rodata._ZTS30dirt_middle_middle_block_stuff
                0x0000000008066b24       0x24 objs/block_stuff.thumb.o
                0x0000000008066b24                typeinfo name for dirt_middle_middle_block_stuff
 .rodata._ZTI29dirt_middle_right_block_stuff
                0x0000000008066b48        0xc objs/block_stuff.thumb.o
                0x0000000008066b48                typeinfo for dirt_middle_right_block_stuff
 .rodata._ZTS29dirt_middle_right_block_stuff
                0x0000000008066b54       0x20 objs/block_stuff.thumb.o
                0x0000000008066b54                typeinfo name for dirt_middle_right_block_stuff
 .rodata._ZTI28dirt_bottom_left_block_stuff
                0x0000000008066b74        0xc objs/block_stuff.thumb.o
                0x0000000008066b74                typeinfo for dirt_bottom_left_block_stuff
 .rodata._ZTS28dirt_bottom_left_block_stuff
                0x0000000008066b80       0x20 objs/block_stuff.thumb.o
                0x0000000008066b80                typeinfo name for dirt_bottom_left_block_stuff
 .rodata._ZTI30dirt_bottom_middle_block_stuff
                0x0000000008066ba0        0xc objs/block_stuff.thumb.o
                0x0000000008066ba0                typeinfo for dirt_bottom_middle_block_stuff
 .rodata._ZTS30dirt_bottom_middle_block_stuff
                0x0000000008066bac       0x24 objs/block_stuff.thumb.o
                0x0000000008066bac                typeinfo name for dirt_bottom_middle_block_stuff
 .rodata._ZTI29dirt_bottom_right_block_stuff
                0x0000000008066bd0        0xc objs/block_stuff.thumb.o
                0x0000000008066bd0                typeinfo for dirt_bottom_right_block_stuff
 .rodata._ZTS29dirt_bottom_right_block_stuff
                0x0000000008066bdc       0x20 objs/block_stuff.thumb.o
                0x0000000008066bdc                typeinfo name for dirt_bottom_right_block_stuff
 .rodata._ZTI31grass_slope_p16_p16_block_stuff
                0x0000000008066bfc        0xc objs/block_stuff.thumb.o
                0x0000000008066bfc                typeinfo for grass_slope_p16_p16_block_stuff
 .rodata._ZTS31grass_slope_p16_p16_block_stuff
                0x0000000008066c08       0x24 objs/block_stuff.thumb.o
                0x0000000008066c08                typeinfo name for grass_slope_p16_p16_block_stuff
 .rodata._ZTI31grass_slope_n16_p16_block_stuff
                0x0000000008066c2c        0xc objs/block_stuff.thumb.o
                0x0000000008066c2c                typeinfo for grass_slope_n16_p16_block_stuff
 .rodata._ZTS31grass_slope_n16_p16_block_stuff
                0x0000000008066c38       0x24 objs/block_stuff.thumb.o
                0x0000000008066c38                typeinfo name for grass_slope_n16_p16_block_stuff
 .rodata._ZTI37grass_slope_p32_p16_short_block_stuff
                0x0000000008066c5c        0xc objs/block_stuff.thumb.o
                0x0000000008066c5c                typeinfo for grass_slope_p32_p16_short_block_stuff
 .rodata._ZTS37grass_slope_p32_p16_short_block_stuff
                0x0000000008066c68       0x28 objs/block_stuff.thumb.o
                0x0000000008066c68                typeinfo name for grass_slope_p32_p16_short_block_stuff
 .rodata._ZTI36grass_slope_p32_p16_tall_block_stuff
                0x0000000008066c90        0xc objs/block_stuff.thumb.o
                0x0000000008066c90                typeinfo for grass_slope_p32_p16_tall_block_stuff
 .rodata._ZTS36grass_slope_p32_p16_tall_block_stuff
                0x0000000008066c9c       0x28 objs/block_stuff.thumb.o
                0x0000000008066c9c                typeinfo name for grass_slope_p32_p16_tall_block_stuff
 .rodata._ZTI36grass_slope_n32_p16_tall_block_stuff
                0x0000000008066cc4        0xc objs/block_stuff.thumb.o
                0x0000000008066cc4                typeinfo for grass_slope_n32_p16_tall_block_stuff
 .rodata._ZTS36grass_slope_n32_p16_tall_block_stuff
                0x0000000008066cd0       0x28 objs/block_stuff.thumb.o
                0x0000000008066cd0                typeinfo name for grass_slope_n32_p16_tall_block_stuff
 .rodata._ZTI37grass_slope_n32_p16_short_block_stuff
                0x0000000008066cf8        0xc objs/block_stuff.thumb.o
                0x0000000008066cf8                typeinfo for grass_slope_n32_p16_short_block_stuff
 .rodata._ZTS37grass_slope_n32_p16_short_block_stuff
                0x0000000008066d04       0x28 objs/block_stuff.thumb.o
                0x0000000008066d04                typeinfo name for grass_slope_n32_p16_short_block_stuff
 .rodata._ZTI31grass_in_slope_left_block_stuff
                0x0000000008066d2c        0xc objs/block_stuff.thumb.o
                0x0000000008066d2c                typeinfo for grass_in_slope_left_block_stuff
 .rodata._ZTS31grass_in_slope_left_block_stuff
                0x0000000008066d38       0x24 objs/block_stuff.thumb.o
                0x0000000008066d38                typeinfo name for grass_in_slope_left_block_stuff
 .rodata._ZTI32grass_in_slope_right_block_stuff
                0x0000000008066d5c        0xc objs/block_stuff.thumb.o
                0x0000000008066d5c                typeinfo for grass_in_slope_right_block_stuff
 .rodata._ZTS32grass_in_slope_right_block_stuff
                0x0000000008066d68       0x24 objs/block_stuff.thumb.o
                0x0000000008066d68                typeinfo name for grass_in_slope_right_block_stuff
 *fill*         0x0000000008066d8c        0x4 
 .rodata._ZTV24grass_single_block_stuff
                0x0000000008066d90       0x18 objs/block_stuff.thumb.o
                0x0000000008066d90                vtable for grass_single_block_stuff
 .rodata._ZTV26grass_top_left_block_stuff
                0x0000000008066da8       0x18 objs/block_stuff.thumb.o
                0x0000000008066da8                vtable for grass_top_left_block_stuff
 .rodata._ZTV28grass_top_middle_block_stuff
                0x0000000008066dc0       0x18 objs/block_stuff.thumb.o
                0x0000000008066dc0                vtable for grass_top_middle_block_stuff
 .rodata._ZTV27grass_top_right_block_stuff
                0x0000000008066dd8       0x18 objs/block_stuff.thumb.o
                0x0000000008066dd8                vtable for grass_top_right_block_stuff
 .rodata._ZTV28dirt_middle_left_block_stuff
                0x0000000008066df0       0x18 objs/block_stuff.thumb.o
                0x0000000008066df0                vtable for dirt_middle_left_block_stuff
 .rodata._ZTV30dirt_middle_middle_block_stuff
                0x0000000008066e08       0x18 objs/block_stuff.thumb.o
                0x0000000008066e08                vtable for dirt_middle_middle_block_stuff
 .rodata._ZTV29dirt_middle_right_block_stuff
                0x0000000008066e20       0x18 objs/block_stuff.thumb.o
                0x0000000008066e20                vtable for dirt_middle_right_block_stuff
 .rodata._ZTV28dirt_bottom_left_block_stuff
                0x0000000008066e38       0x18 objs/block_stuff.thumb.o
                0x0000000008066e38                vtable for dirt_bottom_left_block_stuff
 .rodata._ZTV30dirt_bottom_middle_block_stuff
                0x0000000008066e50       0x18 objs/block_stuff.thumb.o
                0x0000000008066e50                vtable for dirt_bottom_middle_block_stuff
 .rodata._ZTV29dirt_bottom_right_block_stuff
                0x0000000008066e68       0x18 objs/block_stuff.thumb.o
                0x0000000008066e68                vtable for dirt_bottom_right_block_stuff
 .rodata._ZTV31grass_slope_p16_p16_block_stuff
                0x0000000008066e80       0x18 objs/block_stuff.thumb.o
                0x0000000008066e80                vtable for grass_slope_p16_p16_block_stuff
 .rodata._ZTV31grass_slope_n16_p16_block_stuff
                0x0000000008066e98       0x18 objs/block_stuff.thumb.o
                0x0000000008066e98                vtable for grass_slope_n16_p16_block_stuff
 .rodata._ZTV37grass_slope_p32_p16_short_block_stuff
                0x0000000008066eb0       0x18 objs/block_stuff.thumb.o
                0x0000000008066eb0                vtable for grass_slope_p32_p16_short_block_stuff
 .rodata._ZTV36grass_slope_p32_p16_tall_block_stuff
                0x0000000008066ec8       0x18 objs/block_stuff.thumb.o
                0x0000000008066ec8                vtable for grass_slope_p32_p16_tall_block_stuff
 .rodata._ZTV36grass_slope_n32_p16_tall_block_stuff
                0x0000000008066ee0       0x18 objs/block_stuff.thumb.o
                0x0000000008066ee0                vtable for grass_slope_n32_p16_tall_block_stuff
 .rodata._ZTV37grass_slope_n32_p16_short_block_stuff
                0x0000000008066ef8       0x18 objs/block_stuff.thumb.o
                0x0000000008066ef8                vtable for grass_slope_n32_p16_short_block_stuff
 .rodata._ZTV31grass_in_slope_left_block_stuff
                0x0000000008066f10       0x18 objs/block_stuff.thumb.o
                0x0000000008066f10                vtable for grass_in_slope_left_block_stuff
 .rodata._ZTV32grass_in_slope_right_block_stuff
                0x0000000008066f28       0x18 objs/block_stuff.thumb.o
                0x0000000008066f28                vtable for grass_in_slope_right_block_stuff
 .rodata        0x0000000008066f40       0x10 objs/dma_stuff.thumb.o
 .rodata        0x0000000008066f50       0x38 objs/dud_block_stuff_class.thumb.o
                0x0000000008066f50                typeinfo name for dud_block_stuff
                0x0000000008066f64                typeinfo for dud_block_stuff
                0x0000000008066f70                vtable for dud_block_stuff
 .rodata        0x0000000008066f88       0x40 objs/exclam_block_stuff_classes.thumb.o
                0x0000000008066f88                typeinfo name for exclam_block_stuff
                0x0000000008066fa0                typeinfo for exclam_block_stuff
                0x0000000008066fb0                vtable for exclam_block_stuff
 .rodata        0x0000000008066fc8      0x1b0 objs/eyes_block_stuff_classes.thumb.o
                0x0000000008066fc8                typeinfo name for eyes_block_stuff
                0x0000000008066fdc                typeinfo for eyes_block_stuff
                0x0000000008066fe8                typeinfo name for eyes_block_with_st_waffle_stuff
                0x000000000806700c                typeinfo for eyes_block_with_st_waffle_stuff
                0x0000000008067018                typeinfo name for eyes_block_with_st_muffin_stuff
                0x000000000806703c                typeinfo for eyes_block_with_st_muffin_stuff
                0x0000000008067048                typeinfo name for eyes_block_with_st_fire_muffin_stuff
                0x0000000008067070                typeinfo for eyes_block_with_st_fire_muffin_stuff
                0x000000000806707c                typeinfo name for eyes_block_with_st_ice_muffin_stuff
                0x00000000080670a4                typeinfo for eyes_block_with_st_ice_muffin_stuff
                0x00000000080670b0                typeinfo name for eyes_block_with_st_chocolate_muffin_stuff
                0x00000000080670dc                typeinfo for eyes_block_with_st_chocolate_muffin_stuff
                0x00000000080670e8                vtable for eyes_block_stuff
                0x0000000008067100                vtable for eyes_block_with_st_waffle_stuff
                0x0000000008067118                vtable for eyes_block_with_st_muffin_stuff
                0x0000000008067130                vtable for eyes_block_with_st_fire_muffin_stuff
                0x0000000008067148                vtable for eyes_block_with_st_ice_muffin_stuff
                0x0000000008067160                vtable for eyes_block_with_st_chocolate_muffin_stuff
 .rodata        0x0000000008067178      0x180 objs/grass_and_dirt_block_stuff_classes.thumb.o
                0x0000000008067178                grass_slope_n32_p16_short_block_stuff::height_mask
                0x00000000080671b8                grass_slope_n32_p16_tall_block_stuff::height_mask
                0x00000000080671f8                grass_slope_p32_p16_tall_block_stuff::height_mask
                0x0000000008067238                grass_slope_p32_p16_short_block_stuff::height_mask
                0x0000000008067278                grass_slope_n16_p16_block_stuff::height_mask
                0x00000000080672b8                grass_slope_p16_p16_block_stuff::height_mask
 .rodata        0x00000000080672f8       0x38 objs/log_block_stuff_class.thumb.o
                0x00000000080672f8                typeinfo name for log_block_stuff
                0x000000000806730c                typeinfo for log_block_stuff
                0x0000000008067318                vtable for log_block_stuff
 .rodata        0x0000000008067330       0x18 objs/main.thumb.o
 .rodata        0x0000000008067348       0x30 objs/oam_entry_classes.thumb.o
 .rodata        0x0000000008067378       0xc8 objs/player_sprite_stuff_class.thumb.o
                0x0000000008067378                player_sprite_stuff::frame_slot_to_frame_arr
                0x0000000008067380                typeinfo name for player_sprite_stuff
                0x0000000008067398                typeinfo for player_sprite_stuff
                0x00000000080673a8                vtable for player_sprite_stuff
                0x0000000008067428                player_sprite_stuff::the_relative_metatile_slot_arr_size
                0x000000000806742c                player_sprite_stuff::the_relative_metatile_slot_arr
 .rodata        0x0000000008067440     0x2cb8 objs/practice_17.bin.o
                0x0000000008067440                practice_17_bin
                0x000000000806a0f4                practice_17_bin_end
                0x000000000806a0f4                practice_17_bin_size
 .rodata        0x000000000806a0f8     0x1020 objs/sherwin_gfx.o
                0x000000000806a0f8                sherwin_gfxTiles
                0x000000000806b0f8                sherwin_gfxPal
 .rodata        0x000000000806b118       0xa0 objs/sprite_base_stuff_class.thumb.o
                0x000000000806b118                typeinfo name for sprite_base_stuff
                0x000000000806b12c                typeinfo for sprite_base_stuff
                0x000000000806b138                vtable for sprite_base_stuff
 .rodata        0x000000000806b1b8       0x60 objs/sprite_class.thumb.o
 .rodata._ZTI19muffin_sprite_stuff
                0x000000000806b218        0xc objs/sprite_type_stuff.thumb.o
                0x000000000806b218                typeinfo for muffin_sprite_stuff
 .rodata._ZTS19muffin_sprite_stuff
                0x000000000806b224       0x18 objs/sprite_type_stuff.thumb.o
                0x000000000806b224                typeinfo name for muffin_sprite_stuff
 .rodata._ZTI24fire_muffin_sprite_stuff
                0x000000000806b23c        0xc objs/sprite_type_stuff.thumb.o
                0x000000000806b23c                typeinfo for fire_muffin_sprite_stuff
 .rodata._ZTS24fire_muffin_sprite_stuff
                0x000000000806b248       0x1c objs/sprite_type_stuff.thumb.o
                0x000000000806b248                typeinfo name for fire_muffin_sprite_stuff
 .rodata._ZTI23ice_muffin_sprite_stuff
                0x000000000806b264        0xc objs/sprite_type_stuff.thumb.o
                0x000000000806b264                typeinfo for ice_muffin_sprite_stuff
 .rodata._ZTS23ice_muffin_sprite_stuff
                0x000000000806b270       0x1c objs/sprite_type_stuff.thumb.o
                0x000000000806b270                typeinfo name for ice_muffin_sprite_stuff
 .rodata._ZTI29chocolate_muffin_sprite_stuff
                0x000000000806b28c        0xc objs/sprite_type_stuff.thumb.o
                0x000000000806b28c                typeinfo for chocolate_muffin_sprite_stuff
 .rodata._ZTS29chocolate_muffin_sprite_stuff
                0x000000000806b298       0x20 objs/sprite_type_stuff.thumb.o
                0x000000000806b298                typeinfo name for chocolate_muffin_sprite_stuff
 .rodata._ZTI23warp_block_sprite_stuff
                0x000000000806b2b8        0xc objs/sprite_type_stuff.thumb.o
                0x000000000806b2b8                typeinfo for warp_block_sprite_stuff
 .rodata._ZTS23warp_block_sprite_stuff
                0x000000000806b2c4       0x1c objs/sprite_type_stuff.thumb.o
                0x000000000806b2c4                typeinfo name for warp_block_sprite_stuff
 .rodata._ZTV19muffin_sprite_stuff
                0x000000000806b2e0       0x80 objs/sprite_type_stuff.thumb.o
                0x000000000806b2e0                vtable for muffin_sprite_stuff
 .rodata._ZTV24fire_muffin_sprite_stuff
                0x000000000806b360       0x80 objs/sprite_type_stuff.thumb.o
                0x000000000806b360                vtable for fire_muffin_sprite_stuff
 .rodata._ZTV23ice_muffin_sprite_stuff
                0x000000000806b3e0       0x80 objs/sprite_type_stuff.thumb.o
                0x000000000806b3e0                vtable for ice_muffin_sprite_stuff
 .rodata._ZTV29chocolate_muffin_sprite_stuff
                0x000000000806b460       0x80 objs/sprite_type_stuff.thumb.o
                0x000000000806b460                vtable for chocolate_muffin_sprite_stuff
 .rodata._ZTV23warp_block_sprite_stuff
                0x000000000806b4e0       0x80 objs/sprite_type_stuff.thumb.o
                0x000000000806b4e0                vtable for warp_block_sprite_stuff
 .rodata        0x000000000806b560     0x21c0 objs/test_level.thumb.o
                0x000000000806b560                test_level
 .rodata        0x000000000806d720     0x3020 objs/the_block_gfx.o
                0x000000000806d720                the_block_gfxTiles
                0x0000000008070720                the_block_gfxPal
 .rodata        0x0000000008070740      0x440 objs/the_block_like_sprites_gfx.o
                0x0000000008070740                the_block_like_sprites_gfxTiles
                0x0000000008070b40                the_block_like_sprites_gfxPal
 .rodata        0x0000000008070b80     0x1060 objs/the_golem_enemy_gfx.o
                0x0000000008070b80                the_golem_enemy_gfxTiles
                0x0000000008071b80                the_golem_enemy_gfxPal
 .rodata        0x0000000008071be0      0x2a0 objs/the_powerup_gfx.o
                0x0000000008071be0                the_powerup_gfxTiles
                0x0000000008071e60                the_powerup_gfxPal
 .rodata        0x0000000008071e80      0x658 objs/title_screen.o
                0x0000000008071e80                title_screenTiles
                0x0000000008072270                title_screenMap
                0x00000000080724b8                title_screenPal
 .rodata        0x00000000080724d8       0xa8 objs/waffle_sprite_stuff_class.thumb.o
                0x00000000080724d8                typeinfo name for waffle_sprite_stuff
                0x00000000080724f0                typeinfo for waffle_sprite_stuff
                0x0000000008072500                vtable for waffle_sprite_stuff
 .rodata        0x0000000008072580      0x1f8 objs/wood_block_stuff_classes.thumb.o
                0x0000000008072580                typeinfo name for wood_block_stuff
                0x0000000008072594                typeinfo for wood_block_stuff
                0x00000000080725a0                typeinfo name for wood_block_with_bt_dud_stuff
                0x00000000080725c0                typeinfo for wood_block_with_bt_dud_stuff
                0x00000000080725cc                typeinfo name for wood_block_with_st_waffle_stuff
                0x00000000080725f0                typeinfo for wood_block_with_st_waffle_stuff
                0x00000000080725fc                typeinfo name for wood_block_with_st_muffin_stuff
                0x0000000008072620                typeinfo for wood_block_with_st_muffin_stuff
                0x000000000807262c                typeinfo name for wood_block_with_st_fire_muffin_stuff
                0x0000000008072654                typeinfo for wood_block_with_st_fire_muffin_stuff
                0x0000000008072660                typeinfo name for wood_block_with_st_ice_muffin_stuff
                0x0000000008072688                typeinfo for wood_block_with_st_ice_muffin_stuff
                0x0000000008072694                typeinfo name for wood_block_with_st_chocolate_muffin_stuff
                0x00000000080726c0                typeinfo for wood_block_with_st_chocolate_muffin_stuff
                0x00000000080726d0                vtable for wood_block_stuff
                0x00000000080726e8                vtable for wood_block_with_bt_dud_stuff
                0x0000000008072700                vtable for wood_block_with_st_waffle_stuff
                0x0000000008072718                vtable for wood_block_with_st_muffin_stuff
                0x0000000008072730                vtable for wood_block_with_st_fire_muffin_stuff
                0x0000000008072748                vtable for wood_block_with_st_ice_muffin_stuff
                0x0000000008072760                vtable for wood_block_with_st_chocolate_muffin_stuff
 .rodata.str1.4
                0x0000000008072778        0x2 /opt/devkitpro/devkitARM/bin/../lib/gcc/arm-none-eabi/4.9.2/../../../../arm-none-eabi/lib/libc.a(lib_a-impure.o)
                                          0x4 (size before relaxing)
 *fill*         0x000000000807277a        0x2 
 .rodata._global_impure_ptr
                0x000000000807277c        0x4 /opt/devkitpro/devkitARM/bin/../lib/gcc/arm-none-eabi/4.9.2/../../../../arm-none-eabi/lib/libc.a(lib_a-impure.o)
                0x000000000807277c                _global_impure_ptr
 .rodata._ZTVN10__cxxabiv120__si_class_type_infoE
                0x0000000008072780       0x30 /opt/devkitpro/devkitARM/bin/../lib/gcc/arm-none-eabi/4.9.2/../../../../arm-none-eabi/lib/libstdc++.a(si_class_type_info.o)
                0x0000000008072780                vtable for __cxxabiv1::__si_class_type_info
 .rodata._ZTIN10__cxxabiv120__si_class_type_infoE
                0x00000000080727b0        0xc /opt/devkitpro/devkitARM/bin/../lib/gcc/arm-none-eabi/4.9.2/../../../../arm-none-eabi/lib/libstdc++.a(si_class_type_info.o)
                0x00000000080727b0                typeinfo for __cxxabiv1::__si_class_type_info
 .rodata._ZTSN10__cxxabiv120__si_class_type_infoE
                0x00000000080727bc       0x28 /opt/devkitpro/devkitARM/bin/../lib/gcc/arm-none-eabi/4.9.2/../../../../arm-none-eabi/lib/libstdc++.a(si_class_type_info.o)
                0x00000000080727bc                typeinfo name for __cxxabiv1::__si_class_type_info
 .rodata._ZTISt9type_info
                0x00000000080727e4        0x8 /opt/devkitpro/devkitARM/bin/../lib/gcc/arm-none-eabi/4.9.2/../../../../arm-none-eabi/lib/libstdc++.a(tinfo.o)
                0x00000000080727e4                typeinfo for std::type_info
 .rodata._ZTSSt9type_info
                0x00000000080727ec       0x10 /opt/devkitpro/devkitARM/bin/../lib/gcc/arm-none-eabi/4.9.2/../../../../arm-none-eabi/lib/libstdc++.a(tinfo.o)
                0x00000000080727ec                typeinfo name for std::type_info
 *fill*         0x00000000080727fc        0x4 
 .rodata._ZTVSt9type_info
                0x0000000008072800       0x20 /opt/devkitpro/devkitARM/bin/../lib/gcc/arm-none-eabi/4.9.2/../../../../arm-none-eabi/lib/libstdc++.a(tinfo.o)
                0x0000000008072800                vtable for std::type_info
 .rodata._ZSt7nothrow
                0x0000000008072820        0x4 /opt/devkitpro/devkitARM/bin/../lib/gcc/arm-none-eabi/4.9.2/../../../../arm-none-eabi/lib/libstdc++.a(new_handler.o)
                0x0000000008072820                std::nothrow
 *fill*         0x0000000008072824        0x4 
 .rodata._ZTVN10__cxxabiv117__class_type_infoE
                0x0000000008072828       0x30 /opt/devkitpro/devkitARM/bin/../lib/gcc/arm-none-eabi/4.9.2/../../../../arm-none-eabi/lib/libstdc++.a(class_type_info.o)
                0x0000000008072828                vtable for __cxxabiv1::__class_type_info
 .rodata._ZTIN10__cxxabiv117__class_type_infoE
                0x0000000008072858        0xc /opt/devkitpro/devkitARM/bin/../lib/gcc/arm-none-eabi/4.9.2/../../../../arm-none-eabi/lib/libstdc++.a(class_type_info.o)
                0x0000000008072858                typeinfo for __cxxabiv1::__class_type_info
 .rodata._ZTSN10__cxxabiv117__class_type_infoE
                0x0000000008072864       0x24 /opt/devkitpro/devkitARM/bin/../lib/gcc/arm-none-eabi/4.9.2/../../../../arm-none-eabi/lib/libstdc++.a(class_type_info.o)
                0x0000000008072864                typeinfo name for __cxxabiv1::__class_type_info
 .rodata._ZTVSt9bad_alloc
                0x0000000008072888       0x18 /opt/devkitpro/devkitARM/bin/../lib/gcc/arm-none-eabi/4.9.2/../../../../arm-none-eabi/lib/libstdc++.a(bad_alloc.o)
                0x0000000008072888                vtable for std::bad_alloc
 .rodata._ZTISt9bad_alloc
                0x00000000080728a0        0xc /opt/devkitpro/devkitARM/bin/../lib/gcc/arm-none-eabi/4.9.2/../../../../arm-none-eabi/lib/libstdc++.a(bad_alloc.o)
                0x00000000080728a0                typeinfo for std::bad_alloc
 .rodata.str1.4
                0x00000000080728ac        0xf /opt/devkitpro/devkitARM/bin/../lib/gcc/arm-none-eabi/4.9.2/../../../../arm-none-eabi/lib/libstdc++.a(bad_alloc.o)
                                         0x10 (size before relaxing)
 *fill*         0x00000000080728bb        0x1 
 .rodata._ZTSSt9bad_alloc
                0x00000000080728bc       0x10 /opt/devkitpro/devkitARM/bin/../lib/gcc/arm-none-eabi/4.9.2/../../../../arm-none-eabi/lib/libstdc++.a(bad_alloc.o)
                0x00000000080728bc                typeinfo name for std::bad_alloc
 *fill*         0x00000000080728cc        0x4 
 .rodata._ZTVN10__cxxabiv115__forced_unwindE
                0x00000000080728d0       0x18 /opt/devkitpro/devkitARM/bin/../lib/gcc/arm-none-eabi/4.9.2/../../../../arm-none-eabi/lib/libstdc++.a(eh_exception.o)
                0x00000000080728d0                vtable for __cxxabiv1::__forced_unwind
 .rodata._ZTVN10__cxxabiv119__foreign_exceptionE
                0x00000000080728e8       0x18 /opt/devkitpro/devkitARM/bin/../lib/gcc/arm-none-eabi/4.9.2/../../../../arm-none-eabi/lib/libstdc++.a(eh_exception.o)
                0x00000000080728e8                vtable for __cxxabiv1::__foreign_exception
 .rodata._ZTSN10__cxxabiv115__forced_unwindE
                0x0000000008072900       0x20 /opt/devkitpro/devkitARM/bin/../lib/gcc/arm-none-eabi/4.9.2/../../../../arm-none-eabi/lib/libstdc++.a(eh_exception.o)
                0x0000000008072900                typeinfo name for __cxxabiv1::__forced_unwind
 .rodata._ZTIN10__cxxabiv115__forced_unwindE
                0x0000000008072920        0x8 /opt/devkitpro/devkitARM/bin/../lib/gcc/arm-none-eabi/4.9.2/../../../../arm-none-eabi/lib/libstdc++.a(eh_exception.o)
                0x0000000008072920                typeinfo for __cxxabiv1::__forced_unwind
 .rodata._ZTISt9exception
                0x0000000008072928        0x8 /opt/devkitpro/devkitARM/bin/../lib/gcc/arm-none-eabi/4.9.2/../../../../arm-none-eabi/lib/libstdc++.a(eh_exception.o)
                0x0000000008072928                typeinfo for std::exception
 .rodata._ZTSN10__cxxabiv119__foreign_exceptionE
                0x0000000008072930       0x24 /opt/devkitpro/devkitARM/bin/../lib/gcc/arm-none-eabi/4.9.2/../../../../arm-none-eabi/lib/libstdc++.a(eh_exception.o)
                0x0000000008072930                typeinfo name for __cxxabiv1::__foreign_exception
 .rodata.str1.4
                0x0000000008072954       0x23 /opt/devkitpro/devkitARM/bin/../lib/gcc/arm-none-eabi/4.9.2/../../../../arm-none-eabi/lib/libstdc++.a(eh_exception.o)
                                         0x24 (size before relaxing)
 *fill*         0x0000000008072977        0x1 
 .rodata._ZTIN10__cxxabiv119__foreign_exceptionE
                0x0000000008072978        0x8 /opt/devkitpro/devkitARM/bin/../lib/gcc/arm-none-eabi/4.9.2/../../../../arm-none-eabi/lib/libstdc++.a(eh_exception.o)
                0x0000000008072978                typeinfo for __cxxabiv1::__foreign_exception
 .rodata._ZTVSt9exception
                0x0000000008072980       0x18 /opt/devkitpro/devkitARM/bin/../lib/gcc/arm-none-eabi/4.9.2/../../../../arm-none-eabi/lib/libstdc++.a(eh_exception.o)
                0x0000000008072980                vtable for std::exception
 .rodata._ZTVSt13bad_exception
                0x0000000008072998       0x18 /opt/devkitpro/devkitARM/bin/../lib/gcc/arm-none-eabi/4.9.2/../../../../arm-none-eabi/lib/libstdc++.a(eh_exception.o)
                0x0000000008072998                vtable for std::bad_exception
 .rodata._ZTSSt9exception
                0x00000000080729b0       0x10 /opt/devkitpro/devkitARM/bin/../lib/gcc/arm-none-eabi/4.9.2/../../../../arm-none-eabi/lib/libstdc++.a(eh_exception.o)
                0x00000000080729b0                typeinfo name for std::exception
 .rodata._ZTSSt13bad_exception
                0x00000000080729c0       0x14 /opt/devkitpro/devkitARM/bin/../lib/gcc/arm-none-eabi/4.9.2/../../../../arm-none-eabi/lib/libstdc++.a(eh_exception.o)
                0x00000000080729c0                typeinfo name for std::bad_exception
 .rodata._ZTISt13bad_exception
                0x00000000080729d4        0xc /opt/devkitpro/devkitARM/bin/../lib/gcc/arm-none-eabi/4.9.2/../../../../arm-none-eabi/lib/libstdc++.a(eh_exception.o)
                0x00000000080729d4                typeinfo for std::bad_exception
 .rodata.str1.4
                0x00000000080729e0       0x94 /opt/devkitpro/devkitARM/bin/../lib/gcc/arm-none-eabi/4.9.2/../../../../arm-none-eabi/lib/libstdc++.a(vterminate.o)
 .rodata        0x0000000008072a74      0x738 /opt/devkitpro/devkitARM/bin/../lib/gcc/arm-none-eabi/4.9.2/../../../../arm-none-eabi/lib/libstdc++.a(cp-demangle.o)
 .rodata.str1.4
                0x00000000080731ac      0x7ea /opt/devkitpro/devkitARM/bin/../lib/gcc/arm-none-eabi/4.9.2/../../../../arm-none-eabi/lib/libstdc++.a(cp-demangle.o)
                                        0x840 (size before relaxing)
 *fill*         0x0000000008073996        0x2 
 .rodata.str1.4
                0x0000000008073998       0x3b /opt/devkitpro/devkitARM/bin/../lib/gcc/arm-none-eabi/4.9.2/../../../../arm-none-eabi/lib/libstdc++.a(pure.o)
                                         0x3c (size before relaxing)
 *fill*         0x00000000080739d3        0x1 
 .rodata.zeroes.7037
                0x00000000080739d4       0x10 /opt/devkitpro/devkitARM/bin/../lib/gcc/arm-none-eabi/4.9.2/../../../../arm-none-eabi/lib/libc.a(lib_a-svfprintf.o)
 .rodata.str1.4
                0x00000000080739e4       0x42 /opt/devkitpro/devkitARM/bin/../lib/gcc/arm-none-eabi/4.9.2/../../../../arm-none-eabi/lib/libc.a(lib_a-svfprintf.o)
                                         0x44 (size before relaxing)
 *fill*         0x0000000008073a26        0x2 
 .rodata.blanks.7036
                0x0000000008073a28       0x10 /opt/devkitpro/devkitARM/bin/../lib/gcc/arm-none-eabi/4.9.2/../../../../arm-none-eabi/lib/libc.a(lib_a-svfprintf.o)
 .rodata.str1.4
                0x0000000008073a38       0x10 /opt/devkitpro/devkitARM/bin/../lib/gcc/arm-none-eabi/4.9.2/../../../../arm-none-eabi/lib/libc.a(lib_a-dtoa.o)
                                         0x14 (size before relaxing)
 .rodata.str1.4
                0x0000000008073a48      0x120 /opt/devkitpro/devkitARM/bin/../lib/gcc/arm-none-eabi/4.9.2/../../../../arm-none-eabi/lib/libc.a(lib_a-locale.o)
                                        0x130 (size before relaxing)
 .rodata.categories
                0x0000000008073b68       0x1c /opt/devkitpro/devkitARM/bin/../lib/gcc/arm-none-eabi/4.9.2/../../../../arm-none-eabi/lib/libc.a(lib_a-locale.o)
 .rodata.JIS_state_table
                0x0000000008073b84       0x48 /opt/devkitpro/devkitARM/bin/../lib/gcc/arm-none-eabi/4.9.2/../../../../arm-none-eabi/lib/libc.a(lib_a-mbtowc_r.o)
 .rodata.JIS_action_table
                0x0000000008073bcc       0x48 /opt/devkitpro/devkitARM/bin/../lib/gcc/arm-none-eabi/4.9.2/../../../../arm-none-eabi/lib/libc.a(lib_a-mbtowc_r.o)
 .rodata.p05.5298
                0x0000000008073c14        0xc /opt/devkitpro/devkitARM/bin/../lib/gcc/arm-none-eabi/4.9.2/../../../../arm-none-eabi/lib/libc.a(lib_a-mprec.o)
 .rodata.__mprec_tens
                0x0000000008073c20       0xc8 /opt/devkitpro/devkitARM/bin/../lib/gcc/arm-none-eabi/4.9.2/../../../../arm-none-eabi/lib/libc.a(lib_a-mprec.o)
                0x0000000008073c20                __mprec_tens
 .rodata.__mprec_bigtens
                0x0000000008073ce8       0x28 /opt/devkitpro/devkitARM/bin/../lib/gcc/arm-none-eabi/4.9.2/../../../../arm-none-eabi/lib/libc.a(lib_a-mprec.o)
                0x0000000008073ce8                __mprec_bigtens
 .rodata.__mprec_tinytens
                0x0000000008073d10       0x28 /opt/devkitpro/devkitARM/bin/../lib/gcc/arm-none-eabi/4.9.2/../../../../arm-none-eabi/lib/libc.a(lib_a-mprec.o)
                0x0000000008073d10                __mprec_tinytens
 .rodata.__state_table
                0x0000000008073d38       0x6c /opt/devkitpro/devkitARM/bin/../lib/gcc/arm-none-eabi/4.9.2/../../../../arm-none-eabi/lib/libc.a(lib_a-svfiprintf.o)
                0x0000000008073d38                __state_table
 .rodata.blanks.7015
                0x0000000008073da4       0x10 /opt/devkitpro/devkitARM/bin/../lib/gcc/arm-none-eabi/4.9.2/../../../../arm-none-eabi/lib/libc.a(lib_a-svfiprintf.o)
 .rodata.__chclass
                0x0000000008073db4      0x100 /opt/devkitpro/devkitARM/bin/../lib/gcc/arm-none-eabi/4.9.2/../../../../arm-none-eabi/lib/libc.a(lib_a-svfiprintf.o)
                0x0000000008073db4                __chclass
 .rodata.str1.4
                0x0000000008073eb4       0x30 /opt/devkitpro/devkitARM/bin/../lib/gcc/arm-none-eabi/4.9.2/../../../../arm-none-eabi/lib/libc.a(lib_a-svfiprintf.o)
 .rodata.__action_table
                0x0000000008073eb4       0x6c /opt/devkitpro/devkitARM/bin/../lib/gcc/arm-none-eabi/4.9.2/../../../../arm-none-eabi/lib/libc.a(lib_a-svfiprintf.o)
                0x0000000008073eb4                __action_table
 .rodata.zeroes.7016
                0x0000000008073f20       0x10 /opt/devkitpro/devkitARM/bin/../lib/gcc/arm-none-eabi/4.9.2/../../../../arm-none-eabi/lib/libc.a(lib_a-svfiprintf.o)
 .rodata._ctype_
                0x0000000008073f30      0x104 /opt/devkitpro/devkitARM/bin/../lib/gcc/arm-none-eabi/4.9.2/../../../../arm-none-eabi/lib/libc.a(lib_a-ctype_.o)
                0x0000000008073f30                _ctype_
 .rodata        0x0000000008074034       0x68 /opt/devkitpro/devkitARM/bin/../lib/gcc/arm-none-eabi/4.9.2/../../../../arm-none-eabi/lib/libsysbase.a(iosupport.o)
                0x0000000008074034                dotab_stdnull
 .rodata.str1.4
                0x000000000807409c        0x8 /opt/devkitpro/devkitARM/bin/../lib/gcc/arm-none-eabi/4.9.2/../../../../arm-none-eabi/lib/libsysbase.a(iosupport.o)
 *(.init)
 .init          0x00000000080740a4        0xc /opt/devkitpro/devkitARM/bin/../lib/gcc/arm-none-eabi/4.9.2/crti.o
                0x00000000080740a4                _init
 .init          0x00000000080740b0        0xc /opt/devkitpro/devkitARM/bin/../lib/gcc/arm-none-eabi/4.9.2/crtn.o
 *(.fini)
 .fini          0x00000000080740bc        0xc /opt/devkitpro/devkitARM/bin/../lib/gcc/arm-none-eabi/4.9.2/crti.o
                0x00000000080740bc                _fini
 .fini          0x00000000080740c8        0xc /opt/devkitpro/devkitARM/bin/../lib/gcc/arm-none-eabi/4.9.2/crtn.o
 *fill*         0x00000000080740d4        0x4 
 .fini.__stub   0x00000000080740d8      0x11c linker stubs

.vfp11_veneer   0x0000000008074220        0x0
 .vfp11_veneer  0x0000000008074220        0x0 linker stubs

.v4_bx          0x0000000008074220        0x0
 .v4_bx         0x0000000008074220        0x0 linker stubs

.iplt           0x0000000008074220        0x0
 .iplt          0x0000000008074220        0x0 /opt/devkitpro/devkitARM/bin/../lib/gcc/arm-none-eabi/4.9.2/crtbegin.o

.ARM.extab      0x0000000008074220      0x198
 *(.ARM.extab* .gnu.linkonce.armextab.*)
 .ARM.extab     0x0000000008074220        0x0 /opt/devkitpro/devkitARM/bin/../lib/gcc/arm-none-eabi/4.9.2/../../../../arm-none-eabi/lib/crt0.o
 .ARM.extab.text._ZNSt5arrayISt12forward_listI23sprite_init_param_groupSaIS1_EELj512EED2Ev
                0x0000000008074220        0x0 objs/active_level_class.thumb.o
 .ARM.extab.text.startup
                0x0000000008074220        0x0 objs/active_level_class.thumb.o
 .ARM.extab.iwram_code
                0x0000000008074220        0xc objs/active_level_manager_class.arm.o
 .ARM.extab.iwram_code
                0x000000000807422c        0x0 objs/air_block_stuff_class.thumb.o
 .ARM.extab.iwram_code
                0x000000000807422c        0x0 objs/block_base_stuff_class.thumb.o
 .ARM.extab.text._ZN24grass_single_block_stuff19get_metatile_numberEv
                0x000000000807422c        0x0 objs/block_stuff.thumb.o
 .ARM.extab.text._ZN24grass_single_block_stuff18get_palette_numberEv
                0x000000000807422c        0x0 objs/block_stuff.thumb.o
 .ARM.extab.text._ZN24grass_single_block_stuff26get_metatile_graphics_slotEv
                0x000000000807422c        0x0 objs/block_stuff.thumb.o
 .ARM.extab.text._ZN26grass_top_left_block_stuff19get_metatile_numberEv
                0x000000000807422c        0x0 objs/block_stuff.thumb.o
 .ARM.extab.text._ZN26grass_top_left_block_stuff18get_palette_numberEv
                0x000000000807422c        0x0 objs/block_stuff.thumb.o
 .ARM.extab.text._ZN26grass_top_left_block_stuff26get_metatile_graphics_slotEv
                0x000000000807422c        0x0 objs/block_stuff.thumb.o
 .ARM.extab.text._ZN28grass_top_middle_block_stuff19get_metatile_numberEv
                0x000000000807422c        0x0 objs/block_stuff.thumb.o
 .ARM.extab.text._ZN28grass_top_middle_block_stuff18get_palette_numberEv
                0x000000000807422c        0x0 objs/block_stuff.thumb.o
 .ARM.extab.text._ZN28grass_top_middle_block_stuff26get_metatile_graphics_slotEv
                0x000000000807422c        0x0 objs/block_stuff.thumb.o
 .ARM.extab.text._ZN27grass_top_right_block_stuff19get_metatile_numberEv
                0x000000000807422c        0x0 objs/block_stuff.thumb.o
 .ARM.extab.text._ZN27grass_top_right_block_stuff18get_palette_numberEv
                0x000000000807422c        0x0 objs/block_stuff.thumb.o
 .ARM.extab.text._ZN27grass_top_right_block_stuff26get_metatile_graphics_slotEv
                0x000000000807422c        0x0 objs/block_stuff.thumb.o
 .ARM.extab.text._ZN28dirt_middle_left_block_stuff19get_metatile_numberEv
                0x000000000807422c        0x0 objs/block_stuff.thumb.o
 .ARM.extab.text._ZN28dirt_middle_left_block_stuff18get_palette_numberEv
                0x000000000807422c        0x0 objs/block_stuff.thumb.o
 .ARM.extab.text._ZN28dirt_middle_left_block_stuff26get_metatile_graphics_slotEv
                0x000000000807422c        0x0 objs/block_stuff.thumb.o
 .ARM.extab.text._ZN30dirt_middle_middle_block_stuff19get_metatile_numberEv
                0x000000000807422c        0x0 objs/block_stuff.thumb.o
 .ARM.extab.text._ZN30dirt_middle_middle_block_stuff18get_palette_numberEv
                0x000000000807422c        0x0 objs/block_stuff.thumb.o
 .ARM.extab.text._ZN30dirt_middle_middle_block_stuff26get_metatile_graphics_slotEv
                0x000000000807422c        0x0 objs/block_stuff.thumb.o
 .ARM.extab.text._ZN29dirt_middle_right_block_stuff19get_metatile_numberEv
                0x000000000807422c        0x0 objs/block_stuff.thumb.o
 .ARM.extab.text._ZN29dirt_middle_right_block_stuff18get_palette_numberEv
                0x000000000807422c        0x0 objs/block_stuff.thumb.o
 .ARM.extab.text._ZN29dirt_middle_right_block_stuff26get_metatile_graphics_slotEv
                0x000000000807422c        0x0 objs/block_stuff.thumb.o
 .ARM.extab.text._ZN28dirt_bottom_left_block_stuff19get_metatile_numberEv
                0x000000000807422c        0x0 objs/block_stuff.thumb.o
 .ARM.extab.text._ZN28dirt_bottom_left_block_stuff18get_palette_numberEv
                0x000000000807422c        0x0 objs/block_stuff.thumb.o
 .ARM.extab.text._ZN28dirt_bottom_left_block_stuff26get_metatile_graphics_slotEv
                0x000000000807422c        0x0 objs/block_stuff.thumb.o
 .ARM.extab.text._ZN30dirt_bottom_middle_block_stuff19get_metatile_numberEv
                0x000000000807422c        0x0 objs/block_stuff.thumb.o
 .ARM.extab.text._ZN30dirt_bottom_middle_block_stuff18get_palette_numberEv
                0x000000000807422c        0x0 objs/block_stuff.thumb.o
 .ARM.extab.text._ZN30dirt_bottom_middle_block_stuff26get_metatile_graphics_slotEv
                0x000000000807422c        0x0 objs/block_stuff.thumb.o
 .ARM.extab.text._ZN29dirt_bottom_right_block_stuff19get_metatile_numberEv
                0x000000000807422c        0x0 objs/block_stuff.thumb.o
 .ARM.extab.text._ZN29dirt_bottom_right_block_stuff18get_palette_numberEv
                0x000000000807422c        0x0 objs/block_stuff.thumb.o
 .ARM.extab.text._ZN29dirt_bottom_right_block_stuff26get_metatile_graphics_slotEv
                0x000000000807422c        0x0 objs/block_stuff.thumb.o
 .ARM.extab.text._ZN31grass_slope_p16_p16_block_stuff19get_metatile_numberEv
                0x000000000807422c        0x0 objs/block_stuff.thumb.o
 .ARM.extab.text._ZN31grass_slope_p16_p16_block_stuff18get_palette_numberEv
                0x000000000807422c        0x0 objs/block_stuff.thumb.o
 .ARM.extab.text._ZN31grass_slope_p16_p16_block_stuff26get_metatile_graphics_slotEv
                0x000000000807422c        0x0 objs/block_stuff.thumb.o
 .ARM.extab.text._ZN31grass_slope_n16_p16_block_stuff19get_metatile_numberEv
                0x000000000807422c        0x0 objs/block_stuff.thumb.o
 .ARM.extab.text._ZN31grass_slope_n16_p16_block_stuff18get_palette_numberEv
                0x000000000807422c        0x0 objs/block_stuff.thumb.o
 .ARM.extab.text._ZN31grass_slope_n16_p16_block_stuff26get_metatile_graphics_slotEv
                0x000000000807422c        0x0 objs/block_stuff.thumb.o
 .ARM.extab.text._ZN37grass_slope_p32_p16_short_block_stuff19get_metatile_numberEv
                0x000000000807422c        0x0 objs/block_stuff.thumb.o
 .ARM.extab.text._ZN37grass_slope_p32_p16_short_block_stuff18get_palette_numberEv
                0x000000000807422c        0x0 objs/block_stuff.thumb.o
 .ARM.extab.text._ZN37grass_slope_p32_p16_short_block_stuff26get_metatile_graphics_slotEv
                0x000000000807422c        0x0 objs/block_stuff.thumb.o
 .ARM.extab.text._ZN36grass_slope_p32_p16_tall_block_stuff19get_metatile_numberEv
                0x000000000807422c        0x0 objs/block_stuff.thumb.o
 .ARM.extab.text._ZN36grass_slope_p32_p16_tall_block_stuff18get_palette_numberEv
                0x000000000807422c        0x0 objs/block_stuff.thumb.o
 .ARM.extab.text._ZN36grass_slope_p32_p16_tall_block_stuff26get_metatile_graphics_slotEv
                0x000000000807422c        0x0 objs/block_stuff.thumb.o
 .ARM.extab.text._ZN36grass_slope_n32_p16_tall_block_stuff19get_metatile_numberEv
                0x000000000807422c        0x0 objs/block_stuff.thumb.o
 .ARM.extab.text._ZN36grass_slope_n32_p16_tall_block_stuff18get_palette_numberEv
                0x000000000807422c        0x0 objs/block_stuff.thumb.o
 .ARM.extab.text._ZN36grass_slope_n32_p16_tall_block_stuff26get_metatile_graphics_slotEv
                0x000000000807422c        0x0 objs/block_stuff.thumb.o
 .ARM.extab.text._ZN37grass_slope_n32_p16_short_block_stuff19get_metatile_numberEv
                0x000000000807422c        0x0 objs/block_stuff.thumb.o
 .ARM.extab.text._ZN37grass_slope_n32_p16_short_block_stuff18get_palette_numberEv
                0x000000000807422c        0x0 objs/block_stuff.thumb.o
 .ARM.extab.text._ZN37grass_slope_n32_p16_short_block_stuff26get_metatile_graphics_slotEv
                0x000000000807422c        0x0 objs/block_stuff.thumb.o
 .ARM.extab.text._ZN31grass_in_slope_left_block_stuff19get_metatile_numberEv
                0x000000000807422c        0x0 objs/block_stuff.thumb.o
 .ARM.extab.text._ZN31grass_in_slope_left_block_stuff18get_palette_numberEv
                0x000000000807422c        0x0 objs/block_stuff.thumb.o
 .ARM.extab.text._ZN31grass_in_slope_left_block_stuff26get_metatile_graphics_slotEv
                0x000000000807422c        0x0 objs/block_stuff.thumb.o
 .ARM.extab.text._ZN32grass_in_slope_right_block_stuff19get_metatile_numberEv
                0x000000000807422c        0x0 objs/block_stuff.thumb.o
 .ARM.extab.text._ZN32grass_in_slope_right_block_stuff18get_palette_numberEv
                0x000000000807422c        0x0 objs/block_stuff.thumb.o
 .ARM.extab.text._ZN32grass_in_slope_right_block_stuff26get_metatile_graphics_slotEv
                0x000000000807422c        0x0 objs/block_stuff.thumb.o
 .ARM.extab.iwram_code
                0x000000000807422c        0x0 objs/block_stuff.thumb.o
 .ARM.extab.text.startup
                0x000000000807422c        0x0 objs/block_stuff.thumb.o
 .ARM.extab     0x000000000807422c        0x0 objs/button_stuff.thumb.o
 .ARM.extab.iwram_code
                0x000000000807422c        0x0 objs/coll_box_class.arm.o
 .ARM.extab.iwram_code
                0x000000000807422c        0x0 objs/coll_box_class.thumb.o
 .ARM.extab     0x000000000807422c        0x0 objs/coll_box_class.thumb.o
 .ARM.extab.iwram_code
                0x000000000807422c        0x0 objs/coll_point_group_class.thumb.o
 .ARM.extab.iwram_code
                0x000000000807422c        0xc objs/debug_vars.thumb.o
 .ARM.extab.iwram_code
                0x0000000008074238        0x0 objs/division_funcs.o
 .ARM.extab     0x0000000008074238        0x0 objs/dma_stuff.thumb.o
 .ARM.extab.iwram_code
                0x0000000008074238        0x0 objs/dud_block_stuff_class.thumb.o
 .ARM.extab.iwram_code
                0x0000000008074238        0x0 objs/exclam_block_stuff_classes.thumb.o
 .ARM.extab.iwram_code
                0x0000000008074238        0x0 objs/eyes_block_stuff_classes.thumb.o
 .ARM.extab.iwram_code
                0x0000000008074238        0x0 objs/fixed_classes.thumb.o
 .ARM.extab.iwram_code
                0x0000000008074238        0x0 objs/interrupt_stuff.arm.o
 .ARM.extab.iwram_code
                0x0000000008074238        0x0 objs/interrupt_stuff.thumb.o
 .ARM.extab     0x0000000008074238        0x0 objs/interrupt_stuff.thumb.o
 .ARM.extab.iwram_code
                0x0000000008074238        0x0 objs/log_block_stuff_class.thumb.o
 .ARM.extab.iwram_code
                0x0000000008074238        0x0 objs/main.thumb.o
 .ARM.extab     0x0000000008074238        0x0 objs/main.thumb.o
 .ARM.extab.text._Z15reinit_the_gameRi
                0x0000000008074238        0x0 objs/main.thumb.o
 .ARM.extab.text.startup
                0x0000000008074238        0xc objs/main.thumb.o
 .ARM.extab.iwram_code
                0x0000000008074244        0x0 objs/memory_funcs_8bit.o
 .ARM.extab     0x0000000008074244        0x0 objs/oam_entry_classes.thumb.o
 .ARM.extab.text._ZNK19player_sprite_stuff15get_sprite_typeEv
                0x0000000008074244        0x0 objs/player_sprite_stuff_class.thumb.o
 .ARM.extab.text._ZN19player_sprite_stuff16get_gfx_categoryER6sprite
                0x0000000008074244        0x0 objs/player_sprite_stuff_class.thumb.o
 .ARM.extab.text._ZN19player_sprite_stuff24get_num_active_gfx_tilesEv
                0x0000000008074244        0x0 objs/player_sprite_stuff_class.thumb.o
 .ARM.extab.text._ZNK19player_sprite_stuff12get_tile_arrEv
                0x0000000008074244        0x0 objs/player_sprite_stuff_class.thumb.o
 .ARM.extab.iwram_code
                0x0000000008074244       0x18 objs/player_sprite_stuff_class.thumb.o
 .ARM.extab     0x000000000807425c        0x0 objs/player_sprite_stuff_class.thumb.o
 .ARM.extab.iwram_code
                0x000000000807425c        0x0 objs/sprite_base_stuff_class.arm.o
 .ARM.extab.text._ZNK17sprite_base_stuff12get_tile_arrEv
                0x000000000807425c        0x0 objs/sprite_base_stuff_class.thumb.o
 .ARM.extab.text._ZN17sprite_base_stuff24get_num_active_gfx_tilesEv
                0x000000000807425c        0x0 objs/sprite_base_stuff_class.thumb.o
 .ARM.extab     0x000000000807425c        0x0 objs/sprite_base_stuff_class.thumb.o
 .ARM.extab.iwram_code
                0x000000000807425c        0x0 objs/sprite_base_stuff_class.thumb.o
 .ARM.extab     0x000000000807425c        0x0 objs/sprite_class.thumb.o
 .ARM.extab.iwram_code
                0x000000000807425c        0xc objs/sprite_class.thumb.o
 .ARM.extab     0x0000000008074268        0xc objs/sprite_gfx_stuff.thumb.o
 .ARM.extab.iwram_code
                0x0000000008074274        0x0 objs/sprite_gfx_stuff.thumb.o
 .ARM.extab.iwram_code
                0x0000000008074274        0x0 objs/sprite_manager_class.arm.o
 .ARM.extab     0x0000000008074274       0x24 objs/sprite_manager_class.thumb.o
 .ARM.extab.text._ZNSt12forward_listI23sprite_init_param_groupSaIS0_EE4sortISt4lessIS0_EEEvT_
                0x0000000008074298        0x0 objs/sprite_manager_class.thumb.o
 .ARM.extab.text.startup
                0x0000000008074298        0x0 objs/sprite_manager_class.thumb.o
 .ARM.extab.text._ZNK19muffin_sprite_stuff15get_sprite_typeEv
                0x0000000008074298        0x0 objs/sprite_type_stuff.thumb.o
 .ARM.extab.text._ZN19muffin_sprite_stuff16get_gfx_categoryER6sprite
                0x0000000008074298        0x0 objs/sprite_type_stuff.thumb.o
 .ARM.extab.text._ZN19muffin_sprite_stuff27get_curr_relative_tile_slotER6sprite
                0x0000000008074298        0x0 objs/sprite_type_stuff.thumb.o
 .ARM.extab.text._ZN19muffin_sprite_stuff24get_num_active_gfx_tilesEv
                0x0000000008074298        0x0 objs/sprite_type_stuff.thumb.o
 .ARM.extab.text._ZNK19muffin_sprite_stuff12get_tile_arrEv
                0x0000000008074298        0x0 objs/sprite_type_stuff.thumb.o
 .ARM.extab.text._ZNK24fire_muffin_sprite_stuff15get_sprite_typeEv
                0x0000000008074298        0x0 objs/sprite_type_stuff.thumb.o
 .ARM.extab.text._ZN24fire_muffin_sprite_stuff16get_gfx_categoryER6sprite
                0x0000000008074298        0x0 objs/sprite_type_stuff.thumb.o
 .ARM.extab.text._ZN24fire_muffin_sprite_stuff27get_curr_relative_tile_slotER6sprite
                0x0000000008074298        0x0 objs/sprite_type_stuff.thumb.o
 .ARM.extab.text._ZN24fire_muffin_sprite_stuff24get_num_active_gfx_tilesEv
                0x0000000008074298        0x0 objs/sprite_type_stuff.thumb.o
 .ARM.extab.text._ZNK24fire_muffin_sprite_stuff12get_tile_arrEv
                0x0000000008074298        0x0 objs/sprite_type_stuff.thumb.o
 .ARM.extab.text._ZNK23ice_muffin_sprite_stuff15get_sprite_typeEv
                0x0000000008074298        0x0 objs/sprite_type_stuff.thumb.o
 .ARM.extab.text._ZN23ice_muffin_sprite_stuff16get_gfx_categoryER6sprite
                0x0000000008074298        0x0 objs/sprite_type_stuff.thumb.o
 .ARM.extab.text._ZN23ice_muffin_sprite_stuff27get_curr_relative_tile_slotER6sprite
                0x0000000008074298        0x0 objs/sprite_type_stuff.thumb.o
 .ARM.extab.text._ZN23ice_muffin_sprite_stuff24get_num_active_gfx_tilesEv
                0x0000000008074298        0x0 objs/sprite_type_stuff.thumb.o
 .ARM.extab.text._ZNK23ice_muffin_sprite_stuff12get_tile_arrEv
                0x0000000008074298        0x0 objs/sprite_type_stuff.thumb.o
 .ARM.extab.text._ZNK29chocolate_muffin_sprite_stuff15get_sprite_typeEv
                0x0000000008074298        0x0 objs/sprite_type_stuff.thumb.o
 .ARM.extab.text._ZN29chocolate_muffin_sprite_stuff16get_gfx_categoryER6sprite
                0x0000000008074298        0x0 objs/sprite_type_stuff.thumb.o
 .ARM.extab.text._ZN29chocolate_muffin_sprite_stuff27get_curr_relative_tile_slotER6sprite
                0x0000000008074298        0x0 objs/sprite_type_stuff.thumb.o
 .ARM.extab.text._ZN29chocolate_muffin_sprite_stuff24get_num_active_gfx_tilesEv
                0x0000000008074298        0x0 objs/sprite_type_stuff.thumb.o
 .ARM.extab.text._ZNK29chocolate_muffin_sprite_stuff12get_tile_arrEv
                0x0000000008074298        0x0 objs/sprite_type_stuff.thumb.o
 .ARM.extab.text._ZNK23warp_block_sprite_stuff15get_sprite_typeEv
                0x0000000008074298        0x0 objs/sprite_type_stuff.thumb.o
 .ARM.extab.text._ZN23warp_block_sprite_stuff16get_gfx_categoryER6sprite
                0x0000000008074298        0x0 objs/sprite_type_stuff.thumb.o
 .ARM.extab.text._ZN23warp_block_sprite_stuff27get_curr_relative_tile_slotER6sprite
                0x0000000008074298        0x0 objs/sprite_type_stuff.thumb.o
 .ARM.extab.text._ZN23warp_block_sprite_stuff24get_num_active_gfx_tilesEv
                0x0000000008074298        0x0 objs/sprite_type_stuff.thumb.o
 .ARM.extab.text._ZNK23warp_block_sprite_stuff12get_tile_arrEv
                0x0000000008074298        0x0 objs/sprite_type_stuff.thumb.o
 .ARM.extab.text._ZNK19waffle_sprite_stuff15get_sprite_typeEv
                0x0000000008074298        0x0 objs/waffle_sprite_stuff_class.thumb.o
 .ARM.extab.text._ZN19waffle_sprite_stuff16get_gfx_categoryER6sprite
                0x0000000008074298        0x0 objs/waffle_sprite_stuff_class.thumb.o
 .ARM.extab.text._ZN19waffle_sprite_stuff27get_curr_relative_tile_slotER6sprite
                0x0000000008074298        0x0 objs/waffle_sprite_stuff_class.thumb.o
 .ARM.extab.text._ZN19waffle_sprite_stuff24get_num_active_gfx_tilesEv
                0x0000000008074298        0x0 objs/waffle_sprite_stuff_class.thumb.o
 .ARM.extab.text._ZNK19waffle_sprite_stuff12get_tile_arrEv
                0x0000000008074298        0x0 objs/waffle_sprite_stuff_class.thumb.o
 .ARM.extab.text._ZN19waffle_sprite_stuff21block_collision_stuffER6sprite
                0x0000000008074298        0xc objs/waffle_sprite_stuff_class.thumb.o
 .ARM.extab.iwram_code
                0x00000000080742a4        0x0 objs/waffle_sprite_stuff_class.thumb.o
 .ARM.extab.iwram_code
                0x00000000080742a4        0x0 objs/wood_block_stuff_classes.thumb.o
 .ARM.extab.text._ZdlPv
                0x00000000080742a4        0x0 /opt/devkitpro/devkitARM/bin/../lib/gcc/arm-none-eabi/4.9.2/../../../../arm-none-eabi/lib/libstdc++.a(del_op.o)
 .ARM.extab.text._ZN10__cxxabiv120__si_class_type_infoD2Ev
                0x00000000080742a4        0x0 /opt/devkitpro/devkitARM/bin/../lib/gcc/arm-none-eabi/4.9.2/../../../../arm-none-eabi/lib/libstdc++.a(si_class_type_info.o)
 .ARM.extab.text._ZN10__cxxabiv120__si_class_type_infoD0Ev
                0x00000000080742a4        0x0 /opt/devkitpro/devkitARM/bin/../lib/gcc/arm-none-eabi/4.9.2/../../../../arm-none-eabi/lib/libstdc++.a(si_class_type_info.o)
 .ARM.extab.text._ZNK10__cxxabiv120__si_class_type_info20__do_find_public_srcEiPKvPKNS_17__class_type_infoES2_
                0x00000000080742a4        0x0 /opt/devkitpro/devkitARM/bin/../lib/gcc/arm-none-eabi/4.9.2/../../../../arm-none-eabi/lib/libstdc++.a(si_class_type_info.o)
 .ARM.extab.text._ZNK10__cxxabiv120__si_class_type_info12__do_dyncastEiNS_17__class_type_info10__sub_kindEPKS1_PKvS4_S6_RNS1_16__dyncast_resultE
                0x00000000080742a4        0x0 /opt/devkitpro/devkitARM/bin/../lib/gcc/arm-none-eabi/4.9.2/../../../../arm-none-eabi/lib/libstdc++.a(si_class_type_info.o)
 .ARM.extab.text._ZNK10__cxxabiv120__si_class_type_info11__do_upcastEPKNS_17__class_type_infoEPKvRNS1_15__upcast_resultE
                0x00000000080742a4        0x0 /opt/devkitpro/devkitARM/bin/../lib/gcc/arm-none-eabi/4.9.2/../../../../arm-none-eabi/lib/libstdc++.a(si_class_type_info.o)
 .ARM.extab.text._ZNSt9type_infoD2Ev
                0x00000000080742a4        0x0 /opt/devkitpro/devkitARM/bin/../lib/gcc/arm-none-eabi/4.9.2/../../../../arm-none-eabi/lib/libstdc++.a(tinfo.o)
 .ARM.extab.text._ZNKSt9type_info14__is_pointer_pEv
                0x00000000080742a4        0x0 /opt/devkitpro/devkitARM/bin/../lib/gcc/arm-none-eabi/4.9.2/../../../../arm-none-eabi/lib/libstdc++.a(tinfo.o)
 .ARM.extab.text._ZNKSt9type_info15__is_function_pEv
                0x00000000080742a4        0x0 /opt/devkitpro/devkitARM/bin/../lib/gcc/arm-none-eabi/4.9.2/../../../../arm-none-eabi/lib/libstdc++.a(tinfo.o)
 .ARM.extab.text._ZNKSt9type_info11__do_upcastEPKN10__cxxabiv117__class_type_infoEPPv
                0x00000000080742a4        0x0 /opt/devkitpro/devkitARM/bin/../lib/gcc/arm-none-eabi/4.9.2/../../../../arm-none-eabi/lib/libstdc++.a(tinfo.o)
 .ARM.extab.text._ZNSt9type_infoD0Ev
                0x00000000080742a4        0x0 /opt/devkitpro/devkitARM/bin/../lib/gcc/arm-none-eabi/4.9.2/../../../../arm-none-eabi/lib/libstdc++.a(tinfo.o)
 .ARM.extab.text._ZNKSt9type_infoeqERKS_
                0x00000000080742a4        0x0 /opt/devkitpro/devkitARM/bin/../lib/gcc/arm-none-eabi/4.9.2/../../../../arm-none-eabi/lib/libstdc++.a(tinfo.o)
 .ARM.extab.text._ZNKSt9type_info10__do_catchEPKS_PPvj
                0x00000000080742a4        0x0 /opt/devkitpro/devkitARM/bin/../lib/gcc/arm-none-eabi/4.9.2/../../../../arm-none-eabi/lib/libstdc++.a(tinfo.o)
 .ARM.extab.text._Znwj
                0x00000000080742a4        0x0 /opt/devkitpro/devkitARM/bin/../lib/gcc/arm-none-eabi/4.9.2/../../../../arm-none-eabi/lib/libstdc++.a(new_op.o)
 .ARM.extab.text._ZSt15set_new_handlerPFvvE
                0x00000000080742a4        0x0 /opt/devkitpro/devkitARM/bin/../lib/gcc/arm-none-eabi/4.9.2/../../../../arm-none-eabi/lib/libstdc++.a(new_handler.o)
 .ARM.extab.text._ZSt15get_new_handlerv
                0x00000000080742a4        0x0 /opt/devkitpro/devkitARM/bin/../lib/gcc/arm-none-eabi/4.9.2/../../../../arm-none-eabi/lib/libstdc++.a(new_handler.o)
 .ARM.extab.text._ZNK10__cxxabiv117__class_type_info11__do_upcastEPKS0_PPv
                0x00000000080742a4        0x0 /opt/devkitpro/devkitARM/bin/../lib/gcc/arm-none-eabi/4.9.2/../../../../arm-none-eabi/lib/libstdc++.a(class_type_info.o)
 .ARM.extab.text._ZNK10__cxxabiv117__class_type_info20__do_find_public_srcEiPKvPKS0_S2_
                0x00000000080742a4        0x0 /opt/devkitpro/devkitARM/bin/../lib/gcc/arm-none-eabi/4.9.2/../../../../arm-none-eabi/lib/libstdc++.a(class_type_info.o)
 .ARM.extab.text._ZN10__cxxabiv117__class_type_infoD2Ev
                0x00000000080742a4        0x0 /opt/devkitpro/devkitARM/bin/../lib/gcc/arm-none-eabi/4.9.2/../../../../arm-none-eabi/lib/libstdc++.a(class_type_info.o)
 .ARM.extab.text._ZN10__cxxabiv117__class_type_infoD0Ev
                0x00000000080742a4        0x0 /opt/devkitpro/devkitARM/bin/../lib/gcc/arm-none-eabi/4.9.2/../../../../arm-none-eabi/lib/libstdc++.a(class_type_info.o)
 .ARM.extab.text._ZNK10__cxxabiv117__class_type_info11__do_upcastEPKS0_PKvRNS0_15__upcast_resultE
                0x00000000080742a4        0x0 /opt/devkitpro/devkitARM/bin/../lib/gcc/arm-none-eabi/4.9.2/../../../../arm-none-eabi/lib/libstdc++.a(class_type_info.o)
 .ARM.extab.text._ZNK10__cxxabiv117__class_type_info10__do_catchEPKSt9type_infoPPvj
                0x00000000080742a4        0x0 /opt/devkitpro/devkitARM/bin/../lib/gcc/arm-none-eabi/4.9.2/../../../../arm-none-eabi/lib/libstdc++.a(class_type_info.o)
 .ARM.extab.text._ZNK10__cxxabiv117__class_type_info12__do_dyncastEiNS0_10__sub_kindEPKS0_PKvS3_S5_RNS0_16__dyncast_resultE
                0x00000000080742a4        0x0 /opt/devkitpro/devkitARM/bin/../lib/gcc/arm-none-eabi/4.9.2/../../../../arm-none-eabi/lib/libstdc++.a(class_type_info.o)
 .ARM.extab.text._ZNKSt9bad_alloc4whatEv
                0x00000000080742a4        0x0 /opt/devkitpro/devkitARM/bin/../lib/gcc/arm-none-eabi/4.9.2/../../../../arm-none-eabi/lib/libstdc++.a(bad_alloc.o)
 .ARM.extab.text._ZNSt9bad_allocD2Ev
                0x00000000080742a4        0x0 /opt/devkitpro/devkitARM/bin/../lib/gcc/arm-none-eabi/4.9.2/../../../../arm-none-eabi/lib/libstdc++.a(bad_alloc.o)
 .ARM.extab.text._ZNSt9bad_allocD0Ev
                0x00000000080742a4        0x0 /opt/devkitpro/devkitARM/bin/../lib/gcc/arm-none-eabi/4.9.2/../../../../arm-none-eabi/lib/libstdc++.a(bad_alloc.o)
 .ARM.extab.text._ZL23__gxx_exception_cleanup19_Unwind_Reason_CodeP21_Unwind_Control_Block
                0x00000000080742a4        0x0 /opt/devkitpro/devkitARM/bin/../lib/gcc/arm-none-eabi/4.9.2/../../../../arm-none-eabi/lib/libstdc++.a(eh_throw.o)
 .ARM.extab.text.__cxa_throw
                0x00000000080742a4        0x0 /opt/devkitpro/devkitARM/bin/../lib/gcc/arm-none-eabi/4.9.2/../../../../arm-none-eabi/lib/libstdc++.a(eh_throw.o)
 .ARM.extab.text.__cxa_rethrow
                0x00000000080742a4        0x0 /opt/devkitpro/devkitARM/bin/../lib/gcc/arm-none-eabi/4.9.2/../../../../arm-none-eabi/lib/libstdc++.a(eh_throw.o)
 .ARM.extab.text.__cxa_get_globals_fast
                0x00000000080742a4        0x0 /opt/devkitpro/devkitARM/bin/../lib/gcc/arm-none-eabi/4.9.2/../../../../arm-none-eabi/lib/libstdc++.a(eh_globals.o)
 .ARM.extab.text.__cxa_get_globals
                0x00000000080742a4        0x0 /opt/devkitpro/devkitARM/bin/../lib/gcc/arm-none-eabi/4.9.2/../../../../arm-none-eabi/lib/libstdc++.a(eh_globals.o)
 .ARM.extab.text.__cxa_get_exception_ptr
                0x00000000080742a4        0x0 /opt/devkitpro/devkitARM/bin/../lib/gcc/arm-none-eabi/4.9.2/../../../../arm-none-eabi/lib/libstdc++.a(eh_catch.o)
 .ARM.extab.text.__cxa_begin_catch
                0x00000000080742a4       0x20 /opt/devkitpro/devkitARM/bin/../lib/gcc/arm-none-eabi/4.9.2/../../../../arm-none-eabi/lib/libstdc++.a(eh_catch.o)
 .ARM.extab.text.__cxa_end_catch
                0x00000000080742c4        0xc /opt/devkitpro/devkitARM/bin/../lib/gcc/arm-none-eabi/4.9.2/../../../../arm-none-eabi/lib/libstdc++.a(eh_catch.o)
 .ARM.extab.text._ZSt18uncaught_exceptionv
                0x00000000080742d0        0x0 /opt/devkitpro/devkitARM/bin/../lib/gcc/arm-none-eabi/4.9.2/../../../../arm-none-eabi/lib/libstdc++.a(eh_catch.o)
 .ARM.extab.text.__cxa_allocate_exception
                0x00000000080742d0        0x0 /opt/devkitpro/devkitARM/bin/../lib/gcc/arm-none-eabi/4.9.2/../../../../arm-none-eabi/lib/libstdc++.a(eh_alloc.o)
 .ARM.extab.text.__cxa_free_exception
                0x00000000080742d0        0x0 /opt/devkitpro/devkitARM/bin/../lib/gcc/arm-none-eabi/4.9.2/../../../../arm-none-eabi/lib/libstdc++.a(eh_alloc.o)
 .ARM.extab.text.__cxa_allocate_dependent_exception
                0x00000000080742d0        0x0 /opt/devkitpro/devkitARM/bin/../lib/gcc/arm-none-eabi/4.9.2/../../../../arm-none-eabi/lib/libstdc++.a(eh_alloc.o)
 .ARM.extab.text.__cxa_free_dependent_exception
                0x00000000080742d0        0x0 /opt/devkitpro/devkitARM/bin/../lib/gcc/arm-none-eabi/4.9.2/../../../../arm-none-eabi/lib/libstdc++.a(eh_alloc.o)
 .ARM.extab.text._ZNSt9exceptionD2Ev
                0x00000000080742d0        0x0 /opt/devkitpro/devkitARM/bin/../lib/gcc/arm-none-eabi/4.9.2/../../../../arm-none-eabi/lib/libstdc++.a(eh_exception.o)
 .ARM.extab.text._ZNSt13bad_exceptionD2Ev
                0x00000000080742d0        0x0 /opt/devkitpro/devkitARM/bin/../lib/gcc/arm-none-eabi/4.9.2/../../../../arm-none-eabi/lib/libstdc++.a(eh_exception.o)
 .ARM.extab.text._ZNKSt9exception4whatEv
                0x00000000080742d0        0x0 /opt/devkitpro/devkitARM/bin/../lib/gcc/arm-none-eabi/4.9.2/../../../../arm-none-eabi/lib/libstdc++.a(eh_exception.o)
 .ARM.extab.text._ZNKSt13bad_exception4whatEv
                0x00000000080742d0        0x0 /opt/devkitpro/devkitARM/bin/../lib/gcc/arm-none-eabi/4.9.2/../../../../arm-none-eabi/lib/libstdc++.a(eh_exception.o)
 .ARM.extab.text._ZNSt9exceptionD0Ev
                0x00000000080742d0        0x0 /opt/devkitpro/devkitARM/bin/../lib/gcc/arm-none-eabi/4.9.2/../../../../arm-none-eabi/lib/libstdc++.a(eh_exception.o)
 .ARM.extab.text._ZNSt13bad_exceptionD0Ev
                0x00000000080742d0        0x0 /opt/devkitpro/devkitARM/bin/../lib/gcc/arm-none-eabi/4.9.2/../../../../arm-none-eabi/lib/libstdc++.a(eh_exception.o)
 .ARM.extab.text._ZN10__cxxabiv115__forced_unwindD2Ev
                0x00000000080742d0        0x0 /opt/devkitpro/devkitARM/bin/../lib/gcc/arm-none-eabi/4.9.2/../../../../arm-none-eabi/lib/libstdc++.a(eh_exception.o)
 .ARM.extab.text._ZN10__cxxabiv115__forced_unwindD0Ev
                0x00000000080742d0        0x0 /opt/devkitpro/devkitARM/bin/../lib/gcc/arm-none-eabi/4.9.2/../../../../arm-none-eabi/lib/libstdc++.a(eh_exception.o)
 .ARM.extab.text._ZN10__cxxabiv119__foreign_exceptionD2Ev
                0x00000000080742d0        0x0 /opt/devkitpro/devkitARM/bin/../lib/gcc/arm-none-eabi/4.9.2/../../../../arm-none-eabi/lib/libstdc++.a(eh_exception.o)
 .ARM.extab.text._ZN10__cxxabiv119__foreign_exceptionD0Ev
                0x00000000080742d0        0x0 /opt/devkitpro/devkitARM/bin/../lib/gcc/arm-none-eabi/4.9.2/../../../../arm-none-eabi/lib/libstdc++.a(eh_exception.o)
 .ARM.extab.text._ZN10__cxxabiv111__terminateEPFvvE
                0x00000000080742d0       0x2c /opt/devkitpro/devkitARM/bin/../lib/gcc/arm-none-eabi/4.9.2/../../../../arm-none-eabi/lib/libstdc++.a(eh_terminate.o)
 .ARM.extab.text._ZSt9terminatev
                0x00000000080742fc        0x0 /opt/devkitpro/devkitARM/bin/../lib/gcc/arm-none-eabi/4.9.2/../../../../arm-none-eabi/lib/libstdc++.a(eh_terminate.o)
 .ARM.extab.text._ZN10__cxxabiv112__unexpectedEPFvvE
                0x00000000080742fc        0xc /opt/devkitpro/devkitARM/bin/../lib/gcc/arm-none-eabi/4.9.2/../../../../arm-none-eabi/lib/libstdc++.a(eh_terminate.o)
 .ARM.extab.text._ZSt10unexpectedv
                0x0000000008074308        0xc /opt/devkitpro/devkitARM/bin/../lib/gcc/arm-none-eabi/4.9.2/../../../../arm-none-eabi/lib/libstdc++.a(eh_terminate.o)
 .ARM.extab.text._ZSt13set_terminatePFvvE
                0x0000000008074314        0x0 /opt/devkitpro/devkitARM/bin/../lib/gcc/arm-none-eabi/4.9.2/../../../../arm-none-eabi/lib/libstdc++.a(eh_terminate.o)
 .ARM.extab.text._ZSt13get_terminatev
                0x0000000008074314        0x0 /opt/devkitpro/devkitARM/bin/../lib/gcc/arm-none-eabi/4.9.2/../../../../arm-none-eabi/lib/libstdc++.a(eh_terminate.o)
 .ARM.extab.text._ZSt14set_unexpectedPFvvE
                0x0000000008074314        0x0 /opt/devkitpro/devkitARM/bin/../lib/gcc/arm-none-eabi/4.9.2/../../../../arm-none-eabi/lib/libstdc++.a(eh_terminate.o)
 .ARM.extab.text._ZSt14get_unexpectedv
                0x0000000008074314        0x0 /opt/devkitpro/devkitARM/bin/../lib/gcc/arm-none-eabi/4.9.2/../../../../arm-none-eabi/lib/libstdc++.a(eh_terminate.o)
 .ARM.extab.text._ZN10__cxxabiv1L24__is_gxx_exception_classEPc
                0x0000000008074314        0x0 /opt/devkitpro/devkitARM/bin/../lib/gcc/arm-none-eabi/4.9.2/../../../../arm-none-eabi/lib/libstdc++.a(eh_call.o)
 .ARM.extab.text.__cxa_call_terminate
                0x0000000008074314        0x0 /opt/devkitpro/devkitARM/bin/../lib/gcc/arm-none-eabi/4.9.2/../../../../arm-none-eabi/lib/libstdc++.a(eh_call.o)
 .ARM.extab.text.__cxa_call_unexpected
                0x0000000008074314       0x28 /opt/devkitpro/devkitARM/bin/../lib/gcc/arm-none-eabi/4.9.2/../../../../arm-none-eabi/lib/libstdc++.a(eh_call.o)
 .ARM.extab.text._ZL12read_sleb128PKhPl
                0x000000000807433c        0x0 /opt/devkitpro/devkitARM/bin/../lib/gcc/arm-none-eabi/4.9.2/../../../../arm-none-eabi/lib/libstdc++.a(eh_personality.o)
 .ARM.extab.text._ZL28read_encoded_value_with_basehjPKhPj
                0x000000000807433c        0x0 /opt/devkitpro/devkitARM/bin/../lib/gcc/arm-none-eabi/4.9.2/../../../../arm-none-eabi/lib/libstdc++.a(eh_personality.o)
 .ARM.extab.text._ZL21base_of_encoded_valuehP15_Unwind_Context
                0x000000000807433c        0xc /opt/devkitpro/devkitARM/bin/../lib/gcc/arm-none-eabi/4.9.2/../../../../arm-none-eabi/lib/libstdc++.a(eh_personality.o)
 .ARM.extab.text._ZL17parse_lsda_headerP15_Unwind_ContextPKhP16lsda_header_info
                0x0000000008074348        0x0 /opt/devkitpro/devkitARM/bin/../lib/gcc/arm-none-eabi/4.9.2/../../../../arm-none-eabi/lib/libstdc++.a(eh_personality.o)
 .ARM.extab.text.__gxx_personality_v0
                0x0000000008074348       0x24 /opt/devkitpro/devkitARM/bin/../lib/gcc/arm-none-eabi/4.9.2/../../../../arm-none-eabi/lib/libstdc++.a(eh_personality.o)
 .ARM.extab.text.__cxa_type_match
                0x000000000807436c        0x0 /opt/devkitpro/devkitARM/bin/../lib/gcc/arm-none-eabi/4.9.2/../../../../arm-none-eabi/lib/libstdc++.a(eh_arm.o)
 .ARM.extab.text.__cxa_begin_cleanup
                0x000000000807436c        0x0 /opt/devkitpro/devkitARM/bin/../lib/gcc/arm-none-eabi/4.9.2/../../../../arm-none-eabi/lib/libstdc++.a(eh_arm.o)
 .ARM.extab.text.__gnu_end_cleanup
                0x000000000807436c        0x0 /opt/devkitpro/devkitARM/bin/../lib/gcc/arm-none-eabi/4.9.2/../../../../arm-none-eabi/lib/libstdc++.a(eh_arm.o)
 .ARM.extab.text._ZN9__gnu_cxx27__verbose_terminate_handlerEv
                0x000000000807436c       0x34 /opt/devkitpro/devkitARM/bin/../lib/gcc/arm-none-eabi/4.9.2/../../../../arm-none-eabi/lib/libstdc++.a(vterminate.o)
 .ARM.extab.text.__cxa_pure_virtual
                0x00000000080743a0        0xc /opt/devkitpro/devkitARM/bin/../lib/gcc/arm-none-eabi/4.9.2/../../../../arm-none-eabi/lib/libstdc++.a(pure.o)
 .ARM.extab.text.__cxa_deleted_virtual
                0x00000000080743ac        0xc /opt/devkitpro/devkitARM/bin/../lib/gcc/arm-none-eabi/4.9.2/../../../../arm-none-eabi/lib/libstdc++.a(pure.o)
 .ARM.extab.text.__cxa_current_exception_type
                0x00000000080743b8        0x0 /opt/devkitpro/devkitARM/bin/../lib/gcc/arm-none-eabi/4.9.2/../../../../arm-none-eabi/lib/libstdc++.a(eh_type.o)
                0x00000000080743b8                __exidx_start = .

.ARM.exidx      0x00000000080743b8      0x338
 *(.ARM.exidx* .gnu.linkonce.armexidx.*)
 .ARM.exidx     0x0000000008074508        0x0 /opt/devkitpro/devkitARM/bin/../lib/gcc/arm-none-eabi/4.9.2/../../../../arm-none-eabi/lib/crt0.o
                                          0x8 (size before relaxing)
 .ARM.exidx.text._ZNSt5arrayISt12forward_listI23sprite_init_param_groupSaIS1_EELj512EED2Ev
                0x0000000008074508        0x0 objs/active_level_class.thumb.o
                                          0x8 (size before relaxing)
 .ARM.exidx.text.startup
                0x0000000008074508        0x0 objs/active_level_class.thumb.o
                                          0x8 (size before relaxing)
 .ARM.exidx.iwram_code
                0x00000000080743b8       0x20 objs/active_level_manager_class.arm.o
                                         0x28 (size before relaxing)
 .ARM.exidx.iwram_code
                0x00000000080743d8        0x8 objs/air_block_stuff_class.thumb.o
                                         0x20 (size before relaxing)
 .ARM.exidx.iwram_code
                0x00000000080743e0        0x0 objs/block_base_stuff_class.thumb.o
                                         0x20 (size before relaxing)
 .ARM.exidx.text._ZN24grass_single_block_stuff19get_metatile_numberEv
                0x0000000008074508        0x0 objs/block_stuff.thumb.o
                                          0x8 (size before relaxing)
 .ARM.exidx.text._ZN24grass_single_block_stuff18get_palette_numberEv
                0x0000000008074508        0x0 objs/block_stuff.thumb.o
                                          0x8 (size before relaxing)
 .ARM.exidx.text._ZN24grass_single_block_stuff26get_metatile_graphics_slotEv
                0x0000000008074508        0x0 objs/block_stuff.thumb.o
                                          0x8 (size before relaxing)
 .ARM.exidx.text._ZN26grass_top_left_block_stuff19get_metatile_numberEv
                0x0000000008074508        0x0 objs/block_stuff.thumb.o
                                          0x8 (size before relaxing)
 .ARM.exidx.text._ZN26grass_top_left_block_stuff18get_palette_numberEv
                0x0000000008074508        0x0 objs/block_stuff.thumb.o
                                          0x8 (size before relaxing)
 .ARM.exidx.text._ZN26grass_top_left_block_stuff26get_metatile_graphics_slotEv
                0x0000000008074508        0x0 objs/block_stuff.thumb.o
                                          0x8 (size before relaxing)
 .ARM.exidx.text._ZN28grass_top_middle_block_stuff19get_metatile_numberEv
                0x0000000008074508        0x0 objs/block_stuff.thumb.o
                                          0x8 (size before relaxing)
 .ARM.exidx.text._ZN28grass_top_middle_block_stuff18get_palette_numberEv
                0x0000000008074508        0x0 objs/block_stuff.thumb.o
                                          0x8 (size before relaxing)
 .ARM.exidx.text._ZN28grass_top_middle_block_stuff26get_metatile_graphics_slotEv
                0x0000000008074508        0x0 objs/block_stuff.thumb.o
                                          0x8 (size before relaxing)
 .ARM.exidx.text._ZN27grass_top_right_block_stuff19get_metatile_numberEv
                0x0000000008074508        0x0 objs/block_stuff.thumb.o
                                          0x8 (size before relaxing)
 .ARM.exidx.text._ZN27grass_top_right_block_stuff18get_palette_numberEv
                0x0000000008074508        0x0 objs/block_stuff.thumb.o
                                          0x8 (size before relaxing)
 .ARM.exidx.text._ZN27grass_top_right_block_stuff26get_metatile_graphics_slotEv
                0x0000000008074508        0x0 objs/block_stuff.thumb.o
                                          0x8 (size before relaxing)
 .ARM.exidx.text._ZN28dirt_middle_left_block_stuff19get_metatile_numberEv
                0x0000000008074508        0x0 objs/block_stuff.thumb.o
                                          0x8 (size before relaxing)
 .ARM.exidx.text._ZN28dirt_middle_left_block_stuff18get_palette_numberEv
                0x0000000008074508        0x0 objs/block_stuff.thumb.o
                                          0x8 (size before relaxing)
 .ARM.exidx.text._ZN28dirt_middle_left_block_stuff26get_metatile_graphics_slotEv
                0x0000000008074508        0x0 objs/block_stuff.thumb.o
                                          0x8 (size before relaxing)
 .ARM.exidx.text._ZN30dirt_middle_middle_block_stuff19get_metatile_numberEv
                0x0000000008074508        0x0 objs/block_stuff.thumb.o
                                          0x8 (size before relaxing)
 .ARM.exidx.text._ZN30dirt_middle_middle_block_stuff18get_palette_numberEv
                0x0000000008074508        0x0 objs/block_stuff.thumb.o
                                          0x8 (size before relaxing)
 .ARM.exidx.text._ZN30dirt_middle_middle_block_stuff26get_metatile_graphics_slotEv
                0x0000000008074508        0x0 objs/block_stuff.thumb.o
                                          0x8 (size before relaxing)
 .ARM.exidx.text._ZN29dirt_middle_right_block_stuff19get_metatile_numberEv
                0x0000000008074508        0x0 objs/block_stuff.thumb.o
                                          0x8 (size before relaxing)
 .ARM.exidx.text._ZN29dirt_middle_right_block_stuff18get_palette_numberEv
                0x0000000008074508        0x0 objs/block_stuff.thumb.o
                                          0x8 (size before relaxing)
 .ARM.exidx.text._ZN29dirt_middle_right_block_stuff26get_metatile_graphics_slotEv
                0x0000000008074508        0x0 objs/block_stuff.thumb.o
                                          0x8 (size before relaxing)
 .ARM.exidx.text._ZN28dirt_bottom_left_block_stuff19get_metatile_numberEv
                0x0000000008074508        0x0 objs/block_stuff.thumb.o
                                          0x8 (size before relaxing)
 .ARM.exidx.text._ZN28dirt_bottom_left_block_stuff18get_palette_numberEv
                0x0000000008074508        0x0 objs/block_stuff.thumb.o
                                          0x8 (size before relaxing)
 .ARM.exidx.text._ZN28dirt_bottom_left_block_stuff26get_metatile_graphics_slotEv
                0x0000000008074508        0x0 objs/block_stuff.thumb.o
                                          0x8 (size before relaxing)
 .ARM.exidx.text._ZN30dirt_bottom_middle_block_stuff19get_metatile_numberEv
                0x0000000008074508        0x0 objs/block_stuff.thumb.o
                                          0x8 (size before relaxing)
 .ARM.exidx.text._ZN30dirt_bottom_middle_block_stuff18get_palette_numberEv
                0x0000000008074508        0x0 objs/block_stuff.thumb.o
                                          0x8 (size before relaxing)
 .ARM.exidx.text._ZN30dirt_bottom_middle_block_stuff26get_metatile_graphics_slotEv
                0x0000000008074508        0x0 objs/block_stuff.thumb.o
                                          0x8 (size before relaxing)
 .ARM.exidx.text._ZN29dirt_bottom_right_block_stuff19get_metatile_numberEv
                0x0000000008074508        0x0 objs/block_stuff.thumb.o
                                          0x8 (size before relaxing)
 .ARM.exidx.text._ZN29dirt_bottom_right_block_stuff18get_palette_numberEv
                0x0000000008074508        0x0 objs/block_stuff.thumb.o
                                          0x8 (size before relaxing)
 .ARM.exidx.text._ZN29dirt_bottom_right_block_stuff26get_metatile_graphics_slotEv
                0x0000000008074508        0x0 objs/block_stuff.thumb.o
                                          0x8 (size before relaxing)
 .ARM.exidx.text._ZN31grass_slope_p16_p16_block_stuff19get_metatile_numberEv
                0x0000000008074508        0x0 objs/block_stuff.thumb.o
                                          0x8 (size before relaxing)
 .ARM.exidx.text._ZN31grass_slope_p16_p16_block_stuff18get_palette_numberEv
                0x0000000008074508        0x0 objs/block_stuff.thumb.o
                                          0x8 (size before relaxing)
 .ARM.exidx.text._ZN31grass_slope_p16_p16_block_stuff26get_metatile_graphics_slotEv
                0x0000000008074508        0x0 objs/block_stuff.thumb.o
                                          0x8 (size before relaxing)
 .ARM.exidx.text._ZN31grass_slope_n16_p16_block_stuff19get_metatile_numberEv
                0x0000000008074508        0x0 objs/block_stuff.thumb.o
                                          0x8 (size before relaxing)
 .ARM.exidx.text._ZN31grass_slope_n16_p16_block_stuff18get_palette_numberEv
                0x0000000008074508        0x0 objs/block_stuff.thumb.o
                                          0x8 (size before relaxing)
 .ARM.exidx.text._ZN31grass_slope_n16_p16_block_stuff26get_metatile_graphics_slotEv
                0x0000000008074508        0x0 objs/block_stuff.thumb.o
                                          0x8 (size before relaxing)
 .ARM.exidx.text._ZN37grass_slope_p32_p16_short_block_stuff19get_metatile_numberEv
                0x0000000008074508        0x0 objs/block_stuff.thumb.o
                                          0x8 (size before relaxing)
 .ARM.exidx.text._ZN37grass_slope_p32_p16_short_block_stuff18get_palette_numberEv
                0x0000000008074508        0x0 objs/block_stuff.thumb.o
                                          0x8 (size before relaxing)
 .ARM.exidx.text._ZN37grass_slope_p32_p16_short_block_stuff26get_metatile_graphics_slotEv
                0x0000000008074508        0x0 objs/block_stuff.thumb.o
                                          0x8 (size before relaxing)
 .ARM.exidx.text._ZN36grass_slope_p32_p16_tall_block_stuff19get_metatile_numberEv
                0x0000000008074508        0x0 objs/block_stuff.thumb.o
                                          0x8 (size before relaxing)
 .ARM.exidx.text._ZN36grass_slope_p32_p16_tall_block_stuff18get_palette_numberEv
                0x0000000008074508        0x0 objs/block_stuff.thumb.o
                                          0x8 (size before relaxing)
 .ARM.exidx.text._ZN36grass_slope_p32_p16_tall_block_stuff26get_metatile_graphics_slotEv
                0x0000000008074508        0x0 objs/block_stuff.thumb.o
                                          0x8 (size before relaxing)
 .ARM.exidx.text._ZN36grass_slope_n32_p16_tall_block_stuff19get_metatile_numberEv
                0x0000000008074508        0x0 objs/block_stuff.thumb.o
                                          0x8 (size before relaxing)
 .ARM.exidx.text._ZN36grass_slope_n32_p16_tall_block_stuff18get_palette_numberEv
                0x0000000008074508        0x0 objs/block_stuff.thumb.o
                                          0x8 (size before relaxing)
 .ARM.exidx.text._ZN36grass_slope_n32_p16_tall_block_stuff26get_metatile_graphics_slotEv
                0x0000000008074508        0x0 objs/block_stuff.thumb.o
                                          0x8 (size before relaxing)
 .ARM.exidx.text._ZN37grass_slope_n32_p16_short_block_stuff19get_metatile_numberEv
                0x0000000008074508        0x0 objs/block_stuff.thumb.o
                                          0x8 (size before relaxing)
 .ARM.exidx.text._ZN37grass_slope_n32_p16_short_block_stuff18get_palette_numberEv
                0x0000000008074508        0x0 objs/block_stuff.thumb.o
                                          0x8 (size before relaxing)
 .ARM.exidx.text._ZN37grass_slope_n32_p16_short_block_stuff26get_metatile_graphics_slotEv
                0x0000000008074508        0x0 objs/block_stuff.thumb.o
                                          0x8 (size before relaxing)
 .ARM.exidx.text._ZN31grass_in_slope_left_block_stuff19get_metatile_numberEv
                0x0000000008074508        0x0 objs/block_stuff.thumb.o
                                          0x8 (size before relaxing)
 .ARM.exidx.text._ZN31grass_in_slope_left_block_stuff18get_palette_numberEv
                0x0000000008074508        0x0 objs/block_stuff.thumb.o
                                          0x8 (size before relaxing)
 .ARM.exidx.text._ZN31grass_in_slope_left_block_stuff26get_metatile_graphics_slotEv
                0x0000000008074508        0x0 objs/block_stuff.thumb.o
                                          0x8 (size before relaxing)
 .ARM.exidx.text._ZN32grass_in_slope_right_block_stuff19get_metatile_numberEv
                0x0000000008074508        0x0 objs/block_stuff.thumb.o
                                          0x8 (size before relaxing)
 .ARM.exidx.text._ZN32grass_in_slope_right_block_stuff18get_palette_numberEv
                0x0000000008074508        0x0 objs/block_stuff.thumb.o
                                          0x8 (size before relaxing)
 .ARM.exidx.text._ZN32grass_in_slope_right_block_stuff26get_metatile_graphics_slotEv
                0x0000000008074508        0x0 objs/block_stuff.thumb.o
                                          0x8 (size before relaxing)
 .ARM.exidx.iwram_code
                0x00000000080743e0        0x8 objs/block_stuff.thumb.o
 .ARM.exidx.text.startup
                0x0000000008074508        0x0 objs/block_stuff.thumb.o
                                          0x8 (size before relaxing)
 .ARM.exidx     0x0000000008074508        0x0 objs/button_stuff.thumb.o
                                          0x8 (size before relaxing)
 .ARM.exidx.iwram_code
                0x00000000080743e8        0x8 objs/coll_box_class.arm.o
                                         0x10 (size before relaxing)
 .ARM.exidx.iwram_code
                0x00000000080743f0        0x0 objs/coll_box_class.thumb.o
                                          0x8 (size before relaxing)
 .ARM.exidx     0x0000000008074508        0x0 objs/coll_box_class.thumb.o
                                         0x18 (size before relaxing)
 .ARM.exidx.iwram_code
                0x00000000080743f0        0x0 objs/coll_point_group_class.thumb.o
                                         0x18 (size before relaxing)
 .ARM.exidx.iwram_code
                0x00000000080743f0        0x8 objs/debug_vars.thumb.o
 .ARM.exidx.iwram_code
                0x00000000080743f8        0x8 objs/division_funcs.o
 .ARM.exidx     0x0000000008074508        0x0 objs/dma_stuff.thumb.o
                                         0x18 (size before relaxing)
 .ARM.exidx.iwram_code
                0x0000000008074400        0x8 objs/dud_block_stuff_class.thumb.o
                                         0x20 (size before relaxing)
 .ARM.exidx.iwram_code
                0x0000000008074408        0x0 objs/exclam_block_stuff_classes.thumb.o
                                         0x20 (size before relaxing)
 .ARM.exidx.iwram_code
                0x0000000008074408        0x8 objs/eyes_block_stuff_classes.thumb.o
                                         0x48 (size before relaxing)
 .ARM.exidx.iwram_code
                0x0000000008074410        0x8 objs/fixed_classes.thumb.o
 .ARM.exidx.iwram_code
                0x0000000008074418        0x0 objs/interrupt_stuff.arm.o
                                          0x8 (size before relaxing)
 .ARM.exidx.iwram_code
                0x0000000008074418        0x8 objs/interrupt_stuff.thumb.o
 .ARM.exidx     0x0000000008074508        0x0 objs/interrupt_stuff.thumb.o
                                         0x18 (size before relaxing)
 .ARM.exidx.iwram_code
                0x0000000008074420        0x0 objs/log_block_stuff_class.thumb.o
                                         0x20 (size before relaxing)
 .ARM.exidx.iwram_code
                0x0000000008074420       0x10 objs/main.thumb.o
                                          0x8 (size before relaxing)
 .ARM.exidx     0x0000000008074508        0x8 objs/main.thumb.o
 .ARM.exidx.text._Z15reinit_the_gameRi
                0x0000000008074510        0x0 objs/main.thumb.o
                                          0x8 (size before relaxing)
 .ARM.exidx.text.startup
                0x0000000008074510        0x8 objs/main.thumb.o
 .ARM.exidx.iwram_code
                0x0000000008074430        0x8 objs/memory_funcs_8bit.o
                                         0x10 (size before relaxing)
 .ARM.exidx     0x0000000008074518        0x8 objs/oam_entry_classes.thumb.o
                                         0x20 (size before relaxing)
 .ARM.exidx.text._ZNK19player_sprite_stuff15get_sprite_typeEv
                0x0000000008074540        0x8 objs/player_sprite_stuff_class.thumb.o
 .ARM.exidx.text._ZN19player_sprite_stuff16get_gfx_categoryER6sprite
                0x0000000008074548        0x0 objs/player_sprite_stuff_class.thumb.o
                                          0x8 (size before relaxing)
 .ARM.exidx.text._ZN19player_sprite_stuff24get_num_active_gfx_tilesEv
                0x0000000008074548        0x0 objs/player_sprite_stuff_class.thumb.o
                                          0x8 (size before relaxing)
 .ARM.exidx.text._ZNK19player_sprite_stuff12get_tile_arrEv
                0x0000000008074548        0x0 objs/player_sprite_stuff_class.thumb.o
                                          0x8 (size before relaxing)
 .ARM.exidx.iwram_code
                0x0000000008074438       0x30 objs/player_sprite_stuff_class.thumb.o
                                         0x28 (size before relaxing)
 .ARM.exidx     0x0000000008074520       0x20 objs/player_sprite_stuff_class.thumb.o
                                         0x28 (size before relaxing)
 .ARM.exidx.iwram_code
                0x0000000008074468       0x18 objs/sprite_base_stuff_class.arm.o
                                         0xb8 (size before relaxing)
 .ARM.exidx.text._ZNK17sprite_base_stuff12get_tile_arrEv
                0x0000000008074558        0x8 objs/sprite_base_stuff_class.thumb.o
 .ARM.exidx.text._ZN17sprite_base_stuff24get_num_active_gfx_tilesEv
                0x0000000008074560        0x0 objs/sprite_base_stuff_class.thumb.o
                                          0x8 (size before relaxing)
 .ARM.exidx     0x0000000008074548       0x10 objs/sprite_base_stuff_class.thumb.o
                                         0x20 (size before relaxing)
 .ARM.exidx.iwram_code
                0x0000000008074480       0x20 objs/sprite_base_stuff_class.thumb.o
                                         0x48 (size before relaxing)
 .ARM.exidx     0x0000000008074560        0x8 objs/sprite_class.thumb.o
                                         0x18 (size before relaxing)
 .ARM.exidx.iwram_code
                0x00000000080744a0       0x18 objs/sprite_class.thumb.o
                                         0x28 (size before relaxing)
 .ARM.exidx     0x0000000008074568        0x8 objs/sprite_gfx_stuff.thumb.o
 .ARM.exidx.iwram_code
                0x00000000080744b8        0x8 objs/sprite_gfx_stuff.thumb.o
 .ARM.exidx.iwram_code
                0x00000000080744c0       0x20 objs/sprite_manager_class.arm.o
 .ARM.exidx     0x0000000008074570       0x28 objs/sprite_manager_class.thumb.o
 .ARM.exidx.text._ZNSt12forward_listI23sprite_init_param_groupSaIS0_EE4sortISt4lessIS0_EEEvT_
                0x0000000008074598        0x8 objs/sprite_manager_class.thumb.o
 .ARM.exidx.text.startup
                0x00000000080745a0        0x0 objs/sprite_manager_class.thumb.o
                                          0x8 (size before relaxing)
 .ARM.exidx.text._ZNK19muffin_sprite_stuff15get_sprite_typeEv
                0x00000000080745a0        0x0 objs/sprite_type_stuff.thumb.o
                                          0x8 (size before relaxing)
 .ARM.exidx.text._ZN19muffin_sprite_stuff16get_gfx_categoryER6sprite
                0x00000000080745a0        0x0 objs/sprite_type_stuff.thumb.o
                                          0x8 (size before relaxing)
 .ARM.exidx.text._ZN19muffin_sprite_stuff27get_curr_relative_tile_slotER6sprite
                0x00000000080745a0        0x0 objs/sprite_type_stuff.thumb.o
                                          0x8 (size before relaxing)
 .ARM.exidx.text._ZN19muffin_sprite_stuff24get_num_active_gfx_tilesEv
                0x00000000080745a0        0x0 objs/sprite_type_stuff.thumb.o
                                          0x8 (size before relaxing)
 .ARM.exidx.text._ZNK19muffin_sprite_stuff12get_tile_arrEv
                0x00000000080745a0        0x0 objs/sprite_type_stuff.thumb.o
                                          0x8 (size before relaxing)
 .ARM.exidx.text._ZNK24fire_muffin_sprite_stuff15get_sprite_typeEv
                0x00000000080745a0        0x0 objs/sprite_type_stuff.thumb.o
                                          0x8 (size before relaxing)
 .ARM.exidx.text._ZN24fire_muffin_sprite_stuff16get_gfx_categoryER6sprite
                0x00000000080745a0        0x0 objs/sprite_type_stuff.thumb.o
                                          0x8 (size before relaxing)
 .ARM.exidx.text._ZN24fire_muffin_sprite_stuff27get_curr_relative_tile_slotER6sprite
                0x00000000080745a0        0x0 objs/sprite_type_stuff.thumb.o
                                          0x8 (size before relaxing)
 .ARM.exidx.text._ZN24fire_muffin_sprite_stuff24get_num_active_gfx_tilesEv
                0x00000000080745a0        0x0 objs/sprite_type_stuff.thumb.o
                                          0x8 (size before relaxing)
 .ARM.exidx.text._ZNK24fire_muffin_sprite_stuff12get_tile_arrEv
                0x00000000080745a0        0x0 objs/sprite_type_stuff.thumb.o
                                          0x8 (size before relaxing)
 .ARM.exidx.text._ZNK23ice_muffin_sprite_stuff15get_sprite_typeEv
                0x00000000080745a0        0x0 objs/sprite_type_stuff.thumb.o
                                          0x8 (size before relaxing)
 .ARM.exidx.text._ZN23ice_muffin_sprite_stuff16get_gfx_categoryER6sprite
                0x00000000080745a0        0x0 objs/sprite_type_stuff.thumb.o
                                          0x8 (size before relaxing)
 .ARM.exidx.text._ZN23ice_muffin_sprite_stuff27get_curr_relative_tile_slotER6sprite
                0x00000000080745a0        0x0 objs/sprite_type_stuff.thumb.o
                                          0x8 (size before relaxing)
 .ARM.exidx.text._ZN23ice_muffin_sprite_stuff24get_num_active_gfx_tilesEv
                0x00000000080745a0        0x0 objs/sprite_type_stuff.thumb.o
                                          0x8 (size before relaxing)
 .ARM.exidx.text._ZNK23ice_muffin_sprite_stuff12get_tile_arrEv
                0x00000000080745a0        0x0 objs/sprite_type_stuff.thumb.o
                                          0x8 (size before relaxing)
 .ARM.exidx.text._ZNK29chocolate_muffin_sprite_stuff15get_sprite_typeEv
                0x00000000080745a0        0x0 objs/sprite_type_stuff.thumb.o
                                          0x8 (size before relaxing)
 .ARM.exidx.text._ZN29chocolate_muffin_sprite_stuff16get_gfx_categoryER6sprite
                0x00000000080745a0        0x0 objs/sprite_type_stuff.thumb.o
                                          0x8 (size before relaxing)
 .ARM.exidx.text._ZN29chocolate_muffin_sprite_stuff27get_curr_relative_tile_slotER6sprite
                0x00000000080745a0        0x0 objs/sprite_type_stuff.thumb.o
                                          0x8 (size before relaxing)
 .ARM.exidx.text._ZN29chocolate_muffin_sprite_stuff24get_num_active_gfx_tilesEv
                0x00000000080745a0        0x0 objs/sprite_type_stuff.thumb.o
                                          0x8 (size before relaxing)
 .ARM.exidx.text._ZNK29chocolate_muffin_sprite_stuff12get_tile_arrEv
                0x00000000080745a0        0x0 objs/sprite_type_stuff.thumb.o
                                          0x8 (size before relaxing)
 .ARM.exidx.text._ZNK23warp_block_sprite_stuff15get_sprite_typeEv
                0x00000000080745a0        0x0 objs/sprite_type_stuff.thumb.o
                                          0x8 (size before relaxing)
 .ARM.exidx.text._ZN23warp_block_sprite_stuff16get_gfx_categoryER6sprite
                0x00000000080745a0        0x0 objs/sprite_type_stuff.thumb.o
                                          0x8 (size before relaxing)
 .ARM.exidx.text._ZN23warp_block_sprite_stuff27get_curr_relative_tile_slotER6sprite
                0x00000000080745a0        0x0 objs/sprite_type_stuff.thumb.o
                                          0x8 (size before relaxing)
 .ARM.exidx.text._ZN23warp_block_sprite_stuff24get_num_active_gfx_tilesEv
                0x00000000080745a0        0x0 objs/sprite_type_stuff.thumb.o
                                          0x8 (size before relaxing)
 .ARM.exidx.text._ZNK23warp_block_sprite_stuff12get_tile_arrEv
                0x00000000080745a0        0x0 objs/sprite_type_stuff.thumb.o
                                          0x8 (size before relaxing)
 .ARM.exidx.text._ZNK19waffle_sprite_stuff15get_sprite_typeEv
                0x00000000080745a0        0x0 objs/waffle_sprite_stuff_class.thumb.o
                                          0x8 (size before relaxing)
 .ARM.exidx.text._ZN19waffle_sprite_stuff16get_gfx_categoryER6sprite
                0x00000000080745a0        0x0 objs/waffle_sprite_stuff_class.thumb.o
                                          0x8 (size before relaxing)
 .ARM.exidx.text._ZN19waffle_sprite_stuff27get_curr_relative_tile_slotER6sprite
                0x00000000080745a0        0x0 objs/waffle_sprite_stuff_class.thumb.o
                                          0x8 (size before relaxing)
 .ARM.exidx.text._ZN19waffle_sprite_stuff24get_num_active_gfx_tilesEv
                0x00000000080745a0        0x0 objs/waffle_sprite_stuff_class.thumb.o
                                          0x8 (size before relaxing)
 .ARM.exidx.text._ZNK19waffle_sprite_stuff12get_tile_arrEv
                0x00000000080745a0        0x0 objs/waffle_sprite_stuff_class.thumb.o
                                          0x8 (size before relaxing)
 .ARM.exidx.text._ZN19waffle_sprite_stuff21block_collision_stuffER6sprite
                0x00000000080745a0       0x10 objs/waffle_sprite_stuff_class.thumb.o
                                          0x8 (size before relaxing)
 .ARM.exidx.iwram_code
                0x00000000080744e0       0x10 objs/waffle_sprite_stuff_class.thumb.o
                                         0x18 (size before relaxing)
 .ARM.exidx.iwram_code
                0x00000000080744f0       0x18 objs/wood_block_stuff_classes.thumb.o
                                         0x50 (size before relaxing)
 .ARM.exidx.text._ZdlPv
                0x00000000080745b0        0x0 /opt/devkitpro/devkitARM/bin/../lib/gcc/arm-none-eabi/4.9.2/../../../../arm-none-eabi/lib/libstdc++.a(del_op.o)
                                          0x8 (size before relaxing)
 .ARM.exidx.text._ZN10__cxxabiv120__si_class_type_infoD2Ev
                0x00000000080745b0        0x8 /opt/devkitpro/devkitARM/bin/../lib/gcc/arm-none-eabi/4.9.2/../../../../arm-none-eabi/lib/libstdc++.a(si_class_type_info.o)
 .ARM.exidx.text._ZN10__cxxabiv120__si_class_type_infoD0Ev
                0x00000000080745b8        0x0 /opt/devkitpro/devkitARM/bin/../lib/gcc/arm-none-eabi/4.9.2/../../../../arm-none-eabi/lib/libstdc++.a(si_class_type_info.o)
                                          0x8 (size before relaxing)
 .ARM.exidx.text._ZNK10__cxxabiv120__si_class_type_info20__do_find_public_srcEiPKvPKNS_17__class_type_infoES2_
                0x00000000080745b8        0x8 /opt/devkitpro/devkitARM/bin/../lib/gcc/arm-none-eabi/4.9.2/../../../../arm-none-eabi/lib/libstdc++.a(si_class_type_info.o)
 .ARM.exidx.text._ZNK10__cxxabiv120__si_class_type_info12__do_dyncastEiNS_17__class_type_info10__sub_kindEPKS1_PKvS4_S6_RNS1_16__dyncast_resultE
                0x00000000080745c0        0x8 /opt/devkitpro/devkitARM/bin/../lib/gcc/arm-none-eabi/4.9.2/../../../../arm-none-eabi/lib/libstdc++.a(si_class_type_info.o)
 .ARM.exidx.text._ZNK10__cxxabiv120__si_class_type_info11__do_upcastEPKNS_17__class_type_infoEPKvRNS1_15__upcast_resultE
                0x00000000080745c8        0x8 /opt/devkitpro/devkitARM/bin/../lib/gcc/arm-none-eabi/4.9.2/../../../../arm-none-eabi/lib/libstdc++.a(si_class_type_info.o)
 .ARM.exidx.text._ZNSt9type_infoD2Ev
                0x00000000080745d0        0x8 /opt/devkitpro/devkitARM/bin/../lib/gcc/arm-none-eabi/4.9.2/../../../../arm-none-eabi/lib/libstdc++.a(tinfo.o)
 .ARM.exidx.text._ZNKSt9type_info14__is_pointer_pEv
                0x00000000080745d8        0x0 /opt/devkitpro/devkitARM/bin/../lib/gcc/arm-none-eabi/4.9.2/../../../../arm-none-eabi/lib/libstdc++.a(tinfo.o)
                                          0x8 (size before relaxing)
 .ARM.exidx.text._ZNKSt9type_info15__is_function_pEv
                0x00000000080745d8        0x0 /opt/devkitpro/devkitARM/bin/../lib/gcc/arm-none-eabi/4.9.2/../../../../arm-none-eabi/lib/libstdc++.a(tinfo.o)
                                          0x8 (size before relaxing)
 .ARM.exidx.text._ZNKSt9type_info11__do_upcastEPKN10__cxxabiv117__class_type_infoEPPv
                0x00000000080745d8        0x0 /opt/devkitpro/devkitARM/bin/../lib/gcc/arm-none-eabi/4.9.2/../../../../arm-none-eabi/lib/libstdc++.a(tinfo.o)
                                          0x8 (size before relaxing)
 .ARM.exidx.text._ZNSt9type_infoD0Ev
                0x00000000080745d8        0x0 /opt/devkitpro/devkitARM/bin/../lib/gcc/arm-none-eabi/4.9.2/../../../../arm-none-eabi/lib/libstdc++.a(tinfo.o)
                                          0x8 (size before relaxing)
 .ARM.exidx.text._ZNKSt9type_infoeqERKS_
                0x00000000080745d8        0x0 /opt/devkitpro/devkitARM/bin/../lib/gcc/arm-none-eabi/4.9.2/../../../../arm-none-eabi/lib/libstdc++.a(tinfo.o)
                                          0x8 (size before relaxing)
 .ARM.exidx.text._ZNKSt9type_info10__do_catchEPKS_PPvj
                0x00000000080745d8        0x0 /opt/devkitpro/devkitARM/bin/../lib/gcc/arm-none-eabi/4.9.2/../../../../arm-none-eabi/lib/libstdc++.a(tinfo.o)
                                          0x8 (size before relaxing)
 .ARM.exidx.text._Znwj
                0x00000000080745d8        0x8 /opt/devkitpro/devkitARM/bin/../lib/gcc/arm-none-eabi/4.9.2/../../../../arm-none-eabi/lib/libstdc++.a(new_op.o)
 .ARM.exidx.text._ZSt15set_new_handlerPFvvE
                0x00000000080745e0        0x8 /opt/devkitpro/devkitARM/bin/../lib/gcc/arm-none-eabi/4.9.2/../../../../arm-none-eabi/lib/libstdc++.a(new_handler.o)
 .ARM.exidx.text._ZSt15get_new_handlerv
                0x00000000080745e8        0x0 /opt/devkitpro/devkitARM/bin/../lib/gcc/arm-none-eabi/4.9.2/../../../../arm-none-eabi/lib/libstdc++.a(new_handler.o)
                                          0x8 (size before relaxing)
 .ARM.exidx.text._ZNK10__cxxabiv117__class_type_info11__do_upcastEPKS0_PPv
                0x00000000080745e8        0x8 /opt/devkitpro/devkitARM/bin/../lib/gcc/arm-none-eabi/4.9.2/../../../../arm-none-eabi/lib/libstdc++.a(class_type_info.o)
 .ARM.exidx.text._ZNK10__cxxabiv117__class_type_info20__do_find_public_srcEiPKvPKS0_S2_
                0x00000000080745f0        0x8 /opt/devkitpro/devkitARM/bin/../lib/gcc/arm-none-eabi/4.9.2/../../../../arm-none-eabi/lib/libstdc++.a(class_type_info.o)
 .ARM.exidx.text._ZN10__cxxabiv117__class_type_infoD2Ev
                0x00000000080745f8        0x8 /opt/devkitpro/devkitARM/bin/../lib/gcc/arm-none-eabi/4.9.2/../../../../arm-none-eabi/lib/libstdc++.a(class_type_info.o)
 .ARM.exidx.text._ZN10__cxxabiv117__class_type_infoD0Ev
                0x0000000008074600        0x0 /opt/devkitpro/devkitARM/bin/../lib/gcc/arm-none-eabi/4.9.2/../../../../arm-none-eabi/lib/libstdc++.a(class_type_info.o)
                                          0x8 (size before relaxing)
 .ARM.exidx.text._ZNK10__cxxabiv117__class_type_info11__do_upcastEPKS0_PKvRNS0_15__upcast_resultE
                0x0000000008074600        0x8 /opt/devkitpro/devkitARM/bin/../lib/gcc/arm-none-eabi/4.9.2/../../../../arm-none-eabi/lib/libstdc++.a(class_type_info.o)
 .ARM.exidx.text._ZNK10__cxxabiv117__class_type_info10__do_catchEPKSt9type_infoPPvj
                0x0000000008074608        0x8 /opt/devkitpro/devkitARM/bin/../lib/gcc/arm-none-eabi/4.9.2/../../../../arm-none-eabi/lib/libstdc++.a(class_type_info.o)
 .ARM.exidx.text._ZNK10__cxxabiv117__class_type_info12__do_dyncastEiNS0_10__sub_kindEPKS0_PKvS3_S5_RNS0_16__dyncast_resultE
                0x0000000008074610        0x8 /opt/devkitpro/devkitARM/bin/../lib/gcc/arm-none-eabi/4.9.2/../../../../arm-none-eabi/lib/libstdc++.a(class_type_info.o)
 .ARM.exidx.text._ZNKSt9bad_alloc4whatEv
                0x0000000008074618        0x8 /opt/devkitpro/devkitARM/bin/../lib/gcc/arm-none-eabi/4.9.2/../../../../arm-none-eabi/lib/libstdc++.a(bad_alloc.o)
 .ARM.exidx.text._ZNSt9bad_allocD2Ev
                0x0000000008074620        0x0 /opt/devkitpro/devkitARM/bin/../lib/gcc/arm-none-eabi/4.9.2/../../../../arm-none-eabi/lib/libstdc++.a(bad_alloc.o)
                                          0x8 (size before relaxing)
 .ARM.exidx.text._ZNSt9bad_allocD0Ev
                0x0000000008074620        0x0 /opt/devkitpro/devkitARM/bin/../lib/gcc/arm-none-eabi/4.9.2/../../../../arm-none-eabi/lib/libstdc++.a(bad_alloc.o)
                                          0x8 (size before relaxing)
 .ARM.exidx.text._ZL23__gxx_exception_cleanup19_Unwind_Reason_CodeP21_Unwind_Control_Block
                0x0000000008074620        0x8 /opt/devkitpro/devkitARM/bin/../lib/gcc/arm-none-eabi/4.9.2/../../../../arm-none-eabi/lib/libstdc++.a(eh_throw.o)
 .ARM.exidx.text.__cxa_throw
                0x0000000008074628        0x8 /opt/devkitpro/devkitARM/bin/../lib/gcc/arm-none-eabi/4.9.2/../../../../arm-none-eabi/lib/libstdc++.a(eh_throw.o)
 .ARM.exidx.text.__cxa_rethrow
                0x0000000008074630        0x8 /opt/devkitpro/devkitARM/bin/../lib/gcc/arm-none-eabi/4.9.2/../../../../arm-none-eabi/lib/libstdc++.a(eh_throw.o)
 .ARM.exidx.text.__cxa_get_globals_fast
                0x0000000008074638        0x8 /opt/devkitpro/devkitARM/bin/../lib/gcc/arm-none-eabi/4.9.2/../../../../arm-none-eabi/lib/libstdc++.a(eh_globals.o)
 .ARM.exidx.text.__cxa_get_globals
                0x0000000008074640        0x0 /opt/devkitpro/devkitARM/bin/../lib/gcc/arm-none-eabi/4.9.2/../../../../arm-none-eabi/lib/libstdc++.a(eh_globals.o)
                                          0x8 (size before relaxing)
 .ARM.exidx.text.__cxa_get_exception_ptr
                0x0000000008074640        0x0 /opt/devkitpro/devkitARM/bin/../lib/gcc/arm-none-eabi/4.9.2/../../../../arm-none-eabi/lib/libstdc++.a(eh_catch.o)
                                          0x8 (size before relaxing)
 .ARM.exidx.text.__cxa_begin_catch
                0x0000000008074640        0x8 /opt/devkitpro/devkitARM/bin/../lib/gcc/arm-none-eabi/4.9.2/../../../../arm-none-eabi/lib/libstdc++.a(eh_catch.o)
 .ARM.exidx.text.__cxa_end_catch
                0x0000000008074648        0x8 /opt/devkitpro/devkitARM/bin/../lib/gcc/arm-none-eabi/4.9.2/../../../../arm-none-eabi/lib/libstdc++.a(eh_catch.o)
 .ARM.exidx.text._ZSt18uncaught_exceptionv
                0x0000000008074650        0x8 /opt/devkitpro/devkitARM/bin/../lib/gcc/arm-none-eabi/4.9.2/../../../../arm-none-eabi/lib/libstdc++.a(eh_catch.o)
 .ARM.exidx.text.__cxa_allocate_exception
                0x0000000008074658        0x0 /opt/devkitpro/devkitARM/bin/../lib/gcc/arm-none-eabi/4.9.2/../../../../arm-none-eabi/lib/libstdc++.a(eh_alloc.o)
                                          0x8 (size before relaxing)
 .ARM.exidx.text.__cxa_free_exception
                0x0000000008074658        0x0 /opt/devkitpro/devkitARM/bin/../lib/gcc/arm-none-eabi/4.9.2/../../../../arm-none-eabi/lib/libstdc++.a(eh_alloc.o)
                                          0x8 (size before relaxing)
 .ARM.exidx.text.__cxa_allocate_dependent_exception
                0x0000000008074658        0x0 /opt/devkitpro/devkitARM/bin/../lib/gcc/arm-none-eabi/4.9.2/../../../../arm-none-eabi/lib/libstdc++.a(eh_alloc.o)
                                          0x8 (size before relaxing)
 .ARM.exidx.text.__cxa_free_dependent_exception
                0x0000000008074658        0x0 /opt/devkitpro/devkitARM/bin/../lib/gcc/arm-none-eabi/4.9.2/../../../../arm-none-eabi/lib/libstdc++.a(eh_alloc.o)
                                          0x8 (size before relaxing)
 .ARM.exidx.text._ZNSt9exceptionD2Ev
                0x0000000008074658        0x0 /opt/devkitpro/devkitARM/bin/../lib/gcc/arm-none-eabi/4.9.2/../../../../arm-none-eabi/lib/libstdc++.a(eh_exception.o)
                                          0x8 (size before relaxing)
 .ARM.exidx.text._ZNSt13bad_exceptionD2Ev
                0x0000000008074658        0x0 /opt/devkitpro/devkitARM/bin/../lib/gcc/arm-none-eabi/4.9.2/../../../../arm-none-eabi/lib/libstdc++.a(eh_exception.o)
                                          0x8 (size before relaxing)
 .ARM.exidx.text._ZNKSt9exception4whatEv
                0x0000000008074658        0x0 /opt/devkitpro/devkitARM/bin/../lib/gcc/arm-none-eabi/4.9.2/../../../../arm-none-eabi/lib/libstdc++.a(eh_exception.o)
                                          0x8 (size before relaxing)
 .ARM.exidx.text._ZNKSt13bad_exception4whatEv
                0x0000000008074658        0x0 /opt/devkitpro/devkitARM/bin/../lib/gcc/arm-none-eabi/4.9.2/../../../../arm-none-eabi/lib/libstdc++.a(eh_exception.o)
                                          0x8 (size before relaxing)
 .ARM.exidx.text._ZNSt9exceptionD0Ev
                0x0000000008074658        0x0 /opt/devkitpro/devkitARM/bin/../lib/gcc/arm-none-eabi/4.9.2/../../../../arm-none-eabi/lib/libstdc++.a(eh_exception.o)
                                          0x8 (size before relaxing)
 .ARM.exidx.text._ZNSt13bad_exceptionD0Ev
                0x0000000008074658        0x0 /opt/devkitpro/devkitARM/bin/../lib/gcc/arm-none-eabi/4.9.2/../../../../arm-none-eabi/lib/libstdc++.a(eh_exception.o)
                                          0x8 (size before relaxing)
 .ARM.exidx.text._ZN10__cxxabiv115__forced_unwindD2Ev
                0x0000000008074658        0x0 /opt/devkitpro/devkitARM/bin/../lib/gcc/arm-none-eabi/4.9.2/../../../../arm-none-eabi/lib/libstdc++.a(eh_exception.o)
                                          0x8 (size before relaxing)
 .ARM.exidx.text._ZN10__cxxabiv115__forced_unwindD0Ev
                0x0000000008074658        0x0 /opt/devkitpro/devkitARM/bin/../lib/gcc/arm-none-eabi/4.9.2/../../../../arm-none-eabi/lib/libstdc++.a(eh_exception.o)
                                          0x8 (size before relaxing)
 .ARM.exidx.text._ZN10__cxxabiv119__foreign_exceptionD2Ev
                0x0000000008074658        0x0 /opt/devkitpro/devkitARM/bin/../lib/gcc/arm-none-eabi/4.9.2/../../../../arm-none-eabi/lib/libstdc++.a(eh_exception.o)
                                          0x8 (size before relaxing)
 .ARM.exidx.text._ZN10__cxxabiv119__foreign_exceptionD0Ev
                0x0000000008074658        0x0 /opt/devkitpro/devkitARM/bin/../lib/gcc/arm-none-eabi/4.9.2/../../../../arm-none-eabi/lib/libstdc++.a(eh_exception.o)
                                          0x8 (size before relaxing)
 .ARM.exidx.text._ZN10__cxxabiv111__terminateEPFvvE
                0x0000000008074658        0x8 /opt/devkitpro/devkitARM/bin/../lib/gcc/arm-none-eabi/4.9.2/../../../../arm-none-eabi/lib/libstdc++.a(eh_terminate.o)
 .ARM.exidx.text._ZSt9terminatev
                0x0000000008074660        0x8 /opt/devkitpro/devkitARM/bin/../lib/gcc/arm-none-eabi/4.9.2/../../../../arm-none-eabi/lib/libstdc++.a(eh_terminate.o)
 .ARM.exidx.text._ZN10__cxxabiv112__unexpectedEPFvvE
                0x0000000008074668        0x8 /opt/devkitpro/devkitARM/bin/../lib/gcc/arm-none-eabi/4.9.2/../../../../arm-none-eabi/lib/libstdc++.a(eh_terminate.o)
 .ARM.exidx.text._ZSt10unexpectedv
                0x0000000008074670        0x8 /opt/devkitpro/devkitARM/bin/../lib/gcc/arm-none-eabi/4.9.2/../../../../arm-none-eabi/lib/libstdc++.a(eh_terminate.o)
 .ARM.exidx.text._ZSt13set_terminatePFvvE
                0x0000000008074678        0x8 /opt/devkitpro/devkitARM/bin/../lib/gcc/arm-none-eabi/4.9.2/../../../../arm-none-eabi/lib/libstdc++.a(eh_terminate.o)
 .ARM.exidx.text._ZSt13get_terminatev
                0x0000000008074680        0x0 /opt/devkitpro/devkitARM/bin/../lib/gcc/arm-none-eabi/4.9.2/../../../../arm-none-eabi/lib/libstdc++.a(eh_terminate.o)
                                          0x8 (size before relaxing)
 .ARM.exidx.text._ZSt14set_unexpectedPFvvE
                0x0000000008074680        0x0 /opt/devkitpro/devkitARM/bin/../lib/gcc/arm-none-eabi/4.9.2/../../../../arm-none-eabi/lib/libstdc++.a(eh_terminate.o)
                                          0x8 (size before relaxing)
 .ARM.exidx.text._ZSt14get_unexpectedv
                0x0000000008074680        0x0 /opt/devkitpro/devkitARM/bin/../lib/gcc/arm-none-eabi/4.9.2/../../../../arm-none-eabi/lib/libstdc++.a(eh_terminate.o)
                                          0x8 (size before relaxing)
 .ARM.exidx.text._ZN10__cxxabiv1L24__is_gxx_exception_classEPc
                0x0000000008074680        0x0 /opt/devkitpro/devkitARM/bin/../lib/gcc/arm-none-eabi/4.9.2/../../../../arm-none-eabi/lib/libstdc++.a(eh_call.o)
                                          0x8 (size before relaxing)
 .ARM.exidx.text.__cxa_call_terminate
                0x0000000008074680        0x0 /opt/devkitpro/devkitARM/bin/../lib/gcc/arm-none-eabi/4.9.2/../../../../arm-none-eabi/lib/libstdc++.a(eh_call.o)
                                          0x8 (size before relaxing)
 .ARM.exidx.text.__cxa_call_unexpected
                0x0000000008074680        0x8 /opt/devkitpro/devkitARM/bin/../lib/gcc/arm-none-eabi/4.9.2/../../../../arm-none-eabi/lib/libstdc++.a(eh_call.o)
 .ARM.exidx.text._ZL12read_sleb128PKhPl
                0x0000000008074688        0x8 /opt/devkitpro/devkitARM/bin/../lib/gcc/arm-none-eabi/4.9.2/../../../../arm-none-eabi/lib/libstdc++.a(eh_personality.o)
 .ARM.exidx.text._ZL28read_encoded_value_with_basehjPKhPj
                0x0000000008074690        0x8 /opt/devkitpro/devkitARM/bin/../lib/gcc/arm-none-eabi/4.9.2/../../../../arm-none-eabi/lib/libstdc++.a(eh_personality.o)
 .ARM.exidx.text._ZL21base_of_encoded_valuehP15_Unwind_Context
                0x0000000008074698        0x8 /opt/devkitpro/devkitARM/bin/../lib/gcc/arm-none-eabi/4.9.2/../../../../arm-none-eabi/lib/libstdc++.a(eh_personality.o)
 .ARM.exidx.text._ZL17parse_lsda_headerP15_Unwind_ContextPKhP16lsda_header_info
                0x00000000080746a0        0x8 /opt/devkitpro/devkitARM/bin/../lib/gcc/arm-none-eabi/4.9.2/../../../../arm-none-eabi/lib/libstdc++.a(eh_personality.o)
 .ARM.exidx.text.__gxx_personality_v0
                0x00000000080746a8       0x10 /opt/devkitpro/devkitARM/bin/../lib/gcc/arm-none-eabi/4.9.2/../../../../arm-none-eabi/lib/libstdc++.a(eh_personality.o)
                                          0x8 (size before relaxing)
 .ARM.exidx.text.__cxa_type_match
                0x00000000080746b8        0x8 /opt/devkitpro/devkitARM/bin/../lib/gcc/arm-none-eabi/4.9.2/../../../../arm-none-eabi/lib/libstdc++.a(eh_arm.o)
 .ARM.exidx.text.__cxa_begin_cleanup
                0x00000000080746c0        0x8 /opt/devkitpro/devkitARM/bin/../lib/gcc/arm-none-eabi/4.9.2/../../../../arm-none-eabi/lib/libstdc++.a(eh_arm.o)
 .ARM.exidx.text.__gnu_end_cleanup
                0x00000000080746c8        0x0 /opt/devkitpro/devkitARM/bin/../lib/gcc/arm-none-eabi/4.9.2/../../../../arm-none-eabi/lib/libstdc++.a(eh_arm.o)
                                          0x8 (size before relaxing)
 .ARM.exidx.text._ZN9__gnu_cxx27__verbose_terminate_handlerEv
                0x00000000080746c8       0x10 /opt/devkitpro/devkitARM/bin/../lib/gcc/arm-none-eabi/4.9.2/../../../../arm-none-eabi/lib/libstdc++.a(vterminate.o)
                                          0x8 (size before relaxing)
 .ARM.exidx.text.__cxa_pure_virtual
                0x00000000080746d8        0x8 /opt/devkitpro/devkitARM/bin/../lib/gcc/arm-none-eabi/4.9.2/../../../../arm-none-eabi/lib/libstdc++.a(pure.o)
 .ARM.exidx.text.__cxa_deleted_virtual
                0x00000000080746e0        0x8 /opt/devkitpro/devkitARM/bin/../lib/gcc/arm-none-eabi/4.9.2/../../../../arm-none-eabi/lib/libstdc++.a(pure.o)
 .ARM.exidx.text.__cxa_current_exception_type
                0x00000000080746e8        0x8 /opt/devkitpro/devkitARM/bin/../lib/gcc/arm-none-eabi/4.9.2/../../../../arm-none-eabi/lib/libstdc++.a(eh_type.o)
                0x00000000080746f0                __exidx_end = .

.ARM.attributes
                0x00000000080746f0       0x2c
 *(.ARM.attributes)
 .ARM.attributes
                0x00000000080746f0       0x16 /opt/devkitpro/devkitARM/bin/../lib/gcc/arm-none-eabi/4.9.2/crti.o
 .ARM.attributes
                0x0000000008074706       0x30 /opt/devkitpro/devkitARM/bin/../lib/gcc/arm-none-eabi/4.9.2/crtbegin.o
 .ARM.attributes
                0x0000000008074736       0x14 /opt/devkitpro/devkitARM/bin/../lib/gcc/arm-none-eabi/4.9.2/../../../../arm-none-eabi/lib/crt0.o
 .ARM.attributes
                0x000000000807474a       0x30 objs/active_level_class.thumb.o
 .ARM.attributes
                0x000000000807477a       0x30 objs/active_level_manager_class.arm.o
 .ARM.attributes
                0x00000000080747aa       0x30 objs/active_level_manager_class.thumb.o
 .ARM.attributes
                0x00000000080747da       0x30 objs/air_block_stuff_class.thumb.o
 .ARM.attributes
                0x000000000807480a       0x20 objs/asm_init.o
 .ARM.attributes
                0x000000000807482a       0x30 objs/bg_reg_stuff.arm.o
 .ARM.attributes
                0x000000000807485a       0x30 objs/block_base_stuff_class.thumb.o
 .ARM.attributes
                0x000000000807488a       0x30 objs/block_stuff.thumb.o
 .ARM.attributes
                0x00000000080748ba       0x30 objs/button_stuff.thumb.o
 .ARM.attributes
                0x00000000080748ea       0x30 objs/coll_box_class.arm.o
 .ARM.attributes
                0x000000000807491a       0x30 objs/coll_box_class.thumb.o
 .ARM.attributes
                0x000000000807494a       0x30 objs/coll_point_group_class.thumb.o
 .ARM.attributes
                0x000000000807497a       0x30 objs/debug_vars.thumb.o
 .ARM.attributes
                0x00000000080749aa       0x20 objs/division_funcs.o
 .ARM.attributes
                0x00000000080749ca       0x30 objs/dma_stuff.thumb.o
 .ARM.attributes
                0x00000000080749fa       0x30 objs/dud_block_stuff_class.thumb.o
 .ARM.attributes
                0x0000000008074a2a       0x30 objs/exclam_block_stuff_classes.thumb.o
 .ARM.attributes
                0x0000000008074a5a       0x30 objs/eyes_block_stuff_classes.thumb.o
 .ARM.attributes
                0x0000000008074a8a       0x30 objs/fixed_classes.thumb.o
 .ARM.attributes
                0x0000000008074aba       0x30 objs/grass_and_dirt_block_stuff_classes.thumb.o
 .ARM.attributes
                0x0000000008074aea       0x30 objs/interrupt_stuff.arm.o
 .ARM.attributes
                0x0000000008074b1a       0x30 objs/interrupt_stuff.thumb.o
 .ARM.attributes
                0x0000000008074b4a       0x30 objs/level_class.thumb.o
 .ARM.attributes
                0x0000000008074b7a       0x30 objs/log_block_stuff_class.thumb.o
 .ARM.attributes
                0x0000000008074baa       0x30 objs/main.thumb.o
 .ARM.attributes
                0x0000000008074bda       0x20 objs/memcpy32_from_tonc.o
 .ARM.attributes
                0x0000000008074bfa       0x20 objs/memory_funcs_8bit.o
 .ARM.attributes
                0x0000000008074c1a       0x30 objs/muffin_sprite_stuff_classes.thumb.o
 .ARM.attributes
                0x0000000008074c4a       0x30 objs/oam_entry_classes.thumb.o
 .ARM.attributes
                0x0000000008074c7a       0x30 objs/player_sprite_stuff_class.thumb.o
 .ARM.attributes
                0x0000000008074caa       0x14 objs/practice_17.bin.o
 .ARM.attributes
                0x0000000008074cbe       0x20 objs/ram_funcs1.o
 .ARM.attributes
                0x0000000008074cde       0x20 objs/sherwin_gfx.o
 .ARM.attributes
                0x0000000008074cfe       0x30 objs/sprite_base_stuff_class.arm.o
 .ARM.attributes
                0x0000000008074d2e       0x30 objs/sprite_base_stuff_class.thumb.o
 .ARM.attributes
                0x0000000008074d5e       0x30 objs/sprite_class.thumb.o
 .ARM.attributes
                0x0000000008074d8e       0x30 objs/sprite_gfx_stuff.thumb.o
 .ARM.attributes
                0x0000000008074dbe       0x30 objs/sprite_manager_class.arm.o
 .ARM.attributes
                0x0000000008074dee       0x30 objs/sprite_manager_class.thumb.o
 .ARM.attributes
                0x0000000008074e1e       0x30 objs/sprite_type_stuff.thumb.o
 .ARM.attributes
                0x0000000008074e4e       0x30 objs/sublevel_class.thumb.o
 .ARM.attributes
                0x0000000008074e7e       0x30 objs/test_level.thumb.o
 .ARM.attributes
                0x0000000008074eae       0x20 objs/the_block_gfx.o
 .ARM.attributes
                0x0000000008074ece       0x20 objs/the_block_like_sprites_gfx.o
 .ARM.attributes
                0x0000000008074eee       0x20 objs/the_golem_enemy_gfx.o
 .ARM.attributes
                0x0000000008074f0e       0x20 objs/the_powerup_gfx.o
 .ARM.attributes
                0x0000000008074f2e       0x20 objs/title_screen.o
 .ARM.attributes
                0x0000000008074f4e       0x30 objs/waffle_sprite_stuff_class.arm.o
 .ARM.attributes
                0x0000000008074f7e       0x30 objs/waffle_sprite_stuff_class.thumb.o
 .ARM.attributes
                0x0000000008074fae       0x30 objs/warp_block_sprite_stuff_class.thumb.o
 .ARM.attributes
                0x0000000008074fde       0x30 objs/wood_block_stuff_classes.thumb.o
 .ARM.attributes
                0x000000000807500e       0x14 ./maxmod/lib/libmm.a(mm_main.o)
 .ARM.attributes
                0x0000000008075022       0x16 ./maxmod/lib/libmm.a(mm_mas.o)
 .ARM.attributes
                0x0000000008075038       0x14 ./maxmod/lib/libmm.a(mm_init_default.o)
 .ARM.attributes
                0x000000000807504c       0x16 ./maxmod/lib/libmm.a(mm_mixer_gba.o)
 .ARM.attributes
                0x0000000008075062       0x14 ./maxmod/lib/libmm.a(mm_effect.o)
 .ARM.attributes
                0x0000000008075076       0x16 ./maxmod/lib/libmm.a(mm_mas_arm.o)
 .ARM.attributes
                0x000000000807508c       0x16 /opt/devkitpro/devkitARM/bin/../lib/gcc/arm-none-eabi/4.9.2/libgcc.a(_call_via_rX.o)
 .ARM.attributes
                0x00000000080750a2       0x30 /opt/devkitpro/devkitARM/bin/../lib/gcc/arm-none-eabi/4.9.2/libgcc.a(unwind-arm.o)
 .ARM.attributes
                0x00000000080750d2       0x1c /opt/devkitpro/devkitARM/bin/../lib/gcc/arm-none-eabi/4.9.2/libgcc.a(libunwind.o)
 .ARM.attributes
                0x00000000080750ee       0x30 /opt/devkitpro/devkitARM/bin/../lib/gcc/arm-none-eabi/4.9.2/libgcc.a(pr-support.o)
 .ARM.attributes
                0x000000000807511e       0x30 /opt/devkitpro/devkitARM/bin/../lib/gcc/arm-none-eabi/4.9.2/../../../../arm-none-eabi/lib/libc.a(lib_a-abort.o)
 .ARM.attributes
                0x000000000807514e       0x30 /opt/devkitpro/devkitARM/bin/../lib/gcc/arm-none-eabi/4.9.2/../../../../arm-none-eabi/lib/libc.a(lib_a-aeabi_atexit.o)
 .ARM.attributes
                0x000000000807517e       0x30 /opt/devkitpro/devkitARM/bin/../lib/gcc/arm-none-eabi/4.9.2/../../../../arm-none-eabi/lib/libc.a(lib_a-atexit.o)
 .ARM.attributes
                0x00000000080751ae       0x30 /opt/devkitpro/devkitARM/bin/../lib/gcc/arm-none-eabi/4.9.2/../../../../arm-none-eabi/lib/libc.a(lib_a-cxa_atexit.o)
 .ARM.attributes
                0x00000000080751de       0x30 /opt/devkitpro/devkitARM/bin/../lib/gcc/arm-none-eabi/4.9.2/../../../../arm-none-eabi/lib/libc.a(lib_a-exit.o)
 .ARM.attributes
                0x000000000807520e       0x30 /opt/devkitpro/devkitARM/bin/../lib/gcc/arm-none-eabi/4.9.2/../../../../arm-none-eabi/lib/libc.a(lib_a-fini.o)
 .ARM.attributes
                0x000000000807523e       0x30 /opt/devkitpro/devkitARM/bin/../lib/gcc/arm-none-eabi/4.9.2/../../../../arm-none-eabi/lib/libc.a(lib_a-impure.o)
 .ARM.attributes
                0x000000000807526e       0x30 /opt/devkitpro/devkitARM/bin/../lib/gcc/arm-none-eabi/4.9.2/../../../../arm-none-eabi/lib/libc.a(lib_a-init.o)
 .ARM.attributes
                0x000000000807529e       0x30 /opt/devkitpro/devkitARM/bin/../lib/gcc/arm-none-eabi/4.9.2/../../../../arm-none-eabi/lib/libc.a(lib_a-malloc.o)
 .ARM.attributes
                0x00000000080752ce       0x30 /opt/devkitpro/devkitARM/bin/../lib/gcc/arm-none-eabi/4.9.2/../../../../arm-none-eabi/lib/libc.a(lib_a-mallocr.o)
 .ARM.attributes
                0x00000000080752fe       0x30 /opt/devkitpro/devkitARM/bin/../lib/gcc/arm-none-eabi/4.9.2/../../../../arm-none-eabi/lib/libc.a(lib_a-memcpy.o)
 .ARM.attributes
                0x000000000807532e       0x30 /opt/devkitpro/devkitARM/bin/../lib/gcc/arm-none-eabi/4.9.2/../../../../arm-none-eabi/lib/libc.a(lib_a-memset.o)
 .ARM.attributes
                0x000000000807535e       0x30 /opt/devkitpro/devkitARM/bin/../lib/gcc/arm-none-eabi/4.9.2/../../../../arm-none-eabi/lib/libc.a(lib_a-mlock.o)
 .ARM.attributes
                0x000000000807538e       0x30 /opt/devkitpro/devkitARM/bin/../lib/gcc/arm-none-eabi/4.9.2/../../../../arm-none-eabi/lib/libc.a(lib_a-signal.o)
 .ARM.attributes
                0x00000000080753be       0x30 /opt/devkitpro/devkitARM/bin/../lib/gcc/arm-none-eabi/4.9.2/../../../../arm-none-eabi/lib/libc.a(lib_a-__atexit.o)
 .ARM.attributes
                0x00000000080753ee       0x30 /opt/devkitpro/devkitARM/bin/../lib/gcc/arm-none-eabi/4.9.2/../../../../arm-none-eabi/lib/libc.a(lib_a-__call_atexit.o)
 .ARM.attributes
                0x000000000807541e       0x30 /opt/devkitpro/devkitARM/bin/../lib/gcc/arm-none-eabi/4.9.2/../../../../arm-none-eabi/lib/libc.a(lib_a-freer.o)
 .ARM.attributes
                0x000000000807544e       0x30 /opt/devkitpro/devkitARM/bin/../lib/gcc/arm-none-eabi/4.9.2/../../../../arm-none-eabi/lib/libstdc++.a(del_op.o)
 .ARM.attributes
                0x000000000807547e       0x30 /opt/devkitpro/devkitARM/bin/../lib/gcc/arm-none-eabi/4.9.2/../../../../arm-none-eabi/lib/libstdc++.a(si_class_type_info.o)
 .ARM.attributes
                0x00000000080754ae       0x30 /opt/devkitpro/devkitARM/bin/../lib/gcc/arm-none-eabi/4.9.2/../../../../arm-none-eabi/lib/libstdc++.a(tinfo.o)
 .ARM.attributes
                0x00000000080754de       0x30 /opt/devkitpro/devkitARM/bin/../lib/gcc/arm-none-eabi/4.9.2/../../../../arm-none-eabi/lib/libstdc++.a(new_op.o)
 .ARM.attributes
                0x000000000807550e       0x30 /opt/devkitpro/devkitARM/bin/../lib/gcc/arm-none-eabi/4.9.2/../../../../arm-none-eabi/lib/libstdc++.a(new_handler.o)
 .ARM.attributes
                0x000000000807553e       0x30 /opt/devkitpro/devkitARM/bin/../lib/gcc/arm-none-eabi/4.9.2/../../../../arm-none-eabi/lib/libstdc++.a(class_type_info.o)
 .ARM.attributes
                0x000000000807556e       0x30 /opt/devkitpro/devkitARM/bin/../lib/gcc/arm-none-eabi/4.9.2/../../../../arm-none-eabi/lib/libstdc++.a(bad_alloc.o)
 .ARM.attributes
                0x000000000807559e       0x30 /opt/devkitpro/devkitARM/bin/../lib/gcc/arm-none-eabi/4.9.2/../../../../arm-none-eabi/lib/libstdc++.a(eh_throw.o)
 .ARM.attributes
                0x00000000080755ce       0x30 /opt/devkitpro/devkitARM/bin/../lib/gcc/arm-none-eabi/4.9.2/../../../../arm-none-eabi/lib/libstdc++.a(eh_globals.o)
 .ARM.attributes
                0x00000000080755fe       0x30 /opt/devkitpro/devkitARM/bin/../lib/gcc/arm-none-eabi/4.9.2/../../../../arm-none-eabi/lib/libstdc++.a(eh_catch.o)
 .ARM.attributes
                0x000000000807562e       0x30 /opt/devkitpro/devkitARM/bin/../lib/gcc/arm-none-eabi/4.9.2/../../../../arm-none-eabi/lib/libstdc++.a(eh_alloc.o)
 .ARM.attributes
                0x000000000807565e       0x30 /opt/devkitpro/devkitARM/bin/../lib/gcc/arm-none-eabi/4.9.2/../../../../arm-none-eabi/lib/libstdc++.a(eh_exception.o)
 .ARM.attributes
                0x000000000807568e       0x30 /opt/devkitpro/devkitARM/bin/../lib/gcc/arm-none-eabi/4.9.2/../../../../arm-none-eabi/lib/libstdc++.a(eh_terminate.o)
 .ARM.attributes
                0x00000000080756be       0x30 /opt/devkitpro/devkitARM/bin/../lib/gcc/arm-none-eabi/4.9.2/../../../../arm-none-eabi/lib/libstdc++.a(eh_call.o)
 .ARM.attributes
                0x00000000080756ee       0x30 /opt/devkitpro/devkitARM/bin/../lib/gcc/arm-none-eabi/4.9.2/../../../../arm-none-eabi/lib/libstdc++.a(eh_term_handler.o)
 .ARM.attributes
                0x000000000807571e       0x30 /opt/devkitpro/devkitARM/bin/../lib/gcc/arm-none-eabi/4.9.2/../../../../arm-none-eabi/lib/libstdc++.a(eh_personality.o)
 .ARM.attributes
                0x000000000807574e       0x30 /opt/devkitpro/devkitARM/bin/../lib/gcc/arm-none-eabi/4.9.2/../../../../arm-none-eabi/lib/libstdc++.a(eh_arm.o)
 .ARM.attributes
                0x000000000807577e       0x30 /opt/devkitpro/devkitARM/bin/../lib/gcc/arm-none-eabi/4.9.2/../../../../arm-none-eabi/lib/libstdc++.a(vterminate.o)
 .ARM.attributes
                0x00000000080757ae       0x30 /opt/devkitpro/devkitARM/bin/../lib/gcc/arm-none-eabi/4.9.2/../../../../arm-none-eabi/lib/libstdc++.a(cp-demangle.o)
 .ARM.attributes
                0x00000000080757de       0x30 /opt/devkitpro/devkitARM/bin/../lib/gcc/arm-none-eabi/4.9.2/../../../../arm-none-eabi/lib/libstdc++.a(pure.o)
 .ARM.attributes
                0x000000000807580e       0x30 /opt/devkitpro/devkitARM/bin/../lib/gcc/arm-none-eabi/4.9.2/../../../../arm-none-eabi/lib/libstdc++.a(eh_type.o)
 .ARM.attributes
                0x000000000807583e       0x30 /opt/devkitpro/devkitARM/bin/../lib/gcc/arm-none-eabi/4.9.2/../../../../arm-none-eabi/lib/libstdc++.a(eh_unex_handler.o)
 .ARM.attributes
                0x000000000807586e       0x30 /opt/devkitpro/devkitARM/bin/../lib/gcc/arm-none-eabi/4.9.2/../../../../arm-none-eabi/lib/libc.a(lib_a-fputc.o)
 .ARM.attributes
                0x000000000807589e       0x30 /opt/devkitpro/devkitARM/bin/../lib/gcc/arm-none-eabi/4.9.2/../../../../arm-none-eabi/lib/libc.a(lib_a-fputs.o)
 .ARM.attributes
                0x00000000080758ce       0x30 /opt/devkitpro/devkitARM/bin/../lib/gcc/arm-none-eabi/4.9.2/../../../../arm-none-eabi/lib/libc.a(lib_a-fvwrite.o)
 .ARM.attributes
                0x00000000080758fe       0x30 /opt/devkitpro/devkitARM/bin/../lib/gcc/arm-none-eabi/4.9.2/../../../../arm-none-eabi/lib/libc.a(lib_a-fwrite.o)
 .ARM.attributes
                0x000000000807592e       0x30 /opt/devkitpro/devkitARM/bin/../lib/gcc/arm-none-eabi/4.9.2/../../../../arm-none-eabi/lib/libc.a(lib_a-memchr.o)
 .ARM.attributes
                0x000000000807595e       0x30 /opt/devkitpro/devkitARM/bin/../lib/gcc/arm-none-eabi/4.9.2/../../../../arm-none-eabi/lib/libc.a(lib_a-memcmp.o)
 .ARM.attributes
                0x000000000807598e       0x30 /opt/devkitpro/devkitARM/bin/../lib/gcc/arm-none-eabi/4.9.2/../../../../arm-none-eabi/lib/libc.a(lib_a-memmove.o)
 .ARM.attributes
                0x00000000080759be       0x30 /opt/devkitpro/devkitARM/bin/../lib/gcc/arm-none-eabi/4.9.2/../../../../arm-none-eabi/lib/libc.a(lib_a-putc.o)
 .ARM.attributes
                0x00000000080759ee       0x30 /opt/devkitpro/devkitARM/bin/../lib/gcc/arm-none-eabi/4.9.2/../../../../arm-none-eabi/lib/libc.a(lib_a-realloc.o)
 .ARM.attributes
                0x0000000008075a1e       0x30 /opt/devkitpro/devkitARM/bin/../lib/gcc/arm-none-eabi/4.9.2/../../../../arm-none-eabi/lib/libc.a(lib_a-reallocr.o)
 .ARM.attributes
                0x0000000008075a4e       0x30 /opt/devkitpro/devkitARM/bin/../lib/gcc/arm-none-eabi/4.9.2/../../../../arm-none-eabi/lib/libc.a(lib_a-sprintf.o)
 .ARM.attributes
                0x0000000008075a7e       0x16 /opt/devkitpro/devkitARM/bin/../lib/gcc/arm-none-eabi/4.9.2/../../../../arm-none-eabi/lib/libc.a(lib_a-strcmp.o)
 .ARM.attributes
                0x0000000008075a94       0x30 /opt/devkitpro/devkitARM/bin/../lib/gcc/arm-none-eabi/4.9.2/../../../../arm-none-eabi/lib/libc.a(lib_a-strlen.o)
 .ARM.attributes
                0x0000000008075ac4       0x30 /opt/devkitpro/devkitARM/bin/../lib/gcc/arm-none-eabi/4.9.2/../../../../arm-none-eabi/lib/libc.a(lib_a-strncmp.o)
 .ARM.attributes
                0x0000000008075af4       0x30 /opt/devkitpro/devkitARM/bin/../lib/gcc/arm-none-eabi/4.9.2/../../../../arm-none-eabi/lib/libc.a(lib_a-svfprintf.o)
 .ARM.attributes
                0x0000000008075b24       0x30 /opt/devkitpro/devkitARM/bin/../lib/gcc/arm-none-eabi/4.9.2/../../../../arm-none-eabi/lib/libc.a(lib_a-syswrite.o)
 .ARM.attributes
                0x0000000008075b54       0x30 /opt/devkitpro/devkitARM/bin/../lib/gcc/arm-none-eabi/4.9.2/../../../../arm-none-eabi/lib/libc.a(lib_a-wbuf.o)
 .ARM.attributes
                0x0000000008075b84       0x30 /opt/devkitpro/devkitARM/bin/../lib/gcc/arm-none-eabi/4.9.2/../../../../arm-none-eabi/lib/libc.a(lib_a-wcrtomb.o)
 .ARM.attributes
                0x0000000008075bb4       0x30 /opt/devkitpro/devkitARM/bin/../lib/gcc/arm-none-eabi/4.9.2/../../../../arm-none-eabi/lib/libc.a(lib_a-wcsrtombs.o)
 .ARM.attributes
                0x0000000008075be4       0x30 /opt/devkitpro/devkitARM/bin/../lib/gcc/arm-none-eabi/4.9.2/../../../../arm-none-eabi/lib/libc.a(lib_a-wctomb_r.o)
 .ARM.attributes
                0x0000000008075c14       0x30 /opt/devkitpro/devkitARM/bin/../lib/gcc/arm-none-eabi/4.9.2/../../../../arm-none-eabi/lib/libc.a(lib_a-wsetup.o)
 .ARM.attributes
                0x0000000008075c44       0x30 /opt/devkitpro/devkitARM/bin/../lib/gcc/arm-none-eabi/4.9.2/../../../../arm-none-eabi/lib/libc.a(lib_a-dtoa.o)
 .ARM.attributes
                0x0000000008075c74       0x30 /opt/devkitpro/devkitARM/bin/../lib/gcc/arm-none-eabi/4.9.2/../../../../arm-none-eabi/lib/libc.a(lib_a-fflush.o)
 .ARM.attributes
                0x0000000008075ca4       0x30 /opt/devkitpro/devkitARM/bin/../lib/gcc/arm-none-eabi/4.9.2/../../../../arm-none-eabi/lib/libc.a(lib_a-findfp.o)
 .ARM.attributes
                0x0000000008075cd4       0x30 /opt/devkitpro/devkitARM/bin/../lib/gcc/arm-none-eabi/4.9.2/../../../../arm-none-eabi/lib/libc.a(lib_a-fwalk.o)
 .ARM.attributes
                0x0000000008075d04       0x30 /opt/devkitpro/devkitARM/bin/../lib/gcc/arm-none-eabi/4.9.2/../../../../arm-none-eabi/lib/libc.a(lib_a-locale.o)
 .ARM.attributes
                0x0000000008075d34       0x30 /opt/devkitpro/devkitARM/bin/../lib/gcc/arm-none-eabi/4.9.2/../../../../arm-none-eabi/lib/libc.a(lib_a-makebuf.o)
 .ARM.attributes
                0x0000000008075d64       0x30 /opt/devkitpro/devkitARM/bin/../lib/gcc/arm-none-eabi/4.9.2/../../../../arm-none-eabi/lib/libc.a(lib_a-mbtowc_r.o)
 .ARM.attributes
                0x0000000008075d94       0x30 /opt/devkitpro/devkitARM/bin/../lib/gcc/arm-none-eabi/4.9.2/../../../../arm-none-eabi/lib/libc.a(lib_a-mprec.o)
 .ARM.attributes
                0x0000000008075dc4       0x30 /opt/devkitpro/devkitARM/bin/../lib/gcc/arm-none-eabi/4.9.2/../../../../arm-none-eabi/lib/libc.a(lib_a-s_fpclassify.o)
 .ARM.attributes
                0x0000000008075df4       0x30 /opt/devkitpro/devkitARM/bin/../lib/gcc/arm-none-eabi/4.9.2/../../../../arm-none-eabi/lib/libc.a(lib_a-s_frexp.o)
 .ARM.attributes
                0x0000000008075e24       0x30 /opt/devkitpro/devkitARM/bin/../lib/gcc/arm-none-eabi/4.9.2/../../../../arm-none-eabi/lib/libc.a(lib_a-stdio.o)
 .ARM.attributes
                0x0000000008075e54       0x30 /opt/devkitpro/devkitARM/bin/../lib/gcc/arm-none-eabi/4.9.2/../../../../arm-none-eabi/lib/libc.a(lib_a-strcasecmp.o)
 .ARM.attributes
                0x0000000008075e84       0x30 /opt/devkitpro/devkitARM/bin/../lib/gcc/arm-none-eabi/4.9.2/../../../../arm-none-eabi/lib/libc.a(lib_a-strcat.o)
 .ARM.attributes
                0x0000000008075eb4       0x30 /opt/devkitpro/devkitARM/bin/../lib/gcc/arm-none-eabi/4.9.2/../../../../arm-none-eabi/lib/libc.a(lib_a-strchr.o)
 .ARM.attributes
                0x0000000008075ee4       0x30 /opt/devkitpro/devkitARM/bin/../lib/gcc/arm-none-eabi/4.9.2/../../../../arm-none-eabi/lib/libc.a(lib_a-strcpy.o)
 .ARM.attributes
                0x0000000008075f14       0x30 /opt/devkitpro/devkitARM/bin/../lib/gcc/arm-none-eabi/4.9.2/../../../../arm-none-eabi/lib/libc.a(lib_a-strlcpy.o)
 .ARM.attributes
                0x0000000008075f44       0x30 /opt/devkitpro/devkitARM/bin/../lib/gcc/arm-none-eabi/4.9.2/../../../../arm-none-eabi/lib/libc.a(lib_a-strncasecmp.o)
 .ARM.attributes
                0x0000000008075f74       0x30 /opt/devkitpro/devkitARM/bin/../lib/gcc/arm-none-eabi/4.9.2/../../../../arm-none-eabi/lib/libc.a(lib_a-strncpy.o)
 .ARM.attributes
                0x0000000008075fa4       0x30 /opt/devkitpro/devkitARM/bin/../lib/gcc/arm-none-eabi/4.9.2/../../../../arm-none-eabi/lib/libc.a(lib_a-strtol.o)
 .ARM.attributes
                0x0000000008075fd4       0x30 /opt/devkitpro/devkitARM/bin/../lib/gcc/arm-none-eabi/4.9.2/../../../../arm-none-eabi/lib/libc.a(lib_a-svfiprintf.o)
 .ARM.attributes
                0x0000000008076004       0x30 /opt/devkitpro/devkitARM/bin/../lib/gcc/arm-none-eabi/4.9.2/../../../../arm-none-eabi/lib/libc.a(lib_a-wcsnrtombs.o)
 .ARM.attributes
                0x0000000008076034       0x30 /opt/devkitpro/devkitARM/bin/../lib/gcc/arm-none-eabi/4.9.2/../../../../arm-none-eabi/lib/libc.a(lib_a-callocr.o)
 .ARM.attributes
                0x0000000008076064       0x30 /opt/devkitpro/devkitARM/bin/../lib/gcc/arm-none-eabi/4.9.2/../../../../arm-none-eabi/lib/libc.a(lib_a-ctype_.o)
 .ARM.attributes
                0x0000000008076094       0x30 /opt/devkitpro/devkitARM/bin/../lib/gcc/arm-none-eabi/4.9.2/../../../../arm-none-eabi/lib/libc.a(lib_a-fclose.o)
 .ARM.attributes
                0x00000000080760c4       0x30 /opt/devkitpro/devkitARM/bin/../lib/gcc/arm-none-eabi/4.9.2/../../../../arm-none-eabi/lib/libc.a(lib_a-getenv_r.o)
 .ARM.attributes
                0x00000000080760f4       0x30 /opt/devkitpro/devkitARM/bin/../lib/gcc/arm-none-eabi/4.9.2/../../../../arm-none-eabi/lib/libc.a(lib_a-environ.o)
 .ARM.attributes
                0x0000000008076124       0x30 /opt/devkitpro/devkitARM/bin/../lib/gcc/arm-none-eabi/4.9.2/../../../../arm-none-eabi/lib/libc.a(lib_a-envlock.o)
 .ARM.attributes
                0x0000000008076154       0x30 /opt/devkitpro/devkitARM/bin/../lib/gcc/arm-none-eabi/4.9.2/../../../../arm-none-eabi/lib/libsysbase.a(close.o)
 .ARM.attributes
                0x0000000008076184       0x30 /opt/devkitpro/devkitARM/bin/../lib/gcc/arm-none-eabi/4.9.2/../../../../arm-none-eabi/lib/libsysbase.a(fstat.o)
 .ARM.attributes
                0x00000000080761b4       0x30 /opt/devkitpro/devkitARM/bin/../lib/gcc/arm-none-eabi/4.9.2/../../../../arm-none-eabi/lib/libsysbase.a(getpid.o)
 .ARM.attributes
                0x00000000080761e4       0x30 /opt/devkitpro/devkitARM/bin/../lib/gcc/arm-none-eabi/4.9.2/../../../../arm-none-eabi/lib/libsysbase.a(isatty.o)
 .ARM.attributes
                0x0000000008076214       0x30 /opt/devkitpro/devkitARM/bin/../lib/gcc/arm-none-eabi/4.9.2/../../../../arm-none-eabi/lib/libsysbase.a(kill.o)
 .ARM.attributes
                0x0000000008076244       0x30 /opt/devkitpro/devkitARM/bin/../lib/gcc/arm-none-eabi/4.9.2/../../../../arm-none-eabi/lib/libsysbase.a(lseek.o)
 .ARM.attributes
                0x0000000008076274       0x30 /opt/devkitpro/devkitARM/bin/../lib/gcc/arm-none-eabi/4.9.2/../../../../arm-none-eabi/lib/libsysbase.a(read.o)
 .ARM.attributes
                0x00000000080762a4       0x30 /opt/devkitpro/devkitARM/bin/../lib/gcc/arm-none-eabi/4.9.2/../../../../arm-none-eabi/lib/libsysbase.a(sbrk.o)
 .ARM.attributes
                0x00000000080762d4       0x30 /opt/devkitpro/devkitARM/bin/../lib/gcc/arm-none-eabi/4.9.2/../../../../arm-none-eabi/lib/libsysbase.a(write.o)
 .ARM.attributes
                0x0000000008076304       0x30 /opt/devkitpro/devkitARM/bin/../lib/gcc/arm-none-eabi/4.9.2/../../../../arm-none-eabi/lib/libsysbase.a(_exit.o)
 .ARM.attributes
                0x0000000008076334       0x30 /opt/devkitpro/devkitARM/bin/../lib/gcc/arm-none-eabi/4.9.2/../../../../arm-none-eabi/lib/libsysbase.a(malloc_vars.o)
 .ARM.attributes
                0x0000000008076364       0x30 /opt/devkitpro/devkitARM/bin/../lib/gcc/arm-none-eabi/4.9.2/../../../../arm-none-eabi/lib/libsysbase.a(flock.o)
 .ARM.attributes
                0x0000000008076394       0x30 /opt/devkitpro/devkitARM/bin/../lib/gcc/arm-none-eabi/4.9.2/../../../../arm-none-eabi/lib/libsysbase.a(syscall_support.o)
 .ARM.attributes
                0x00000000080763c4       0x30 /opt/devkitpro/devkitARM/bin/../lib/gcc/arm-none-eabi/4.9.2/../../../../arm-none-eabi/lib/libsysbase.a(handle_manager.o)
 .ARM.attributes
                0x00000000080763f4       0x30 /opt/devkitpro/devkitARM/bin/../lib/gcc/arm-none-eabi/4.9.2/../../../../arm-none-eabi/lib/libsysbase.a(getreent.o)
 .ARM.attributes
                0x0000000008076424       0x30 /opt/devkitpro/devkitARM/bin/../lib/gcc/arm-none-eabi/4.9.2/../../../../arm-none-eabi/lib/libsysbase.a(iosupport.o)
 .ARM.attributes
                0x0000000008076454       0x18 /opt/devkitpro/devkitARM/bin/../lib/gcc/arm-none-eabi/4.9.2/libgcc.a(_udivsi3.o)
 .ARM.attributes
                0x000000000807646c       0x18 /opt/devkitpro/devkitARM/bin/../lib/gcc/arm-none-eabi/4.9.2/libgcc.a(_divsi3.o)
 .ARM.attributes
                0x0000000008076484       0x18 /opt/devkitpro/devkitARM/bin/../lib/gcc/arm-none-eabi/4.9.2/libgcc.a(_dvmd_tls.o)
 .ARM.attributes
                0x000000000807649c       0x18 /opt/devkitpro/devkitARM/bin/../lib/gcc/arm-none-eabi/4.9.2/libgcc.a(_arm_addsubdf3.o)
 .ARM.attributes
                0x00000000080764b4       0x18 /opt/devkitpro/devkitARM/bin/../lib/gcc/arm-none-eabi/4.9.2/libgcc.a(_arm_muldivdf3.o)
 .ARM.attributes
                0x00000000080764cc       0x18 /opt/devkitpro/devkitARM/bin/../lib/gcc/arm-none-eabi/4.9.2/libgcc.a(_arm_cmpdf2.o)
 .ARM.attributes
                0x00000000080764e4       0x18 /opt/devkitpro/devkitARM/bin/../lib/gcc/arm-none-eabi/4.9.2/libgcc.a(_arm_fixdfsi.o)
 .ARM.attributes
                0x00000000080764fc       0x18 /opt/devkitpro/devkitARM/bin/../lib/gcc/arm-none-eabi/4.9.2/libgcc.a(_aeabi_uldivmod.o)
 .ARM.attributes
                0x0000000008076514       0x30 /opt/devkitpro/devkitARM/bin/../lib/gcc/arm-none-eabi/4.9.2/libgcc.a(bpabi.o)
 .ARM.attributes
                0x0000000008076544       0x30 /opt/devkitpro/devkitARM/bin/../lib/gcc/arm-none-eabi/4.9.2/libgcc.a(_divdi3.o)
 .ARM.attributes
                0x0000000008076574       0x30 /opt/devkitpro/devkitARM/bin/../lib/gcc/arm-none-eabi/4.9.2/libgcc.a(_udivdi3.o)
 .ARM.attributes
                0x00000000080765a4       0x18 /opt/devkitpro/devkitARM/bin/../lib/gcc/arm-none-eabi/4.9.2/libgcc.a(_clzdi2.o)
 .ARM.attributes
                0x00000000080765bc       0x18 /opt/devkitpro/devkitARM/bin/../lib/gcc/arm-none-eabi/4.9.2/libgcc.a(_clzsi2.o)
 .ARM.attributes
                0x00000000080765d4       0x30 /opt/devkitpro/devkitARM/bin/../lib/gcc/arm-none-eabi/4.9.2/../../../../arm-none-eabi/lib/libc.a(lib_a-errno.o)
 .ARM.attributes
                0x0000000008076604       0x30 /opt/devkitpro/devkitARM/bin/../lib/gcc/arm-none-eabi/4.9.2/crtend.o
 .ARM.attributes
                0x0000000008076634       0x18 /opt/devkitpro/devkitARM/bin/../lib/gcc/arm-none-eabi/4.9.2/crtn.o

.init_array     0x0000000002000000       0x10 load address 0x00000000080746f0
                0x00000000080746f0                __init_array_load = LOADADDR (.init_array)
                0x0000000002000000                __init_array_start = .
 *(.init_array)
 .init_array    0x0000000002000000        0x4 /opt/devkitpro/devkitARM/bin/../lib/gcc/arm-none-eabi/4.9.2/crtbegin.o
 .init_array    0x0000000002000004        0x4 objs/active_level_class.thumb.o
 .init_array    0x0000000002000008        0x4 objs/block_stuff.thumb.o
 .init_array    0x000000000200000c        0x4 objs/sprite_manager_class.thumb.o
 *(SORT(.init_array.*))
                0x0000000002000010                __init_array_end = .

.data           0x0000000002000010    0x1aa40 load address 0x0000000008074700
                0x0000000008074700                __data_load = LOADADDR (.data)
                0x0000000002000010                __data_start = .
 *(.jcr)
 .jcr           0x0000000002000010        0x0 /opt/devkitpro/devkitARM/bin/../lib/gcc/arm-none-eabi/4.9.2/crtbegin.o
 .jcr           0x0000000002000010        0x4 /opt/devkitpro/devkitARM/bin/../lib/gcc/arm-none-eabi/4.9.2/crtend.o
 *(.got.plt)
 *(.got)
 *(.shdata)
 *(.data .data.* .gnu.linkonce.d.*)
 .data          0x0000000002000014        0x0 /opt/devkitpro/devkitARM/bin/../lib/gcc/arm-none-eabi/4.9.2/crti.o
 .data          0x0000000002000014        0x4 /opt/devkitpro/devkitARM/bin/../lib/gcc/arm-none-eabi/4.9.2/crtbegin.o
                0x0000000002000014                __dso_handle
 .data          0x0000000002000018        0x0 /opt/devkitpro/devkitARM/bin/../lib/gcc/arm-none-eabi/4.9.2/../../../../arm-none-eabi/lib/crt0.o
 .data          0x0000000002000018    0x19000 objs/active_level_class.thumb.o
                0x0000000002000018                active_level::block_data_array
                0x0000000002010018                active_level::horiz_sublevel_sprite_ipg_lists
                0x0000000002010818                active_level::bg0_screenblock_mirror
                0x0000000002011018                active_level::persistent_block_data_arrays
 .data          0x0000000002019018        0x0 objs/active_level_manager_class.arm.o
 .data          0x0000000002019018        0x0 objs/active_level_manager_class.thumb.o
 .data          0x0000000002019018        0x0 objs/air_block_stuff_class.thumb.o
 .data          0x0000000002019018        0x0 objs/asm_init.o
 .data          0x0000000002019018        0x0 objs/bg_reg_stuff.arm.o
 .data          0x0000000002019018        0x0 objs/block_base_stuff_class.thumb.o
 .data          0x0000000002019018        0x0 objs/block_stuff.thumb.o
 .data          0x0000000002019018        0x0 objs/button_stuff.thumb.o
 .data          0x0000000002019018        0x0 objs/coll_box_class.arm.o
 .data          0x0000000002019018        0x0 objs/coll_box_class.thumb.o
 .data          0x0000000002019018        0x0 objs/coll_point_group_class.thumb.o
 .data          0x0000000002019018        0x0 objs/debug_vars.thumb.o
 .data          0x0000000002019018        0x0 objs/division_funcs.o
 .data          0x0000000002019018        0x0 objs/dma_stuff.thumb.o
 .data          0x0000000002019018        0x0 objs/dud_block_stuff_class.thumb.o
 .data          0x0000000002019018        0x0 objs/exclam_block_stuff_classes.thumb.o
 .data          0x0000000002019018        0x0 objs/eyes_block_stuff_classes.thumb.o
 .data          0x0000000002019018        0x0 objs/fixed_classes.thumb.o
 .data          0x0000000002019018        0x0 objs/grass_and_dirt_block_stuff_classes.thumb.o
 .data          0x0000000002019018        0x0 objs/interrupt_stuff.arm.o
 .data          0x0000000002019018        0x0 objs/interrupt_stuff.thumb.o
 .data          0x0000000002019018        0x0 objs/level_class.thumb.o
 .data          0x0000000002019018        0x0 objs/log_block_stuff_class.thumb.o
 .data          0x0000000002019018        0x0 objs/main.thumb.o
 .data          0x0000000002019018        0x0 objs/memcpy32_from_tonc.o
 .data          0x0000000002019018        0x0 objs/memory_funcs_8bit.o
 .data          0x0000000002019018        0x0 objs/muffin_sprite_stuff_classes.thumb.o
 .data          0x0000000002019018        0x0 objs/oam_entry_classes.thumb.o
 .data          0x0000000002019018        0x0 objs/player_sprite_stuff_class.thumb.o
 .data          0x0000000002019018        0x0 objs/practice_17.bin.o
 .data          0x0000000002019018        0x0 objs/ram_funcs1.o
 .data          0x0000000002019018        0x0 objs/sherwin_gfx.o
 .data          0x0000000002019018        0x0 objs/sprite_base_stuff_class.arm.o
 .data          0x0000000002019018        0x0 objs/sprite_base_stuff_class.thumb.o
 .data          0x0000000002019018        0x0 objs/sprite_class.thumb.o
 .data          0x0000000002019018        0x0 objs/sprite_gfx_stuff.thumb.o
 .data          0x0000000002019018        0x0 objs/sprite_manager_class.arm.o
 .data          0x0000000002019018        0x0 objs/sprite_manager_class.thumb.o
 .data          0x0000000002019018        0x0 objs/sprite_type_stuff.thumb.o
 .data          0x0000000002019018        0x0 objs/sublevel_class.thumb.o
 .data          0x0000000002019018        0x0 objs/test_level.thumb.o
 .data          0x0000000002019018        0x0 objs/the_block_gfx.o
 .data          0x0000000002019018        0x0 objs/the_block_like_sprites_gfx.o
 .data          0x0000000002019018        0x0 objs/the_golem_enemy_gfx.o
 .data          0x0000000002019018        0x0 objs/the_powerup_gfx.o
 .data          0x0000000002019018        0x0 objs/title_screen.o
 .data          0x0000000002019018        0x0 objs/waffle_sprite_stuff_class.arm.o
 .data          0x0000000002019018        0x0 objs/waffle_sprite_stuff_class.thumb.o
 .data          0x0000000002019018        0x0 objs/warp_block_sprite_stuff_class.thumb.o
 .data          0x0000000002019018        0x0 objs/wood_block_stuff_classes.thumb.o
 .data          0x0000000002019018        0x0 ./maxmod/lib/libmm.a(mm_main.o)
 .data          0x0000000002019018        0x0 ./maxmod/lib/libmm.a(mm_mas.o)
 .data          0x0000000002019018        0x0 ./maxmod/lib/libmm.a(mm_init_default.o)
 .data          0x0000000002019018        0x0 ./maxmod/lib/libmm.a(mm_mixer_gba.o)
 .data          0x0000000002019018        0x0 ./maxmod/lib/libmm.a(mm_effect.o)
 .data          0x0000000002019018        0x0 ./maxmod/lib/libmm.a(mm_mas_arm.o)
 .data          0x0000000002019018        0x0 /opt/devkitpro/devkitARM/bin/../lib/gcc/arm-none-eabi/4.9.2/libgcc.a(_call_via_rX.o)
 .data          0x0000000002019018        0x0 /opt/devkitpro/devkitARM/bin/../lib/gcc/arm-none-eabi/4.9.2/libgcc.a(unwind-arm.o)
 .data          0x0000000002019018        0x0 /opt/devkitpro/devkitARM/bin/../lib/gcc/arm-none-eabi/4.9.2/libgcc.a(libunwind.o)
 .data          0x0000000002019018        0x0 /opt/devkitpro/devkitARM/bin/../lib/gcc/arm-none-eabi/4.9.2/libgcc.a(pr-support.o)
 .data          0x0000000002019018        0x0 /opt/devkitpro/devkitARM/bin/../lib/gcc/arm-none-eabi/4.9.2/../../../../arm-none-eabi/lib/libc.a(lib_a-abort.o)
 .data          0x0000000002019018        0x0 /opt/devkitpro/devkitARM/bin/../lib/gcc/arm-none-eabi/4.9.2/../../../../arm-none-eabi/lib/libc.a(lib_a-aeabi_atexit.o)
 .data          0x0000000002019018        0x0 /opt/devkitpro/devkitARM/bin/../lib/gcc/arm-none-eabi/4.9.2/../../../../arm-none-eabi/lib/libc.a(lib_a-atexit.o)
 .data          0x0000000002019018        0x0 /opt/devkitpro/devkitARM/bin/../lib/gcc/arm-none-eabi/4.9.2/../../../../arm-none-eabi/lib/libc.a(lib_a-cxa_atexit.o)
 .data          0x0000000002019018        0x0 /opt/devkitpro/devkitARM/bin/../lib/gcc/arm-none-eabi/4.9.2/../../../../arm-none-eabi/lib/libc.a(lib_a-exit.o)
 .data          0x0000000002019018        0x0 /opt/devkitpro/devkitARM/bin/../lib/gcc/arm-none-eabi/4.9.2/../../../../arm-none-eabi/lib/libc.a(lib_a-fini.o)
 .data          0x0000000002019018        0x0 /opt/devkitpro/devkitARM/bin/../lib/gcc/arm-none-eabi/4.9.2/../../../../arm-none-eabi/lib/libc.a(lib_a-impure.o)
 .data.impure_data
                0x0000000002019018      0x428 /opt/devkitpro/devkitARM/bin/../lib/gcc/arm-none-eabi/4.9.2/../../../../arm-none-eabi/lib/libc.a(lib_a-impure.o)
 .data._impure_ptr
                0x0000000002019440        0x4 /opt/devkitpro/devkitARM/bin/../lib/gcc/arm-none-eabi/4.9.2/../../../../arm-none-eabi/lib/libc.a(lib_a-impure.o)
                0x0000000002019440                _impure_ptr
 .data          0x0000000002019444        0x0 /opt/devkitpro/devkitARM/bin/../lib/gcc/arm-none-eabi/4.9.2/../../../../arm-none-eabi/lib/libc.a(lib_a-init.o)
 .data          0x0000000002019444        0x0 /opt/devkitpro/devkitARM/bin/../lib/gcc/arm-none-eabi/4.9.2/../../../../arm-none-eabi/lib/libc.a(lib_a-malloc.o)
 .data          0x0000000002019444        0x0 /opt/devkitpro/devkitARM/bin/../lib/gcc/arm-none-eabi/4.9.2/../../../../arm-none-eabi/lib/libc.a(lib_a-mallocr.o)
 .data.__malloc_av_
                0x0000000002019444      0x408 /opt/devkitpro/devkitARM/bin/../lib/gcc/arm-none-eabi/4.9.2/../../../../arm-none-eabi/lib/libc.a(lib_a-mallocr.o)
                0x0000000002019444                __malloc_av_
 .data.__malloc_trim_threshold
                0x000000000201984c        0x4 /opt/devkitpro/devkitARM/bin/../lib/gcc/arm-none-eabi/4.9.2/../../../../arm-none-eabi/lib/libc.a(lib_a-mallocr.o)
                0x000000000201984c                __malloc_trim_threshold
 .data.__malloc_sbrk_base
                0x0000000002019850        0x4 /opt/devkitpro/devkitARM/bin/../lib/gcc/arm-none-eabi/4.9.2/../../../../arm-none-eabi/lib/libc.a(lib_a-mallocr.o)
                0x0000000002019850                __malloc_sbrk_base
 .data          0x0000000002019854        0x0 /opt/devkitpro/devkitARM/bin/../lib/gcc/arm-none-eabi/4.9.2/../../../../arm-none-eabi/lib/libc.a(lib_a-memcpy.o)
 .data          0x0000000002019854        0x0 /opt/devkitpro/devkitARM/bin/../lib/gcc/arm-none-eabi/4.9.2/../../../../arm-none-eabi/lib/libc.a(lib_a-memset.o)
 .data          0x0000000002019854        0x0 /opt/devkitpro/devkitARM/bin/../lib/gcc/arm-none-eabi/4.9.2/../../../../arm-none-eabi/lib/libc.a(lib_a-mlock.o)
 .data          0x0000000002019854        0x0 /opt/devkitpro/devkitARM/bin/../lib/gcc/arm-none-eabi/4.9.2/../../../../arm-none-eabi/lib/libc.a(lib_a-signal.o)
 .data          0x0000000002019854        0x0 /opt/devkitpro/devkitARM/bin/../lib/gcc/arm-none-eabi/4.9.2/../../../../arm-none-eabi/lib/libc.a(lib_a-__atexit.o)
 .data          0x0000000002019854        0x0 /opt/devkitpro/devkitARM/bin/../lib/gcc/arm-none-eabi/4.9.2/../../../../arm-none-eabi/lib/libc.a(lib_a-__call_atexit.o)
 .data          0x0000000002019854        0x0 /opt/devkitpro/devkitARM/bin/../lib/gcc/arm-none-eabi/4.9.2/../../../../arm-none-eabi/lib/libc.a(lib_a-freer.o)
 .data          0x0000000002019854        0x0 /opt/devkitpro/devkitARM/bin/../lib/gcc/arm-none-eabi/4.9.2/../../../../arm-none-eabi/lib/libstdc++.a(del_op.o)
 .data          0x0000000002019854        0x0 /opt/devkitpro/devkitARM/bin/../lib/gcc/arm-none-eabi/4.9.2/../../../../arm-none-eabi/lib/libstdc++.a(si_class_type_info.o)
 .data          0x0000000002019854        0x0 /opt/devkitpro/devkitARM/bin/../lib/gcc/arm-none-eabi/4.9.2/../../../../arm-none-eabi/lib/libstdc++.a(tinfo.o)
 .data          0x0000000002019854        0x0 /opt/devkitpro/devkitARM/bin/../lib/gcc/arm-none-eabi/4.9.2/../../../../arm-none-eabi/lib/libstdc++.a(new_op.o)
 .data          0x0000000002019854        0x0 /opt/devkitpro/devkitARM/bin/../lib/gcc/arm-none-eabi/4.9.2/../../../../arm-none-eabi/lib/libstdc++.a(new_handler.o)
 .data          0x0000000002019854        0x0 /opt/devkitpro/devkitARM/bin/../lib/gcc/arm-none-eabi/4.9.2/../../../../arm-none-eabi/lib/libstdc++.a(class_type_info.o)
 .data          0x0000000002019854        0x0 /opt/devkitpro/devkitARM/bin/../lib/gcc/arm-none-eabi/4.9.2/../../../../arm-none-eabi/lib/libstdc++.a(bad_alloc.o)
 .data          0x0000000002019854        0x0 /opt/devkitpro/devkitARM/bin/../lib/gcc/arm-none-eabi/4.9.2/../../../../arm-none-eabi/lib/libstdc++.a(eh_throw.o)
 .data          0x0000000002019854        0x0 /opt/devkitpro/devkitARM/bin/../lib/gcc/arm-none-eabi/4.9.2/../../../../arm-none-eabi/lib/libstdc++.a(eh_globals.o)
 .data          0x0000000002019854        0x0 /opt/devkitpro/devkitARM/bin/../lib/gcc/arm-none-eabi/4.9.2/../../../../arm-none-eabi/lib/libstdc++.a(eh_catch.o)
 .data          0x0000000002019854        0x0 /opt/devkitpro/devkitARM/bin/../lib/gcc/arm-none-eabi/4.9.2/../../../../arm-none-eabi/lib/libstdc++.a(eh_alloc.o)
 .data          0x0000000002019854        0x0 /opt/devkitpro/devkitARM/bin/../lib/gcc/arm-none-eabi/4.9.2/../../../../arm-none-eabi/lib/libstdc++.a(eh_exception.o)
 .data          0x0000000002019854        0x0 /opt/devkitpro/devkitARM/bin/../lib/gcc/arm-none-eabi/4.9.2/../../../../arm-none-eabi/lib/libstdc++.a(eh_terminate.o)
 .data          0x0000000002019854        0x0 /opt/devkitpro/devkitARM/bin/../lib/gcc/arm-none-eabi/4.9.2/../../../../arm-none-eabi/lib/libstdc++.a(eh_call.o)
 .data          0x0000000002019854        0x0 /opt/devkitpro/devkitARM/bin/../lib/gcc/arm-none-eabi/4.9.2/../../../../arm-none-eabi/lib/libstdc++.a(eh_term_handler.o)
 .data._ZN10__cxxabiv119__terminate_handlerE
                0x0000000002019854        0x4 /opt/devkitpro/devkitARM/bin/../lib/gcc/arm-none-eabi/4.9.2/../../../../arm-none-eabi/lib/libstdc++.a(eh_term_handler.o)
                0x0000000002019854                __cxxabiv1::__terminate_handler
 .data          0x0000000002019858        0x0 /opt/devkitpro/devkitARM/bin/../lib/gcc/arm-none-eabi/4.9.2/../../../../arm-none-eabi/lib/libstdc++.a(eh_personality.o)
 .data          0x0000000002019858        0x0 /opt/devkitpro/devkitARM/bin/../lib/gcc/arm-none-eabi/4.9.2/../../../../arm-none-eabi/lib/libstdc++.a(eh_arm.o)
 .data          0x0000000002019858        0x0 /opt/devkitpro/devkitARM/bin/../lib/gcc/arm-none-eabi/4.9.2/../../../../arm-none-eabi/lib/libstdc++.a(vterminate.o)
 .data          0x0000000002019858        0x0 /opt/devkitpro/devkitARM/bin/../lib/gcc/arm-none-eabi/4.9.2/../../../../arm-none-eabi/lib/libstdc++.a(cp-demangle.o)
 .data          0x0000000002019858        0x0 /opt/devkitpro/devkitARM/bin/../lib/gcc/arm-none-eabi/4.9.2/../../../../arm-none-eabi/lib/libstdc++.a(pure.o)
 .data          0x0000000002019858        0x0 /opt/devkitpro/devkitARM/bin/../lib/gcc/arm-none-eabi/4.9.2/../../../../arm-none-eabi/lib/libstdc++.a(eh_type.o)
 .data          0x0000000002019858        0x0 /opt/devkitpro/devkitARM/bin/../lib/gcc/arm-none-eabi/4.9.2/../../../../arm-none-eabi/lib/libstdc++.a(eh_unex_handler.o)
 .data._ZN10__cxxabiv120__unexpected_handlerE
                0x0000000002019858        0x4 /opt/devkitpro/devkitARM/bin/../lib/gcc/arm-none-eabi/4.9.2/../../../../arm-none-eabi/lib/libstdc++.a(eh_unex_handler.o)
                0x0000000002019858                __cxxabiv1::__unexpected_handler
 .data          0x000000000201985c        0x0 /opt/devkitpro/devkitARM/bin/../lib/gcc/arm-none-eabi/4.9.2/../../../../arm-none-eabi/lib/libc.a(lib_a-fputc.o)
 .data          0x000000000201985c        0x0 /opt/devkitpro/devkitARM/bin/../lib/gcc/arm-none-eabi/4.9.2/../../../../arm-none-eabi/lib/libc.a(lib_a-fputs.o)
 .data          0x000000000201985c        0x0 /opt/devkitpro/devkitARM/bin/../lib/gcc/arm-none-eabi/4.9.2/../../../../arm-none-eabi/lib/libc.a(lib_a-fvwrite.o)
 .data          0x000000000201985c        0x0 /opt/devkitpro/devkitARM/bin/../lib/gcc/arm-none-eabi/4.9.2/../../../../arm-none-eabi/lib/libc.a(lib_a-fwrite.o)
 .data          0x000000000201985c        0x0 /opt/devkitpro/devkitARM/bin/../lib/gcc/arm-none-eabi/4.9.2/../../../../arm-none-eabi/lib/libc.a(lib_a-memchr.o)
 .data          0x000000000201985c        0x0 /opt/devkitpro/devkitARM/bin/../lib/gcc/arm-none-eabi/4.9.2/../../../../arm-none-eabi/lib/libc.a(lib_a-memcmp.o)
 .data          0x000000000201985c        0x0 /opt/devkitpro/devkitARM/bin/../lib/gcc/arm-none-eabi/4.9.2/../../../../arm-none-eabi/lib/libc.a(lib_a-memmove.o)
 .data          0x000000000201985c        0x0 /opt/devkitpro/devkitARM/bin/../lib/gcc/arm-none-eabi/4.9.2/../../../../arm-none-eabi/lib/libc.a(lib_a-putc.o)
 .data          0x000000000201985c        0x0 /opt/devkitpro/devkitARM/bin/../lib/gcc/arm-none-eabi/4.9.2/../../../../arm-none-eabi/lib/libc.a(lib_a-realloc.o)
 .data          0x000000000201985c        0x0 /opt/devkitpro/devkitARM/bin/../lib/gcc/arm-none-eabi/4.9.2/../../../../arm-none-eabi/lib/libc.a(lib_a-reallocr.o)
 .data          0x000000000201985c        0x0 /opt/devkitpro/devkitARM/bin/../lib/gcc/arm-none-eabi/4.9.2/../../../../arm-none-eabi/lib/libc.a(lib_a-sprintf.o)
 .data          0x000000000201985c        0x0 /opt/devkitpro/devkitARM/bin/../lib/gcc/arm-none-eabi/4.9.2/../../../../arm-none-eabi/lib/libc.a(lib_a-strcmp.o)
 .data          0x000000000201985c        0x0 /opt/devkitpro/devkitARM/bin/../lib/gcc/arm-none-eabi/4.9.2/../../../../arm-none-eabi/lib/libc.a(lib_a-strlen.o)
 .data          0x000000000201985c        0x0 /opt/devkitpro/devkitARM/bin/../lib/gcc/arm-none-eabi/4.9.2/../../../../arm-none-eabi/lib/libc.a(lib_a-strncmp.o)
 .data          0x000000000201985c        0x0 /opt/devkitpro/devkitARM/bin/../lib/gcc/arm-none-eabi/4.9.2/../../../../arm-none-eabi/lib/libc.a(lib_a-svfprintf.o)
 .data          0x000000000201985c        0x0 /opt/devkitpro/devkitARM/bin/../lib/gcc/arm-none-eabi/4.9.2/../../../../arm-none-eabi/lib/libc.a(lib_a-syswrite.o)
 .data          0x000000000201985c        0x0 /opt/devkitpro/devkitARM/bin/../lib/gcc/arm-none-eabi/4.9.2/../../../../arm-none-eabi/lib/libc.a(lib_a-wbuf.o)
 .data          0x000000000201985c        0x0 /opt/devkitpro/devkitARM/bin/../lib/gcc/arm-none-eabi/4.9.2/../../../../arm-none-eabi/lib/libc.a(lib_a-wcrtomb.o)
 .data          0x000000000201985c        0x0 /opt/devkitpro/devkitARM/bin/../lib/gcc/arm-none-eabi/4.9.2/../../../../arm-none-eabi/lib/libc.a(lib_a-wcsrtombs.o)
 .data          0x000000000201985c        0x0 /opt/devkitpro/devkitARM/bin/../lib/gcc/arm-none-eabi/4.9.2/../../../../arm-none-eabi/lib/libc.a(lib_a-wctomb_r.o)
 .data.__wctomb
                0x000000000201985c        0x4 /opt/devkitpro/devkitARM/bin/../lib/gcc/arm-none-eabi/4.9.2/../../../../arm-none-eabi/lib/libc.a(lib_a-wctomb_r.o)
                0x000000000201985c                __wctomb
 .data          0x0000000002019860        0x0 /opt/devkitpro/devkitARM/bin/../lib/gcc/arm-none-eabi/4.9.2/../../../../arm-none-eabi/lib/libc.a(lib_a-wsetup.o)
 .data          0x0000000002019860        0x0 /opt/devkitpro/devkitARM/bin/../lib/gcc/arm-none-eabi/4.9.2/../../../../arm-none-eabi/lib/libc.a(lib_a-dtoa.o)
 .data          0x0000000002019860        0x0 /opt/devkitpro/devkitARM/bin/../lib/gcc/arm-none-eabi/4.9.2/../../../../arm-none-eabi/lib/libc.a(lib_a-fflush.o)
 .data          0x0000000002019860        0x0 /opt/devkitpro/devkitARM/bin/../lib/gcc/arm-none-eabi/4.9.2/../../../../arm-none-eabi/lib/libc.a(lib_a-findfp.o)
 .data          0x0000000002019860        0x0 /opt/devkitpro/devkitARM/bin/../lib/gcc/arm-none-eabi/4.9.2/../../../../arm-none-eabi/lib/libc.a(lib_a-fwalk.o)
 .data          0x0000000002019860        0x0 /opt/devkitpro/devkitARM/bin/../lib/gcc/arm-none-eabi/4.9.2/../../../../arm-none-eabi/lib/libc.a(lib_a-locale.o)
 .data.lc_message_charset
                0x0000000002019860       0x20 /opt/devkitpro/devkitARM/bin/../lib/gcc/arm-none-eabi/4.9.2/../../../../arm-none-eabi/lib/libc.a(lib_a-locale.o)
 .data.lconv    0x0000000002019880       0x38 /opt/devkitpro/devkitARM/bin/../lib/gcc/arm-none-eabi/4.9.2/../../../../arm-none-eabi/lib/libc.a(lib_a-locale.o)
 .data.current_categories
                0x00000000020198b8       0xe0 /opt/devkitpro/devkitARM/bin/../lib/gcc/arm-none-eabi/4.9.2/../../../../arm-none-eabi/lib/libc.a(lib_a-locale.o)
 .data.lc_ctype_charset
                0x0000000002019998       0x20 /opt/devkitpro/devkitARM/bin/../lib/gcc/arm-none-eabi/4.9.2/../../../../arm-none-eabi/lib/libc.a(lib_a-locale.o)
 .data.__default_locale
                0x00000000020199b8       0x20 /opt/devkitpro/devkitARM/bin/../lib/gcc/arm-none-eabi/4.9.2/../../../../arm-none-eabi/lib/libc.a(lib_a-locale.o)
                0x00000000020199b8                __default_locale
 .data.__mb_cur_max
                0x00000000020199d8        0x4 /opt/devkitpro/devkitARM/bin/../lib/gcc/arm-none-eabi/4.9.2/../../../../arm-none-eabi/lib/libc.a(lib_a-locale.o)
                0x00000000020199d8                __mb_cur_max
 .data          0x00000000020199dc        0x0 /opt/devkitpro/devkitARM/bin/../lib/gcc/arm-none-eabi/4.9.2/../../../../arm-none-eabi/lib/libc.a(lib_a-makebuf.o)
 .data          0x00000000020199dc        0x0 /opt/devkitpro/devkitARM/bin/../lib/gcc/arm-none-eabi/4.9.2/../../../../arm-none-eabi/lib/libc.a(lib_a-mbtowc_r.o)
 .data.__mbtowc
                0x00000000020199dc        0x4 /opt/devkitpro/devkitARM/bin/../lib/gcc/arm-none-eabi/4.9.2/../../../../arm-none-eabi/lib/libc.a(lib_a-mbtowc_r.o)
                0x00000000020199dc                __mbtowc
 .data          0x00000000020199e0        0x0 /opt/devkitpro/devkitARM/bin/../lib/gcc/arm-none-eabi/4.9.2/../../../../arm-none-eabi/lib/libc.a(lib_a-mprec.o)
 .data          0x00000000020199e0        0x0 /opt/devkitpro/devkitARM/bin/../lib/gcc/arm-none-eabi/4.9.2/../../../../arm-none-eabi/lib/libc.a(lib_a-s_fpclassify.o)
 .data          0x00000000020199e0        0x0 /opt/devkitpro/devkitARM/bin/../lib/gcc/arm-none-eabi/4.9.2/../../../../arm-none-eabi/lib/libc.a(lib_a-s_frexp.o)
 .data          0x00000000020199e0        0x0 /opt/devkitpro/devkitARM/bin/../lib/gcc/arm-none-eabi/4.9.2/../../../../arm-none-eabi/lib/libc.a(lib_a-stdio.o)
 .data          0x00000000020199e0        0x0 /opt/devkitpro/devkitARM/bin/../lib/gcc/arm-none-eabi/4.9.2/../../../../arm-none-eabi/lib/libc.a(lib_a-strcasecmp.o)
 .data          0x00000000020199e0        0x0 /opt/devkitpro/devkitARM/bin/../lib/gcc/arm-none-eabi/4.9.2/../../../../arm-none-eabi/lib/libc.a(lib_a-strcat.o)
 .data          0x00000000020199e0        0x0 /opt/devkitpro/devkitARM/bin/../lib/gcc/arm-none-eabi/4.9.2/../../../../arm-none-eabi/lib/libc.a(lib_a-strchr.o)
 .data          0x00000000020199e0        0x0 /opt/devkitpro/devkitARM/bin/../lib/gcc/arm-none-eabi/4.9.2/../../../../arm-none-eabi/lib/libc.a(lib_a-strcpy.o)
 .data          0x00000000020199e0        0x0 /opt/devkitpro/devkitARM/bin/../lib/gcc/arm-none-eabi/4.9.2/../../../../arm-none-eabi/lib/libc.a(lib_a-strlcpy.o)
 .data          0x00000000020199e0        0x0 /opt/devkitpro/devkitARM/bin/../lib/gcc/arm-none-eabi/4.9.2/../../../../arm-none-eabi/lib/libc.a(lib_a-strncasecmp.o)
 .data          0x00000000020199e0        0x0 /opt/devkitpro/devkitARM/bin/../lib/gcc/arm-none-eabi/4.9.2/../../../../arm-none-eabi/lib/libc.a(lib_a-strncpy.o)
 .data          0x00000000020199e0        0x0 /opt/devkitpro/devkitARM/bin/../lib/gcc/arm-none-eabi/4.9.2/../../../../arm-none-eabi/lib/libc.a(lib_a-strtol.o)
 .data          0x00000000020199e0        0x0 /opt/devkitpro/devkitARM/bin/../lib/gcc/arm-none-eabi/4.9.2/../../../../arm-none-eabi/lib/libc.a(lib_a-svfiprintf.o)
 .data          0x00000000020199e0        0x0 /opt/devkitpro/devkitARM/bin/../lib/gcc/arm-none-eabi/4.9.2/../../../../arm-none-eabi/lib/libc.a(lib_a-wcsnrtombs.o)
 .data          0x00000000020199e0        0x0 /opt/devkitpro/devkitARM/bin/../lib/gcc/arm-none-eabi/4.9.2/../../../../arm-none-eabi/lib/libc.a(lib_a-callocr.o)
 .data          0x00000000020199e0        0x0 /opt/devkitpro/devkitARM/bin/../lib/gcc/arm-none-eabi/4.9.2/../../../../arm-none-eabi/lib/libc.a(lib_a-ctype_.o)
 .data.__ctype_ptr__
                0x00000000020199e0        0x4 /opt/devkitpro/devkitARM/bin/../lib/gcc/arm-none-eabi/4.9.2/../../../../arm-none-eabi/lib/libc.a(lib_a-ctype_.o)
                0x00000000020199e0                __ctype_ptr__
 .data          0x00000000020199e4        0x0 /opt/devkitpro/devkitARM/bin/../lib/gcc/arm-none-eabi/4.9.2/../../../../arm-none-eabi/lib/libc.a(lib_a-fclose.o)
 .data          0x00000000020199e4        0x0 /opt/devkitpro/devkitARM/bin/../lib/gcc/arm-none-eabi/4.9.2/../../../../arm-none-eabi/lib/libc.a(lib_a-getenv_r.o)
 .data          0x00000000020199e4        0x0 /opt/devkitpro/devkitARM/bin/../lib/gcc/arm-none-eabi/4.9.2/../../../../arm-none-eabi/lib/libc.a(lib_a-environ.o)
 .data.environ  0x00000000020199e4        0x4 /opt/devkitpro/devkitARM/bin/../lib/gcc/arm-none-eabi/4.9.2/../../../../arm-none-eabi/lib/libc.a(lib_a-environ.o)
                0x00000000020199e4                environ
 .data          0x00000000020199e8        0x0 /opt/devkitpro/devkitARM/bin/../lib/gcc/arm-none-eabi/4.9.2/../../../../arm-none-eabi/lib/libc.a(lib_a-envlock.o)
 .data          0x00000000020199e8        0x0 /opt/devkitpro/devkitARM/bin/../lib/gcc/arm-none-eabi/4.9.2/../../../../arm-none-eabi/lib/libsysbase.a(close.o)
 .data          0x00000000020199e8        0x0 /opt/devkitpro/devkitARM/bin/../lib/gcc/arm-none-eabi/4.9.2/../../../../arm-none-eabi/lib/libsysbase.a(fstat.o)
 .data          0x00000000020199e8        0x0 /opt/devkitpro/devkitARM/bin/../lib/gcc/arm-none-eabi/4.9.2/../../../../arm-none-eabi/lib/libsysbase.a(getpid.o)
 .data          0x00000000020199e8        0x0 /opt/devkitpro/devkitARM/bin/../lib/gcc/arm-none-eabi/4.9.2/../../../../arm-none-eabi/lib/libsysbase.a(isatty.o)
 .data          0x00000000020199e8        0x0 /opt/devkitpro/devkitARM/bin/../lib/gcc/arm-none-eabi/4.9.2/../../../../arm-none-eabi/lib/libsysbase.a(kill.o)
 .data          0x00000000020199e8        0x0 /opt/devkitpro/devkitARM/bin/../lib/gcc/arm-none-eabi/4.9.2/../../../../arm-none-eabi/lib/libsysbase.a(lseek.o)
 .data          0x00000000020199e8        0x0 /opt/devkitpro/devkitARM/bin/../lib/gcc/arm-none-eabi/4.9.2/../../../../arm-none-eabi/lib/libsysbase.a(read.o)
 .data          0x00000000020199e8        0x0 /opt/devkitpro/devkitARM/bin/../lib/gcc/arm-none-eabi/4.9.2/../../../../arm-none-eabi/lib/libsysbase.a(sbrk.o)
 .data          0x00000000020199e8        0x0 /opt/devkitpro/devkitARM/bin/../lib/gcc/arm-none-eabi/4.9.2/../../../../arm-none-eabi/lib/libsysbase.a(write.o)
 .data          0x00000000020199e8        0x0 /opt/devkitpro/devkitARM/bin/../lib/gcc/arm-none-eabi/4.9.2/../../../../arm-none-eabi/lib/libsysbase.a(_exit.o)
 .data          0x00000000020199e8        0x0 /opt/devkitpro/devkitARM/bin/../lib/gcc/arm-none-eabi/4.9.2/../../../../arm-none-eabi/lib/libsysbase.a(malloc_vars.o)
 .data          0x00000000020199e8        0x0 /opt/devkitpro/devkitARM/bin/../lib/gcc/arm-none-eabi/4.9.2/../../../../arm-none-eabi/lib/libsysbase.a(flock.o)
 .data          0x00000000020199e8        0x0 /opt/devkitpro/devkitARM/bin/../lib/gcc/arm-none-eabi/4.9.2/../../../../arm-none-eabi/lib/libsysbase.a(syscall_support.o)
 .data          0x00000000020199e8     0x1024 /opt/devkitpro/devkitARM/bin/../lib/gcc/arm-none-eabi/4.9.2/../../../../arm-none-eabi/lib/libsysbase.a(handle_manager.o)
 .data          0x000000000201aa0c        0x0 /opt/devkitpro/devkitARM/bin/../lib/gcc/arm-none-eabi/4.9.2/../../../../arm-none-eabi/lib/libsysbase.a(getreent.o)
 .data          0x000000000201aa0c       0x44 /opt/devkitpro/devkitARM/bin/../lib/gcc/arm-none-eabi/4.9.2/../../../../arm-none-eabi/lib/libsysbase.a(iosupport.o)
                0x000000000201aa10                devoptab_list
 .data          0x000000000201aa50        0x0 /opt/devkitpro/devkitARM/bin/../lib/gcc/arm-none-eabi/4.9.2/libgcc.a(_udivsi3.o)
 .data          0x000000000201aa50        0x0 /opt/devkitpro/devkitARM/bin/../lib/gcc/arm-none-eabi/4.9.2/libgcc.a(_divsi3.o)
 .data          0x000000000201aa50        0x0 /opt/devkitpro/devkitARM/bin/../lib/gcc/arm-none-eabi/4.9.2/libgcc.a(_dvmd_tls.o)
 .data          0x000000000201aa50        0x0 /opt/devkitpro/devkitARM/bin/../lib/gcc/arm-none-eabi/4.9.2/libgcc.a(_arm_addsubdf3.o)
 .data          0x000000000201aa50        0x0 /opt/devkitpro/devkitARM/bin/../lib/gcc/arm-none-eabi/4.9.2/libgcc.a(_arm_muldivdf3.o)
 .data          0x000000000201aa50        0x0 /opt/devkitpro/devkitARM/bin/../lib/gcc/arm-none-eabi/4.9.2/libgcc.a(_arm_cmpdf2.o)
 .data          0x000000000201aa50        0x0 /opt/devkitpro/devkitARM/bin/../lib/gcc/arm-none-eabi/4.9.2/libgcc.a(_arm_fixdfsi.o)
 .data          0x000000000201aa50        0x0 /opt/devkitpro/devkitARM/bin/../lib/gcc/arm-none-eabi/4.9.2/libgcc.a(_aeabi_uldivmod.o)
 .data          0x000000000201aa50        0x0 /opt/devkitpro/devkitARM/bin/../lib/gcc/arm-none-eabi/4.9.2/libgcc.a(bpabi.o)
 .data          0x000000000201aa50        0x0 /opt/devkitpro/devkitARM/bin/../lib/gcc/arm-none-eabi/4.9.2/libgcc.a(_divdi3.o)
 .data          0x000000000201aa50        0x0 /opt/devkitpro/devkitARM/bin/../lib/gcc/arm-none-eabi/4.9.2/libgcc.a(_udivdi3.o)
 .data          0x000000000201aa50        0x0 /opt/devkitpro/devkitARM/bin/../lib/gcc/arm-none-eabi/4.9.2/libgcc.a(_clzdi2.o)
 .data          0x000000000201aa50        0x0 /opt/devkitpro/devkitARM/bin/../lib/gcc/arm-none-eabi/4.9.2/libgcc.a(_clzsi2.o)
 .data          0x000000000201aa50        0x0 /opt/devkitpro/devkitARM/bin/../lib/gcc/arm-none-eabi/4.9.2/../../../../arm-none-eabi/lib/libc.a(lib_a-errno.o)
 .data          0x000000000201aa50        0x0 /opt/devkitpro/devkitARM/bin/../lib/gcc/arm-none-eabi/4.9.2/crtend.o
 .data          0x000000000201aa50        0x0 /opt/devkitpro/devkitARM/bin/../lib/gcc/arm-none-eabi/4.9.2/crtn.o
                0x000000000201aa50                . = ALIGN (0x4)
                0x000000000201aa50                __data_end = .

.fini_array     0x000000000201aa50        0x4 load address 0x000000000808f140
 .fini_array    0x000000000201aa50        0x4 /opt/devkitpro/devkitARM/bin/../lib/gcc/arm-none-eabi/4.9.2/crtbegin.o

.eh_frame       0x000000000201aa54       0x48 load address 0x000000000808f144
 .eh_frame      0x000000000201aa54        0x0 /opt/devkitpro/devkitARM/bin/../lib/gcc/arm-none-eabi/4.9.2/crtbegin.o
 .eh_frame      0x000000000201aa54       0x44 /opt/devkitpro/devkitARM/bin/../lib/gcc/arm-none-eabi/4.9.2/../../../../arm-none-eabi/lib/libc.a(lib_a-strcmp.o)
 .eh_frame      0x000000000201aa98        0x4 /opt/devkitpro/devkitARM/bin/../lib/gcc/arm-none-eabi/4.9.2/crtend.o

.tm_clone_table
                0x000000000201aa9c        0x0 load address 0x000000000808f18c
 .tm_clone_table
                0x000000000201aa9c        0x0 /opt/devkitpro/devkitARM/bin/../lib/gcc/arm-none-eabi/4.9.2/crtbegin.o
 .tm_clone_table
                0x000000000201aa9c        0x0 /opt/devkitpro/devkitARM/bin/../lib/gcc/arm-none-eabi/4.9.2/crtend.o

.igot.plt       0x000000000201aa9c        0x0 load address 0x000000000808f18c
 .igot.plt      0x000000000201aa9c        0x0 /opt/devkitpro/devkitARM/bin/../lib/gcc/arm-none-eabi/4.9.2/crtbegin.o

.iwram_data     0x0000000003000000      0x18c load address 0x000000000808f18c
                0x000000000808f18c                __iwram_data_load = LOADADDR (.iwram_data)
                0x0000000003000000                __iwram_data_start = .
 *(.iwram_data .iwram_data.*)
 .iwram_data    0x0000000003000000       0x20 objs/bg_reg_stuff.arm.o
                0x0000000003000000                bgofs_mirror
 .iwram_data    0x0000000003000020       0x8c objs/block_stuff.thumb.o
                0x0000000003000020                block_stuff_array
 .iwram_data    0x00000000030000ac        0x4 objs/button_stuff.thumb.o
                0x00000000030000ac                __key_state
 .iwram_data    0x00000000030000b0        0x4 objs/debug_vars.thumb.o
                0x00000000030000b0                curr_debug_st_result_index
 .iwram_data    0x00000000030000b4        0x8 objs/player_sprite_stuff_class.thumb.o
                0x00000000030000b4                player_sprite_stuff::speed
                0x00000000030000b8                player_sprite_stuff::run_toggle
                0x00000000030000b9                player_sprite_stuff::use_16x16
 .iwram_data    0x00000000030000bc       0x90 objs/sprite_manager_class.thumb.o
                0x00000000030000bc                sprite_manager::the_player
 .iwram_data    0x000000000300014c       0x40 objs/sprite_type_stuff.thumb.o
                0x000000000300014c                sprite_stuff_array
                0x000000000300016c                the_warp_block_sprite_stuff
                0x0000000003000170                the_chocolate_muffin_sprite_stuff
                0x0000000003000174                the_ice_muffin_sprite_stuff
                0x0000000003000178                the_fire_muffin_sprite_stuff
                0x000000000300017c                the_muffin_sprite_stuff
                0x0000000003000180                the_waffle_sprite_stuff
                0x0000000003000184                the_player_sprite_stuff
                0x0000000003000188                the_sprite_base_stuff
                0x000000000300018c                . = ALIGN (0x4)
                0x000000000300018c                __iwram_data_end = .

.iwram_code     0x0000000003000190     0x3b70 load address 0x000000000808f318
                0x000000000808f318                iwram_code_rom_start = LOADADDR (.iwram_code)
                0x0000000003000190                iwram_code_iwram_start = .
 *(.iwram_code)
 .iwram_code    0x0000000003000190      0x460 objs/active_level_manager_class.arm.o
                0x0000000003000190                active_level_manager::horiz_sublevel_tile_at_basic(unsigned long, unsigned long)
                0x0000000003000260                active_level_manager::horiz_sublevel_tile_at(unsigned long, unsigned long)
                0x00000000030002d0                active_level_manager::correct_bg0_scroll_mirror(vec2<unsigned long> const&)
                0x0000000003000358                active_level_manager::update_sublevel_in_screenblock_mirror_2d()
                0x00000000030005bc                active_level_manager::copy_sublevel_from_array_2d_helper_to_vram()
 .iwram_code    0x00000000030005f0       0x10 objs/air_block_stuff_class.thumb.o
                0x00000000030005f0                air_block_stuff::get_metatile_number()
                0x00000000030005f4                air_block_stuff::get_palette_number()
                0x00000000030005f8                air_block_stuff::get_metatile_graphics_slot()
                0x00000000030005fc                air_block_stuff::strongly_hit_response(block&, vec2<long> const&)
 .iwram_code    0x0000000003000600       0x10 objs/block_base_stuff_class.thumb.o
                0x0000000003000600                block_base_stuff::get_metatile_number()
                0x0000000003000604                block_base_stuff::get_palette_number()
                0x0000000003000608                block_base_stuff::get_metatile_graphics_slot()
                0x000000000300060c                block_base_stuff::strongly_hit_response(block&, vec2<long> const&)
 .iwram_code    0x0000000003000610       0x48 objs/block_stuff.thumb.o
                0x0000000003000610                update_block_graphics_in_vram(unsigned short const*)
 .iwram_code    0x0000000003000658       0xe4 objs/coll_box_class.arm.o
                0x0000000003000658                coll_box_intersects_now(coll_box const&, coll_box const&)
                0x00000000030006b8                coll_box_intersects_now_2(coll_box const&, coll_box const&)
 .iwram_code    0x000000000300073c       0x34 objs/coll_box_class.thumb.o
                0x000000000300073c                coll_box::contains(vec2<fixed24p8> const&)
 .iwram_code    0x0000000003000770      0x1cc objs/coll_point_group_class.thumb.o
                0x0000000003000770                generate_coll_point_group_16x16(sprite const&, coll_point_group&)
                0x0000000003000808                generate_coll_point_group_16x32(sprite const&, coll_point_group&)
                0x00000000030008a8                generate_coll_point_group_32x16(sprite const&, coll_point_group&)
 .iwram_code    0x000000000300093c       0x50 objs/debug_vars.thumb.o
                0x000000000300093c                clear_debug_vars()
 .iwram_code    0x000000000300098c       0x34 objs/division_funcs.o
                0x000000000300098c                lut_udiv
 .iwram_code    0x00000000030009c0       0x10 objs/dud_block_stuff_class.thumb.o
                0x00000000030009c0                dud_block_stuff::get_metatile_number()
                0x00000000030009c4                dud_block_stuff::get_palette_number()
                0x00000000030009c8                dud_block_stuff::get_metatile_graphics_slot()
                0x00000000030009cc                dud_block_stuff::strongly_hit_response(block&, vec2<long> const&)
 .iwram_code    0x00000000030009d0       0x2c objs/exclam_block_stuff_classes.thumb.o
                0x00000000030009d0                exclam_block_stuff::get_metatile_number()
                0x00000000030009d4                exclam_block_stuff::get_palette_number()
                0x00000000030009d8                exclam_block_stuff::get_metatile_graphics_slot()
                0x00000000030009dc                exclam_block_stuff::strongly_hit_response(block&, vec2<long> const&)
 .iwram_code    0x00000000030009fc      0x1f8 objs/eyes_block_stuff_classes.thumb.o
                0x00000000030009fc                eyes_block_stuff::get_metatile_number()
                0x0000000003000a00                eyes_block_stuff::get_palette_number()
                0x0000000003000a04                eyes_block_stuff::get_metatile_graphics_slot()
                0x0000000003000a08                eyes_block_stuff::strongly_hit_response(block&, vec2<long> const&)
                0x0000000003000a28                eyes_block_with_st_waffle_stuff::strongly_hit_response(block&, vec2<long> const&)
                0x0000000003000a84                eyes_block_with_st_muffin_stuff::strongly_hit_response(block&, vec2<long> const&)
                0x0000000003000ae0                eyes_block_with_st_fire_muffin_stuff::strongly_hit_response(block&, vec2<long> const&)
                0x0000000003000b3c                eyes_block_with_st_ice_muffin_stuff::strongly_hit_response(block&, vec2<long> const&)
                0x0000000003000b98                eyes_block_with_st_chocolate_muffin_stuff::strongly_hit_response(block&, vec2<long> const&)
 .iwram_code    0x0000000003000bf4       0x54 objs/fixed_classes.thumb.o
                0x0000000003000bf4                f24p8_div_by_f8p8(fixed24p8 const&, fixed8p8 const&)
 .iwram_code    0x0000000003000c48       0x7c objs/interrupt_stuff.arm.o
                0x0000000003000c48                isr_main()
 .iwram_code    0x0000000003000cc4        0x4 objs/interrupt_stuff.thumb.o
                0x0000000003000cc4                irq_dummy()
 .iwram_code    0x0000000003000cc8       0x10 objs/log_block_stuff_class.thumb.o
                0x0000000003000cc8                log_block_stuff::get_metatile_number()
                0x0000000003000ccc                log_block_stuff::get_palette_number()
                0x0000000003000cd0                log_block_stuff::get_metatile_graphics_slot()
                0x0000000003000cd4                log_block_stuff::strongly_hit_response(block&, vec2<long> const&)
 .iwram_code    0x0000000003000cd8       0xdc objs/main.thumb.o
                0x0000000003000cd8                vblank_func()
 .iwram_code    0x0000000003000db4       0x88 objs/memcpy32_from_tonc.o
                0x0000000003000db4                memcpy32
                0x0000000003000dec                memfill32
 .iwram_code    0x0000000003000e3c       0x24 objs/memory_funcs_8bit.o
                0x0000000003000e3c                memcpy8
                0x0000000003000e50                memfill8
 .iwram_code    0x0000000003000e60      0x1f8 objs/player_sprite_stuff_class.thumb.o
                0x0000000003000e60                player_sprite_stuff::block_coll_response_top_16x16(sprite&, block_coll_result const&, block_coll_result const&, block_coll_result const&)
                0x0000000003000eb8                player_sprite_stuff::update_part_2(sprite&, vec2<short>&, vec2<unsigned long> const&)
                0x0000000003000f54                player_sprite_stuff::handle_jumping_stuff(sprite&, unsigned long, unsigned long)
                0x0000000003000fa4                player_sprite_stuff::block_collision_stuff(sprite&)
                0x0000000003000fe4                player_sprite_stuff::block_coll_response_top_16x32(sprite&, block_coll_result const&, block_coll_result const&, block_coll_result const&)
 .iwram_code    0x0000000003001058       0x18 objs/ram_funcs1.o
                0x0000000003001058                iwram_test_func
                0x0000000003001060                iwram_test_func2
 .iwram_code    0x0000000003001070     0x20a4 objs/sprite_base_stuff_class.arm.o
                0x0000000003001070                sprite_base_stuff::non_slope_block_coll_response_bot_16x16(sprite&, block_coll_result const&, block_coll_result const&, block_coll_result const&)
                0x00000000030010b4                sprite_base_stuff::block_coll_response_left_16x32(sprite&, block_coll_result const&, block_coll_result const&, block_coll_result const&)
                0x00000000030010d8                sprite_base_stuff::block_coll_response_right_16x32(sprite&, block_coll_result const&, block_coll_result const&, block_coll_result const&)
                0x0000000003001100                sprite_base_stuff::non_slope_block_coll_response_bot_16x32(sprite&, block_coll_result const&, block_coll_result const&, block_coll_result const&)
                0x000000000300117c                sprite_base_stuff::get_basic_block_coll_results_left_16x16(coll_point_group&, block_coll_result&, block_coll_result&)
                0x000000000300123c                sprite_base_stuff::get_basic_block_coll_results_top_16x16(coll_point_group&, block_coll_result&, block_coll_result&, block_coll_result&)
                0x0000000003001354                sprite_base_stuff::get_basic_block_coll_results_right_16x16(coll_point_group&, block_coll_result&, block_coll_result&)
                0x0000000003001414                sprite_base_stuff::get_basic_block_coll_results_bot_16x16(coll_point_group&, block_coll_result&, block_coll_result&, block_coll_result&)
                0x000000000300152c                sprite_base_stuff::get_basic_block_coll_results_left_16x32(coll_point_group&, block_coll_result&, block_coll_result&, block_coll_result&)
                0x0000000003001644                sprite_base_stuff::get_basic_block_coll_results_top_16x32(coll_point_group&, block_coll_result&, block_coll_result&, block_coll_result&)
                0x000000000300175c                sprite_base_stuff::get_basic_block_coll_results_right_16x32(coll_point_group&, block_coll_result&, block_coll_result&, block_coll_result&)
                0x0000000003001874                sprite_base_stuff::get_basic_block_coll_results_bot_16x32(coll_point_group&, block_coll_result&, block_coll_result&, block_coll_result&)
                0x000000000300198c                sprite_base_stuff::block_coll_response_left_16x16(sprite&, block_coll_result const&, block_coll_result const&)
                0x00000000030019b0                sprite_base_stuff::block_coll_response_top_16x16(sprite&, block_coll_result const&, block_coll_result const&, block_coll_result const&)
                0x00000000030019e0                sprite_base_stuff::block_coll_response_right_16x16(sprite&, block_coll_result const&, block_coll_result const&)
                0x0000000003001a08                sprite_base_stuff::slope_block_coll_response_bot_16x16(sprite&, coll_point_group&, block_coll_result&, block_coll_result&, block_coll_result&, bool)
                0x0000000003001a10                sprite_base_stuff::block_coll_response_top_16x32(sprite&, block_coll_result const&, block_coll_result const&, block_coll_result const&)
                0x0000000003001a1c                sprite_base_stuff::slope_block_coll_response_bot_16x32(sprite&, coll_point_group&, block_coll_result&, block_coll_result&, block_coll_result&, bool)
                0x0000000003002044                sprite_base_stuff::apply_gravity(sprite&)
                0x000000000300205c                sprite_base_stuff::block_collision_stuff_16x16(sprite&)
                0x0000000003002554                sprite_base_stuff::block_collision_stuff_16x32(sprite&)
                0x000000000300310c                sprite_base_stuff::block_collision_stuff_32x16(sprite&)
                0x0000000003003110                sprite_base_stuff::block_collision_stuff_32x32(sprite&)
 .iwram_code    0x0000000003003114       0xdc objs/sprite_base_stuff_class.thumb.o
                0x0000000003003114                sprite_base_stuff::update_part_1(sprite&)
                0x0000000003003150                sprite_base_stuff::update_part_2(sprite&, vec2<short>&, vec2<unsigned long> const&)
                0x0000000003003154                sprite_base_stuff::get_curr_tile_slot(sprite&)
                0x000000000300315c                sprite_base_stuff::get_gfx_category(sprite&)
                0x0000000003003160                sprite_base_stuff::get_curr_relative_tile_slot(sprite&)
                0x0000000003003164                sprite_base_stuff::block_collision_stuff(sprite&)
                0x0000000003003168                sprite_base_stuff::handle_jumping_stuff(sprite&, unsigned long, unsigned long)
                0x000000000300316c                sprite_base_stuff::update_part_2(sprite&, vec2<short> const&, int&)
                0x00000000030031ac                sprite_base_stuff::gfx_update(sprite&)
 .iwram_code    0x00000000030031f0      0x1e8 objs/sprite_class.thumb.o
                0x00000000030031f0                sprite::update_on_screen_pos(vec2<short> const&)
                0x0000000003003270                sprite::camera_follow_basic(vec2<short>&)
                0x000000000300330c                sprite::center_camera_almost(vec2<short>&) const
                0x0000000003003330                sprite::block_collision_stuff()
                0x0000000003003354                sprite::get_shape_size_as_vec2_raw() const
 .iwram_code    0x00000000030033d8       0x94 objs/sprite_gfx_stuff.thumb.o
                0x00000000030033d8                sprite_gfx_manager::upload_sprite_tiles_to_vram(sprite&)
 .iwram_code    0x000000000300346c      0x500 objs/sprite_manager_class.arm.o
                0x000000000300346c                sprite_manager::spawn_sprites_if_needed(prev_curr_pair<vec2<short> > const&)
                0x000000000300360c                sprite_manager::despawn_sprites_if_needed(prev_curr_pair<vec2<short> > const&)
                0x0000000003003664                sprite_manager::spawn_a_sprite_basic(sprite_type, vec2<fixed24p8> const&, vec2<short> const&, bool)
                0x000000000300370c                sprite_manager::update_all_sprites(vec2<unsigned long> const&, prev_curr_pair<vec2<short> >&, int&)
 .iwram_code    0x000000000300396c       0xd4 objs/waffle_sprite_stuff_class.thumb.o
                0x000000000300396c                waffle_sprite_stuff::block_coll_response_left_16x16(sprite&, block_coll_result const&, block_coll_result const&)
                0x0000000003003990                waffle_sprite_stuff::block_coll_response_right_16x16(sprite&, block_coll_result const&, block_coll_result const&)
                0x00000000030039b4                waffle_sprite_stuff::update_part_1(sprite&)
 .iwram_code    0x0000000003003a40      0x218 objs/wood_block_stuff_classes.thumb.o
                0x0000000003003a40                wood_block_stuff::get_metatile_number()
                0x0000000003003a44                wood_block_stuff::get_palette_number()
                0x0000000003003a48                wood_block_stuff::get_metatile_graphics_slot()
                0x0000000003003a4c                wood_block_stuff::strongly_hit_response(block&, vec2<long> const&)
                0x0000000003003a6c                wood_block_with_bt_dud_stuff::strongly_hit_response(block&, vec2<long> const&)
                0x0000000003003a8c                wood_block_with_st_waffle_stuff::strongly_hit_response(block&, vec2<long> const&)
                0x0000000003003ae8                wood_block_with_st_muffin_stuff::strongly_hit_response(block&, vec2<long> const&)
                0x0000000003003b44                wood_block_with_st_fire_muffin_stuff::strongly_hit_response(block&, vec2<long> const&)
                0x0000000003003ba0                wood_block_with_st_ice_muffin_stuff::strongly_hit_response(block&, vec2<long> const&)
                0x0000000003003bfc                wood_block_with_st_chocolate_muffin_stuff::strongly_hit_response(block&, vec2<long> const&)
 .iwram_code.__stub
                0x0000000003003c58       0x9c linker stubs
                0x0000000003003cf4                . = ALIGN (0x4)
                0x0000000000003b70                iwram_code_size = SIZEOF (.iwram_code)

.maxmod_code    0x0000000003003d00     0x13dc load address 0x0000000008092e88
                0x0000000003003d00                . = ALIGN (0x4)
                0x0000000008092e88                maxmod_code_rom_start = LOADADDR (.maxmod_code)
                0x0000000003003d00                maxmod_code_iwram_start = .
 *(.iwram)
 .iwram         0x0000000003003d00        0x8 ./maxmod/lib/libmm.a(mm_main.o)
                0x0000000003003d00                mpp_call_r7i
                0x0000000003003d02                mpp_call_r2i
                0x0000000003003d04                mpp_call_r1i
 .iwram         0x0000000003003d08      0x554 ./maxmod/lib/libmm.a(mm_mas.o)
                0x0000000003003d08                mppProcessTick
                0x0000000003003dec                mpp_Channel_NewNote
                0x0000000003003ecc                mpp_Update_ACHN_notest
 .iwram         0x000000000300425c      0x838 ./maxmod/lib/libmm.a(mm_mixer_gba.o)
                0x0000000003004260                mmVBlank
                0x00000000030042e4                mmMixerMix
 .iwram         0x0000000003004a94      0x648 ./maxmod/lib/libmm.a(mm_mas_arm.o)
                0x0000000003004a94                mmAllocChannel
                0x0000000003004b08                mmReadPattern
                0x0000000003004bf4                mmUpdateChannel_T0
                0x0000000003004e34                mmUpdateChannel_TN
                0x0000000003004fd4                mmGetPeriod
                0x0000000003005018                note_table_oct
                0x0000000003005036                note_table_mod
                0x00000000030050dc                maxmod_code_iwram_end = .
                0x00000000030050dc                . = ALIGN (0x4)
                0x00000000000013dc                maxmod_code_size = SIZEOF (.maxmod_code)

.iwram_bss      0x00000000030050dc        0x0 load address 0x0000000008094264
 *(.iwram_bss)
                0x00000000030050dc                . = ALIGN (0x4)

.ewram_code     0x000000000201aa9c        0xc load address 0x0000000008094264
                0x0000000008094264                ewram_code_rom_start = LOADADDR (.ewram_code)
                0x000000000201aa9c                ewram_code_ewram_start = .
 *(.ewram_code)
 .ewram_code    0x000000000201aa9c        0xc objs/ram_funcs1.o
                0x000000000201aa9c                ewram_test_func
                0x000000000201aaa8                . = ALIGN (0x4)
                0x000000000000000c                ewram_code_size = SIZEOF (.ewram_code)

.rel.dyn        0x000000000201aaa8        0x0 load address 0x0000000008094270
 .rel.iplt      0x000000000201aaa8        0x0 /opt/devkitpro/devkitARM/bin/../lib/gcc/arm-none-eabi/4.9.2/crtbegin.o

.bss            0x000000000201aaa8     0x28ac load address 0x0000000008094270
                0x000000000201aaa8                __bss_start__ = .
 *(.bss .bss.* .gnu.linkonce.b.*)
 .bss           0x000000000201aaa8        0x0 /opt/devkitpro/devkitARM/bin/../lib/gcc/arm-none-eabi/4.9.2/crti.o
 .bss           0x000000000201aaa8       0x1c /opt/devkitpro/devkitARM/bin/../lib/gcc/arm-none-eabi/4.9.2/crtbegin.o
 .bss           0x000000000201aac4        0x0 /opt/devkitpro/devkitARM/bin/../lib/gcc/arm-none-eabi/4.9.2/../../../../arm-none-eabi/lib/crt0.o
 .bss           0x000000000201aac4       0x50 objs/active_level_class.thumb.o
                0x000000000201aac4                active_level::horiz_sublevel_block_data_2d
                0x000000000201aad4                active_level::bg0_screenblock_2d
                0x000000000201aae4                active_level::bg0_screenblock_mirror_2d
                0x000000000201aaf4                active_level::the_current_sublevel_ptr
 .bss           0x000000000201ab14        0x0 objs/active_level_manager_class.arm.o
 .bss           0x000000000201ab14      0x230 objs/active_level_manager_class.thumb.o
                0x000000000201ab14                active_level_manager::converted_block_tile_ids_3
                0x000000000201aba0                active_level_manager::converted_block_tile_ids_2
                0x000000000201ac2c                active_level_manager::converted_block_tile_ids_1
                0x000000000201acb8                active_level_manager::converted_block_tile_ids_0
 .bss           0x000000000201ad44        0x0 objs/air_block_stuff_class.thumb.o
 .bss           0x000000000201ad44        0x0 objs/asm_init.o
 .bss           0x000000000201ad44        0x0 objs/bg_reg_stuff.arm.o
 .bss           0x000000000201ad44        0x0 objs/block_base_stuff_class.thumb.o
 .bss           0x000000000201ad44        0x0 objs/block_stuff.thumb.o
 .bss           0x000000000201ad44        0x0 objs/button_stuff.thumb.o
 .bss           0x000000000201ad44        0x0 objs/coll_box_class.arm.o
 .bss           0x000000000201ad44        0x0 objs/coll_box_class.thumb.o
 .bss           0x000000000201ad44        0x0 objs/coll_point_group_class.thumb.o
 .bss           0x000000000201ad44      0x1d0 objs/debug_vars.thumb.o
                0x000000000201ad44                curr_debug_s32_index
                0x000000000201ad48                curr_debug_u32_index
                0x000000000201ad4c                curr_debug_f24p8_index
                0x000000000201ad50                debug_arr_s32
                0x000000000201add0                debug_arr_u32
                0x000000000201ae50                debug_arr_f24p8
                0x000000000201aed0                debug_arr_f8p8
                0x000000000201af10                curr_debug_f8p8_index
 .bss           0x000000000201af14        0x0 objs/division_funcs.o
 .bss           0x000000000201af14       0x10 objs/dma_stuff.thumb.o
                0x000000000201af14                dma3cnt_mirror
                0x000000000201af18                dma0cnt_mirror
                0x000000000201af1c                dma2cnt_mirror
                0x000000000201af20                dma1cnt_mirror
 .bss           0x000000000201af24        0x0 objs/dud_block_stuff_class.thumb.o
 .bss           0x000000000201af24        0x0 objs/exclam_block_stuff_classes.thumb.o
 .bss           0x000000000201af24        0x0 objs/eyes_block_stuff_classes.thumb.o
 .bss           0x000000000201af24        0x0 objs/fixed_classes.thumb.o
 .bss           0x000000000201af24        0x0 objs/grass_and_dirt_block_stuff_classes.thumb.o
 .bss           0x000000000201af24        0x0 objs/interrupt_stuff.arm.o
 .bss           0x000000000201af24       0x38 objs/interrupt_stuff.thumb.o
                0x000000000201af24                isr_table
 .bss           0x000000000201af5c        0x0 objs/level_class.thumb.o
 .bss           0x000000000201af5c        0x0 objs/log_block_stuff_class.thumb.o
 .bss           0x000000000201af5c        0x4 objs/main.thumb.o
                0x000000000201af5c                test_int_global
 .bss           0x000000000201af60        0x0 objs/memcpy32_from_tonc.o
 .bss           0x000000000201af60        0x0 objs/memory_funcs_8bit.o
 .bss           0x000000000201af60        0x0 objs/muffin_sprite_stuff_classes.thumb.o
 .bss           0x000000000201af60      0x400 objs/oam_entry_classes.thumb.o
                0x000000000201af60                oam_mirror
 .bss           0x000000000201b360        0x0 objs/player_sprite_stuff_class.thumb.o
 .bss           0x000000000201b360        0x0 objs/practice_17.bin.o
 .bss           0x000000000201b360        0x0 objs/ram_funcs1.o
 .bss           0x000000000201b360        0x0 objs/sherwin_gfx.o
 .bss           0x000000000201b360        0x0 objs/sprite_base_stuff_class.arm.o
 .bss           0x000000000201b360        0x0 objs/sprite_base_stuff_class.thumb.o
 .bss           0x000000000201b360        0x0 objs/sprite_class.thumb.o
 .bss           0x000000000201b360        0x0 objs/sprite_gfx_stuff.thumb.o
 .bss           0x000000000201b360        0x0 objs/sprite_manager_class.arm.o
 .bss           0x000000000201b360      0xb40 objs/sprite_manager_class.thumb.o
                0x000000000201b360                sprite_manager::the_sprites
 .bss           0x000000000201bea0        0x0 objs/sprite_type_stuff.thumb.o
 .bss           0x000000000201bea0        0x0 objs/sublevel_class.thumb.o
 .bss           0x000000000201bea0        0x0 objs/test_level.thumb.o
 .bss           0x000000000201bea0        0x0 objs/the_block_gfx.o
 .bss           0x000000000201bea0        0x0 objs/the_block_like_sprites_gfx.o
 .bss           0x000000000201bea0        0x0 objs/the_golem_enemy_gfx.o
 .bss           0x000000000201bea0        0x0 objs/the_powerup_gfx.o
 .bss           0x000000000201bea0        0x0 objs/title_screen.o
 .bss           0x000000000201bea0        0x0 objs/waffle_sprite_stuff_class.arm.o
 .bss           0x000000000201bea0        0x0 objs/waffle_sprite_stuff_class.thumb.o
 .bss           0x000000000201bea0        0x0 objs/warp_block_sprite_stuff_class.thumb.o
 .bss           0x000000000201bea0        0x0 objs/wood_block_stuff_classes.thumb.o
 .bss           0x000000000201bea0       0x20 ./maxmod/lib/libmm.a(mm_main.o)
                0x000000000201bea0                mmCallback
                0x000000000201bea4                mmModuleCount
                0x000000000201bea8                mmModuleBank
                0x000000000201beac                mmSampleBank
                0x000000000201beb0                mm_ch_mask
                0x000000000201beb4                mm_vblank_function
                0x000000000201beb8                mmInitialized
                0x000000000201bebc                mp_solution
 .bss           0x000000000201bec0      0x148 ./maxmod/lib/libmm.a(mm_mas.o)
                0x000000000201bec0                mmLayerMain
                0x000000000201bef8                mmLayerSub
                0x000000000201bf30                mpp_vars
                0x000000000201bf40                mpp_layerp
                0x000000000201bf44                mpp_channels
                0x000000000201bf54                mpp_nchannels
                0x000000000201bf55                mpp_clayer
                0x000000000201bf58                mm_achannels
                0x000000000201bf5c                mm_pchannels
                0x000000000201bf60                mm_num_mch
                0x000000000201bf64                mm_num_ach
                0x000000000201bf68                mm_schannels
 .bss           0x000000000201c008      0x420 ./maxmod/lib/libmm.a(mm_init_default.o)
 .bss           0x000000000201c428      0x1bc ./maxmod/lib/libmm.a(mm_mixer_gba.o)
                0x000000000201c428                mp_writepos
                0x000000000201c430                mm_mixchannels
                0x000000000201c438                mm_mixlen
                0x000000000201c44c                mm_bpmdv
                0x000000000201c450                mp_mix_seg
 .bss           0x000000000201c5e4       0x30 ./maxmod/lib/libmm.a(mm_effect.o)
                0x000000000201c608                mm_sfx_bitmask
                0x000000000201c60c                mm_sfx_clearmask
 .bss           0x000000000201c614        0x0 ./maxmod/lib/libmm.a(mm_mas_arm.o)
 .bss           0x000000000201c614        0x0 /opt/devkitpro/devkitARM/bin/../lib/gcc/arm-none-eabi/4.9.2/libgcc.a(_call_via_rX.o)
 .bss           0x000000000201c614        0x0 /opt/devkitpro/devkitARM/bin/../lib/gcc/arm-none-eabi/4.9.2/libgcc.a(unwind-arm.o)
 .bss           0x000000000201c614        0x0 /opt/devkitpro/devkitARM/bin/../lib/gcc/arm-none-eabi/4.9.2/libgcc.a(libunwind.o)
 .bss           0x000000000201c614        0x0 /opt/devkitpro/devkitARM/bin/../lib/gcc/arm-none-eabi/4.9.2/libgcc.a(pr-support.o)
 .bss           0x000000000201c614        0x0 /opt/devkitpro/devkitARM/bin/../lib/gcc/arm-none-eabi/4.9.2/../../../../arm-none-eabi/lib/libc.a(lib_a-abort.o)
 .bss           0x000000000201c614        0x0 /opt/devkitpro/devkitARM/bin/../lib/gcc/arm-none-eabi/4.9.2/../../../../arm-none-eabi/lib/libc.a(lib_a-aeabi_atexit.o)
 .bss           0x000000000201c614        0x0 /opt/devkitpro/devkitARM/bin/../lib/gcc/arm-none-eabi/4.9.2/../../../../arm-none-eabi/lib/libc.a(lib_a-atexit.o)
 .bss           0x000000000201c614        0x0 /opt/devkitpro/devkitARM/bin/../lib/gcc/arm-none-eabi/4.9.2/../../../../arm-none-eabi/lib/libc.a(lib_a-cxa_atexit.o)
 .bss           0x000000000201c614        0x0 /opt/devkitpro/devkitARM/bin/../lib/gcc/arm-none-eabi/4.9.2/../../../../arm-none-eabi/lib/libc.a(lib_a-exit.o)
 .bss           0x000000000201c614        0x0 /opt/devkitpro/devkitARM/bin/../lib/gcc/arm-none-eabi/4.9.2/../../../../arm-none-eabi/lib/libc.a(lib_a-fini.o)
 .bss           0x000000000201c614        0x0 /opt/devkitpro/devkitARM/bin/../lib/gcc/arm-none-eabi/4.9.2/../../../../arm-none-eabi/lib/libc.a(lib_a-impure.o)
 .bss           0x000000000201c614        0x0 /opt/devkitpro/devkitARM/bin/../lib/gcc/arm-none-eabi/4.9.2/../../../../arm-none-eabi/lib/libc.a(lib_a-init.o)
 .bss           0x000000000201c614        0x0 /opt/devkitpro/devkitARM/bin/../lib/gcc/arm-none-eabi/4.9.2/../../../../arm-none-eabi/lib/libc.a(lib_a-malloc.o)
 .bss           0x000000000201c614        0x0 /opt/devkitpro/devkitARM/bin/../lib/gcc/arm-none-eabi/4.9.2/../../../../arm-none-eabi/lib/libc.a(lib_a-mallocr.o)
 .bss.__malloc_max_total_mem
                0x000000000201c614        0x4 /opt/devkitpro/devkitARM/bin/../lib/gcc/arm-none-eabi/4.9.2/../../../../arm-none-eabi/lib/libc.a(lib_a-mallocr.o)
                0x000000000201c614                __malloc_max_total_mem
 .bss.__malloc_max_sbrked_mem
                0x000000000201c618        0x4 /opt/devkitpro/devkitARM/bin/../lib/gcc/arm-none-eabi/4.9.2/../../../../arm-none-eabi/lib/libc.a(lib_a-mallocr.o)
                0x000000000201c618                __malloc_max_sbrked_mem
 .bss.__malloc_top_pad
                0x000000000201c61c        0x4 /opt/devkitpro/devkitARM/bin/../lib/gcc/arm-none-eabi/4.9.2/../../../../arm-none-eabi/lib/libc.a(lib_a-mallocr.o)
                0x000000000201c61c                __malloc_top_pad
 .bss.__malloc_current_mallinfo
                0x000000000201c620       0x28 /opt/devkitpro/devkitARM/bin/../lib/gcc/arm-none-eabi/4.9.2/../../../../arm-none-eabi/lib/libc.a(lib_a-mallocr.o)
                0x000000000201c620                __malloc_current_mallinfo
 .bss           0x000000000201c648        0x0 /opt/devkitpro/devkitARM/bin/../lib/gcc/arm-none-eabi/4.9.2/../../../../arm-none-eabi/lib/libc.a(lib_a-memcpy.o)
 .bss           0x000000000201c648        0x0 /opt/devkitpro/devkitARM/bin/../lib/gcc/arm-none-eabi/4.9.2/../../../../arm-none-eabi/lib/libc.a(lib_a-memset.o)
 .bss           0x000000000201c648        0x0 /opt/devkitpro/devkitARM/bin/../lib/gcc/arm-none-eabi/4.9.2/../../../../arm-none-eabi/lib/libc.a(lib_a-mlock.o)
 .bss           0x000000000201c648        0x0 /opt/devkitpro/devkitARM/bin/../lib/gcc/arm-none-eabi/4.9.2/../../../../arm-none-eabi/lib/libc.a(lib_a-signal.o)
 .bss           0x000000000201c648        0x0 /opt/devkitpro/devkitARM/bin/../lib/gcc/arm-none-eabi/4.9.2/../../../../arm-none-eabi/lib/libc.a(lib_a-__atexit.o)
 .bss           0x000000000201c648        0x0 /opt/devkitpro/devkitARM/bin/../lib/gcc/arm-none-eabi/4.9.2/../../../../arm-none-eabi/lib/libc.a(lib_a-__call_atexit.o)
 .bss           0x000000000201c648        0x0 /opt/devkitpro/devkitARM/bin/../lib/gcc/arm-none-eabi/4.9.2/../../../../arm-none-eabi/lib/libc.a(lib_a-freer.o)
 .bss           0x000000000201c648        0x0 /opt/devkitpro/devkitARM/bin/../lib/gcc/arm-none-eabi/4.9.2/../../../../arm-none-eabi/lib/libstdc++.a(del_op.o)
 .bss           0x000000000201c648        0x0 /opt/devkitpro/devkitARM/bin/../lib/gcc/arm-none-eabi/4.9.2/../../../../arm-none-eabi/lib/libstdc++.a(si_class_type_info.o)
 .bss           0x000000000201c648        0x0 /opt/devkitpro/devkitARM/bin/../lib/gcc/arm-none-eabi/4.9.2/../../../../arm-none-eabi/lib/libstdc++.a(tinfo.o)
 .bss           0x000000000201c648        0x0 /opt/devkitpro/devkitARM/bin/../lib/gcc/arm-none-eabi/4.9.2/../../../../arm-none-eabi/lib/libstdc++.a(new_op.o)
 .bss           0x000000000201c648        0x0 /opt/devkitpro/devkitARM/bin/../lib/gcc/arm-none-eabi/4.9.2/../../../../arm-none-eabi/lib/libstdc++.a(new_handler.o)
 .bss._ZN12_GLOBAL__N_113__new_handlerE
                0x000000000201c648        0x4 /opt/devkitpro/devkitARM/bin/../lib/gcc/arm-none-eabi/4.9.2/../../../../arm-none-eabi/lib/libstdc++.a(new_handler.o)
 .bss           0x000000000201c64c        0x0 /opt/devkitpro/devkitARM/bin/../lib/gcc/arm-none-eabi/4.9.2/../../../../arm-none-eabi/lib/libstdc++.a(class_type_info.o)
 .bss           0x000000000201c64c        0x0 /opt/devkitpro/devkitARM/bin/../lib/gcc/arm-none-eabi/4.9.2/../../../../arm-none-eabi/lib/libstdc++.a(bad_alloc.o)
 .bss           0x000000000201c64c        0x0 /opt/devkitpro/devkitARM/bin/../lib/gcc/arm-none-eabi/4.9.2/../../../../arm-none-eabi/lib/libstdc++.a(eh_throw.o)
 .bss           0x000000000201c64c        0x0 /opt/devkitpro/devkitARM/bin/../lib/gcc/arm-none-eabi/4.9.2/../../../../arm-none-eabi/lib/libstdc++.a(eh_globals.o)
 .bss._ZL10eh_globals
                0x000000000201c64c        0xc /opt/devkitpro/devkitARM/bin/../lib/gcc/arm-none-eabi/4.9.2/../../../../arm-none-eabi/lib/libstdc++.a(eh_globals.o)
 .bss           0x000000000201c658        0x0 /opt/devkitpro/devkitARM/bin/../lib/gcc/arm-none-eabi/4.9.2/../../../../arm-none-eabi/lib/libstdc++.a(eh_catch.o)
 .bss           0x000000000201c658        0x0 /opt/devkitpro/devkitARM/bin/../lib/gcc/arm-none-eabi/4.9.2/../../../../arm-none-eabi/lib/libstdc++.a(eh_alloc.o)
 .bss._ZL15dependents_used
                0x000000000201c658        0x4 /opt/devkitpro/devkitARM/bin/../lib/gcc/arm-none-eabi/4.9.2/../../../../arm-none-eabi/lib/libstdc++.a(eh_alloc.o)
 *fill*         0x000000000201c65c        0x4 
 .bss._ZL17dependents_buffer
                0x000000000201c660      0x1e0 /opt/devkitpro/devkitARM/bin/../lib/gcc/arm-none-eabi/4.9.2/../../../../arm-none-eabi/lib/libstdc++.a(eh_alloc.o)
 .bss._ZL14emergency_used
                0x000000000201c840        0x4 /opt/devkitpro/devkitARM/bin/../lib/gcc/arm-none-eabi/4.9.2/../../../../arm-none-eabi/lib/libstdc++.a(eh_alloc.o)
 *fill*         0x000000000201c844        0x4 
 .bss._ZL16emergency_buffer
                0x000000000201c848      0x800 /opt/devkitpro/devkitARM/bin/../lib/gcc/arm-none-eabi/4.9.2/../../../../arm-none-eabi/lib/libstdc++.a(eh_alloc.o)
 .bss           0x000000000201d048        0x0 /opt/devkitpro/devkitARM/bin/../lib/gcc/arm-none-eabi/4.9.2/../../../../arm-none-eabi/lib/libstdc++.a(eh_exception.o)
 .bss           0x000000000201d048        0x0 /opt/devkitpro/devkitARM/bin/../lib/gcc/arm-none-eabi/4.9.2/../../../../arm-none-eabi/lib/libstdc++.a(eh_terminate.o)
 .bss           0x000000000201d048        0x0 /opt/devkitpro/devkitARM/bin/../lib/gcc/arm-none-eabi/4.9.2/../../../../arm-none-eabi/lib/libstdc++.a(eh_call.o)
 .bss           0x000000000201d048        0x0 /opt/devkitpro/devkitARM/bin/../lib/gcc/arm-none-eabi/4.9.2/../../../../arm-none-eabi/lib/libstdc++.a(eh_term_handler.o)
 .bss           0x000000000201d048        0x0 /opt/devkitpro/devkitARM/bin/../lib/gcc/arm-none-eabi/4.9.2/../../../../arm-none-eabi/lib/libstdc++.a(eh_personality.o)
 .bss           0x000000000201d048        0x0 /opt/devkitpro/devkitARM/bin/../lib/gcc/arm-none-eabi/4.9.2/../../../../arm-none-eabi/lib/libstdc++.a(eh_arm.o)
 .bss           0x000000000201d048        0x0 /opt/devkitpro/devkitARM/bin/../lib/gcc/arm-none-eabi/4.9.2/../../../../arm-none-eabi/lib/libstdc++.a(vterminate.o)
 .bss._ZZN9__gnu_cxx27__verbose_terminate_handlerEvE11terminating
                0x000000000201d048        0x1 /opt/devkitpro/devkitARM/bin/../lib/gcc/arm-none-eabi/4.9.2/../../../../arm-none-eabi/lib/libstdc++.a(vterminate.o)
 .bss           0x000000000201d049        0x0 /opt/devkitpro/devkitARM/bin/../lib/gcc/arm-none-eabi/4.9.2/../../../../arm-none-eabi/lib/libstdc++.a(cp-demangle.o)
 .bss           0x000000000201d049        0x0 /opt/devkitpro/devkitARM/bin/../lib/gcc/arm-none-eabi/4.9.2/../../../../arm-none-eabi/lib/libstdc++.a(pure.o)
 .bss           0x000000000201d049        0x0 /opt/devkitpro/devkitARM/bin/../lib/gcc/arm-none-eabi/4.9.2/../../../../arm-none-eabi/lib/libstdc++.a(eh_type.o)
 .bss           0x000000000201d049        0x0 /opt/devkitpro/devkitARM/bin/../lib/gcc/arm-none-eabi/4.9.2/../../../../arm-none-eabi/lib/libstdc++.a(eh_unex_handler.o)
 .bss           0x000000000201d049        0x0 /opt/devkitpro/devkitARM/bin/../lib/gcc/arm-none-eabi/4.9.2/../../../../arm-none-eabi/lib/libc.a(lib_a-fputc.o)
 .bss           0x000000000201d049        0x0 /opt/devkitpro/devkitARM/bin/../lib/gcc/arm-none-eabi/4.9.2/../../../../arm-none-eabi/lib/libc.a(lib_a-fputs.o)
 .bss           0x000000000201d049        0x0 /opt/devkitpro/devkitARM/bin/../lib/gcc/arm-none-eabi/4.9.2/../../../../arm-none-eabi/lib/libc.a(lib_a-fvwrite.o)
 .bss           0x000000000201d049        0x0 /opt/devkitpro/devkitARM/bin/../lib/gcc/arm-none-eabi/4.9.2/../../../../arm-none-eabi/lib/libc.a(lib_a-fwrite.o)
 .bss           0x000000000201d049        0x0 /opt/devkitpro/devkitARM/bin/../lib/gcc/arm-none-eabi/4.9.2/../../../../arm-none-eabi/lib/libc.a(lib_a-memchr.o)
 .bss           0x000000000201d049        0x0 /opt/devkitpro/devkitARM/bin/../lib/gcc/arm-none-eabi/4.9.2/../../../../arm-none-eabi/lib/libc.a(lib_a-memcmp.o)
 .bss           0x000000000201d049        0x0 /opt/devkitpro/devkitARM/bin/../lib/gcc/arm-none-eabi/4.9.2/../../../../arm-none-eabi/lib/libc.a(lib_a-memmove.o)
 .bss           0x000000000201d049        0x0 /opt/devkitpro/devkitARM/bin/../lib/gcc/arm-none-eabi/4.9.2/../../../../arm-none-eabi/lib/libc.a(lib_a-putc.o)
 .bss           0x000000000201d049        0x0 /opt/devkitpro/devkitARM/bin/../lib/gcc/arm-none-eabi/4.9.2/../../../../arm-none-eabi/lib/libc.a(lib_a-realloc.o)
 .bss           0x000000000201d049        0x0 /opt/devkitpro/devkitARM/bin/../lib/gcc/arm-none-eabi/4.9.2/../../../../arm-none-eabi/lib/libc.a(lib_a-reallocr.o)
 .bss           0x000000000201d049        0x0 /opt/devkitpro/devkitARM/bin/../lib/gcc/arm-none-eabi/4.9.2/../../../../arm-none-eabi/lib/libc.a(lib_a-sprintf.o)
 .bss           0x000000000201d049        0x0 /opt/devkitpro/devkitARM/bin/../lib/gcc/arm-none-eabi/4.9.2/../../../../arm-none-eabi/lib/libc.a(lib_a-strcmp.o)
 .bss           0x000000000201d049        0x0 /opt/devkitpro/devkitARM/bin/../lib/gcc/arm-none-eabi/4.9.2/../../../../arm-none-eabi/lib/libc.a(lib_a-strlen.o)
 .bss           0x000000000201d049        0x0 /opt/devkitpro/devkitARM/bin/../lib/gcc/arm-none-eabi/4.9.2/../../../../arm-none-eabi/lib/libc.a(lib_a-strncmp.o)
 .bss           0x000000000201d049        0x0 /opt/devkitpro/devkitARM/bin/../lib/gcc/arm-none-eabi/4.9.2/../../../../arm-none-eabi/lib/libc.a(lib_a-svfprintf.o)
 .bss           0x000000000201d049        0x0 /opt/devkitpro/devkitARM/bin/../lib/gcc/arm-none-eabi/4.9.2/../../../../arm-none-eabi/lib/libc.a(lib_a-syswrite.o)
 .bss           0x000000000201d049        0x0 /opt/devkitpro/devkitARM/bin/../lib/gcc/arm-none-eabi/4.9.2/../../../../arm-none-eabi/lib/libc.a(lib_a-wbuf.o)
 .bss           0x000000000201d049        0x0 /opt/devkitpro/devkitARM/bin/../lib/gcc/arm-none-eabi/4.9.2/../../../../arm-none-eabi/lib/libc.a(lib_a-wcrtomb.o)
 .bss           0x000000000201d049        0x0 /opt/devkitpro/devkitARM/bin/../lib/gcc/arm-none-eabi/4.9.2/../../../../arm-none-eabi/lib/libc.a(lib_a-wcsrtombs.o)
 .bss           0x000000000201d049        0x0 /opt/devkitpro/devkitARM/bin/../lib/gcc/arm-none-eabi/4.9.2/../../../../arm-none-eabi/lib/libc.a(lib_a-wctomb_r.o)
 .bss           0x000000000201d049        0x0 /opt/devkitpro/devkitARM/bin/../lib/gcc/arm-none-eabi/4.9.2/../../../../arm-none-eabi/lib/libc.a(lib_a-wsetup.o)
 .bss           0x000000000201d049        0x0 /opt/devkitpro/devkitARM/bin/../lib/gcc/arm-none-eabi/4.9.2/../../../../arm-none-eabi/lib/libc.a(lib_a-dtoa.o)
 .bss           0x000000000201d049        0x0 /opt/devkitpro/devkitARM/bin/../lib/gcc/arm-none-eabi/4.9.2/../../../../arm-none-eabi/lib/libc.a(lib_a-fflush.o)
 .bss           0x000000000201d049        0x0 /opt/devkitpro/devkitARM/bin/../lib/gcc/arm-none-eabi/4.9.2/../../../../arm-none-eabi/lib/libc.a(lib_a-findfp.o)
 .bss           0x000000000201d049        0x0 /opt/devkitpro/devkitARM/bin/../lib/gcc/arm-none-eabi/4.9.2/../../../../arm-none-eabi/lib/libc.a(lib_a-fwalk.o)
 .bss           0x000000000201d049        0x0 /opt/devkitpro/devkitARM/bin/../lib/gcc/arm-none-eabi/4.9.2/../../../../arm-none-eabi/lib/libc.a(lib_a-locale.o)
 *fill*         0x000000000201d049        0x3 
 .bss._PathLocale
                0x000000000201d04c        0x4 /opt/devkitpro/devkitARM/bin/../lib/gcc/arm-none-eabi/4.9.2/../../../../arm-none-eabi/lib/libc.a(lib_a-locale.o)
                0x000000000201d04c                _PathLocale
 .bss.__nlocale_changed
                0x000000000201d050        0x4 /opt/devkitpro/devkitARM/bin/../lib/gcc/arm-none-eabi/4.9.2/../../../../arm-none-eabi/lib/libc.a(lib_a-locale.o)
                0x000000000201d050                __nlocale_changed
 .bss.__mlocale_changed
                0x000000000201d054        0x4 /opt/devkitpro/devkitARM/bin/../lib/gcc/arm-none-eabi/4.9.2/../../../../arm-none-eabi/lib/libc.a(lib_a-locale.o)
                0x000000000201d054                __mlocale_changed
 .bss.lc_ctype_cjk_lang
                0x000000000201d058        0x4 /opt/devkitpro/devkitARM/bin/../lib/gcc/arm-none-eabi/4.9.2/../../../../arm-none-eabi/lib/libc.a(lib_a-locale.o)
 .bss.new_categories
                0x000000000201d05c       0xe0 /opt/devkitpro/devkitARM/bin/../lib/gcc/arm-none-eabi/4.9.2/../../../../arm-none-eabi/lib/libc.a(lib_a-locale.o)
 .bss.current_locale_string
                0x000000000201d13c       0xe8 /opt/devkitpro/devkitARM/bin/../lib/gcc/arm-none-eabi/4.9.2/../../../../arm-none-eabi/lib/libc.a(lib_a-locale.o)
 .bss.saved_categories
                0x000000000201d224       0xe0 /opt/devkitpro/devkitARM/bin/../lib/gcc/arm-none-eabi/4.9.2/../../../../arm-none-eabi/lib/libc.a(lib_a-locale.o)
 .bss           0x000000000201d304        0x0 /opt/devkitpro/devkitARM/bin/../lib/gcc/arm-none-eabi/4.9.2/../../../../arm-none-eabi/lib/libc.a(lib_a-makebuf.o)
 .bss           0x000000000201d304        0x0 /opt/devkitpro/devkitARM/bin/../lib/gcc/arm-none-eabi/4.9.2/../../../../arm-none-eabi/lib/libc.a(lib_a-mbtowc_r.o)
 .bss           0x000000000201d304        0x0 /opt/devkitpro/devkitARM/bin/../lib/gcc/arm-none-eabi/4.9.2/../../../../arm-none-eabi/lib/libc.a(lib_a-mprec.o)
 .bss           0x000000000201d304        0x0 /opt/devkitpro/devkitARM/bin/../lib/gcc/arm-none-eabi/4.9.2/../../../../arm-none-eabi/lib/libc.a(lib_a-s_fpclassify.o)
 .bss           0x000000000201d304        0x0 /opt/devkitpro/devkitARM/bin/../lib/gcc/arm-none-eabi/4.9.2/../../../../arm-none-eabi/lib/libc.a(lib_a-s_frexp.o)
 .bss           0x000000000201d304        0x0 /opt/devkitpro/devkitARM/bin/../lib/gcc/arm-none-eabi/4.9.2/../../../../arm-none-eabi/lib/libc.a(lib_a-stdio.o)
 .bss           0x000000000201d304        0x0 /opt/devkitpro/devkitARM/bin/../lib/gcc/arm-none-eabi/4.9.2/../../../../arm-none-eabi/lib/libc.a(lib_a-strcasecmp.o)
 .bss           0x000000000201d304        0x0 /opt/devkitpro/devkitARM/bin/../lib/gcc/arm-none-eabi/4.9.2/../../../../arm-none-eabi/lib/libc.a(lib_a-strcat.o)
 .bss           0x000000000201d304        0x0 /opt/devkitpro/devkitARM/bin/../lib/gcc/arm-none-eabi/4.9.2/../../../../arm-none-eabi/lib/libc.a(lib_a-strchr.o)
 .bss           0x000000000201d304        0x0 /opt/devkitpro/devkitARM/bin/../lib/gcc/arm-none-eabi/4.9.2/../../../../arm-none-eabi/lib/libc.a(lib_a-strcpy.o)
 .bss           0x000000000201d304        0x0 /opt/devkitpro/devkitARM/bin/../lib/gcc/arm-none-eabi/4.9.2/../../../../arm-none-eabi/lib/libc.a(lib_a-strlcpy.o)
 .bss           0x000000000201d304        0x0 /opt/devkitpro/devkitARM/bin/../lib/gcc/arm-none-eabi/4.9.2/../../../../arm-none-eabi/lib/libc.a(lib_a-strncasecmp.o)
 .bss           0x000000000201d304        0x0 /opt/devkitpro/devkitARM/bin/../lib/gcc/arm-none-eabi/4.9.2/../../../../arm-none-eabi/lib/libc.a(lib_a-strncpy.o)
 .bss           0x000000000201d304        0x0 /opt/devkitpro/devkitARM/bin/../lib/gcc/arm-none-eabi/4.9.2/../../../../arm-none-eabi/lib/libc.a(lib_a-strtol.o)
 .bss           0x000000000201d304        0x0 /opt/devkitpro/devkitARM/bin/../lib/gcc/arm-none-eabi/4.9.2/../../../../arm-none-eabi/lib/libc.a(lib_a-svfiprintf.o)
 .bss           0x000000000201d304        0x0 /opt/devkitpro/devkitARM/bin/../lib/gcc/arm-none-eabi/4.9.2/../../../../arm-none-eabi/lib/libc.a(lib_a-wcsnrtombs.o)
 .bss           0x000000000201d304        0x0 /opt/devkitpro/devkitARM/bin/../lib/gcc/arm-none-eabi/4.9.2/../../../../arm-none-eabi/lib/libc.a(lib_a-callocr.o)
 .bss           0x000000000201d304        0x0 /opt/devkitpro/devkitARM/bin/../lib/gcc/arm-none-eabi/4.9.2/../../../../arm-none-eabi/lib/libc.a(lib_a-ctype_.o)
 .bss           0x000000000201d304        0x0 /opt/devkitpro/devkitARM/bin/../lib/gcc/arm-none-eabi/4.9.2/../../../../arm-none-eabi/lib/libc.a(lib_a-fclose.o)
 .bss           0x000000000201d304        0x0 /opt/devkitpro/devkitARM/bin/../lib/gcc/arm-none-eabi/4.9.2/../../../../arm-none-eabi/lib/libc.a(lib_a-getenv_r.o)
 .bss           0x000000000201d304        0x0 /opt/devkitpro/devkitARM/bin/../lib/gcc/arm-none-eabi/4.9.2/../../../../arm-none-eabi/lib/libc.a(lib_a-environ.o)
 .bss.initial_env
                0x000000000201d304        0x4 /opt/devkitpro/devkitARM/bin/../lib/gcc/arm-none-eabi/4.9.2/../../../../arm-none-eabi/lib/libc.a(lib_a-environ.o)
 .bss           0x000000000201d308        0x0 /opt/devkitpro/devkitARM/bin/../lib/gcc/arm-none-eabi/4.9.2/../../../../arm-none-eabi/lib/libc.a(lib_a-envlock.o)
 .bss           0x000000000201d308        0x0 /opt/devkitpro/devkitARM/bin/../lib/gcc/arm-none-eabi/4.9.2/../../../../arm-none-eabi/lib/libsysbase.a(close.o)
 .bss           0x000000000201d308        0x0 /opt/devkitpro/devkitARM/bin/../lib/gcc/arm-none-eabi/4.9.2/../../../../arm-none-eabi/lib/libsysbase.a(fstat.o)
 .bss           0x000000000201d308        0x0 /opt/devkitpro/devkitARM/bin/../lib/gcc/arm-none-eabi/4.9.2/../../../../arm-none-eabi/lib/libsysbase.a(getpid.o)
 .bss           0x000000000201d308        0x0 /opt/devkitpro/devkitARM/bin/../lib/gcc/arm-none-eabi/4.9.2/../../../../arm-none-eabi/lib/libsysbase.a(isatty.o)
 .bss           0x000000000201d308        0x0 /opt/devkitpro/devkitARM/bin/../lib/gcc/arm-none-eabi/4.9.2/../../../../arm-none-eabi/lib/libsysbase.a(kill.o)
 .bss           0x000000000201d308        0x0 /opt/devkitpro/devkitARM/bin/../lib/gcc/arm-none-eabi/4.9.2/../../../../arm-none-eabi/lib/libsysbase.a(lseek.o)
 .bss           0x000000000201d308        0x0 /opt/devkitpro/devkitARM/bin/../lib/gcc/arm-none-eabi/4.9.2/../../../../arm-none-eabi/lib/libsysbase.a(read.o)
 .bss           0x000000000201d308        0x4 /opt/devkitpro/devkitARM/bin/../lib/gcc/arm-none-eabi/4.9.2/../../../../arm-none-eabi/lib/libsysbase.a(sbrk.o)
 .bss           0x000000000201d30c        0x0 /opt/devkitpro/devkitARM/bin/../lib/gcc/arm-none-eabi/4.9.2/../../../../arm-none-eabi/lib/libsysbase.a(write.o)
 .bss           0x000000000201d30c        0x0 /opt/devkitpro/devkitARM/bin/../lib/gcc/arm-none-eabi/4.9.2/../../../../arm-none-eabi/lib/libsysbase.a(_exit.o)
 .bss           0x000000000201d30c        0x8 /opt/devkitpro/devkitARM/bin/../lib/gcc/arm-none-eabi/4.9.2/../../../../arm-none-eabi/lib/libsysbase.a(malloc_vars.o)
                0x000000000201d30c                fake_heap_start
                0x000000000201d310                fake_heap_end
 .bss           0x000000000201d314        0x0 /opt/devkitpro/devkitARM/bin/../lib/gcc/arm-none-eabi/4.9.2/../../../../arm-none-eabi/lib/libsysbase.a(flock.o)
 .bss           0x000000000201d314       0x40 /opt/devkitpro/devkitARM/bin/../lib/gcc/arm-none-eabi/4.9.2/../../../../arm-none-eabi/lib/libsysbase.a(syscall_support.o)
                0x000000000201d314                __syscalls
 .bss           0x000000000201d354        0x0 /opt/devkitpro/devkitARM/bin/../lib/gcc/arm-none-eabi/4.9.2/../../../../arm-none-eabi/lib/libsysbase.a(handle_manager.o)
 .bss           0x000000000201d354        0x0 /opt/devkitpro/devkitARM/bin/../lib/gcc/arm-none-eabi/4.9.2/../../../../arm-none-eabi/lib/libsysbase.a(getreent.o)
 .bss           0x000000000201d354        0x0 /opt/devkitpro/devkitARM/bin/../lib/gcc/arm-none-eabi/4.9.2/../../../../arm-none-eabi/lib/libsysbase.a(iosupport.o)
 .bss           0x000000000201d354        0x0 /opt/devkitpro/devkitARM/bin/../lib/gcc/arm-none-eabi/4.9.2/libgcc.a(_udivsi3.o)
 .bss           0x000000000201d354        0x0 /opt/devkitpro/devkitARM/bin/../lib/gcc/arm-none-eabi/4.9.2/libgcc.a(_divsi3.o)
 .bss           0x000000000201d354        0x0 /opt/devkitpro/devkitARM/bin/../lib/gcc/arm-none-eabi/4.9.2/libgcc.a(_dvmd_tls.o)
 .bss           0x000000000201d354        0x0 /opt/devkitpro/devkitARM/bin/../lib/gcc/arm-none-eabi/4.9.2/libgcc.a(_arm_addsubdf3.o)
 .bss           0x000000000201d354        0x0 /opt/devkitpro/devkitARM/bin/../lib/gcc/arm-none-eabi/4.9.2/libgcc.a(_arm_muldivdf3.o)
 .bss           0x000000000201d354        0x0 /opt/devkitpro/devkitARM/bin/../lib/gcc/arm-none-eabi/4.9.2/libgcc.a(_arm_cmpdf2.o)
 .bss           0x000000000201d354        0x0 /opt/devkitpro/devkitARM/bin/../lib/gcc/arm-none-eabi/4.9.2/libgcc.a(_arm_fixdfsi.o)
 .bss           0x000000000201d354        0x0 /opt/devkitpro/devkitARM/bin/../lib/gcc/arm-none-eabi/4.9.2/libgcc.a(_aeabi_uldivmod.o)
 .bss           0x000000000201d354        0x0 /opt/devkitpro/devkitARM/bin/../lib/gcc/arm-none-eabi/4.9.2/libgcc.a(bpabi.o)
 .bss           0x000000000201d354        0x0 /opt/devkitpro/devkitARM/bin/../lib/gcc/arm-none-eabi/4.9.2/libgcc.a(_divdi3.o)
 .bss           0x000000000201d354        0x0 /opt/devkitpro/devkitARM/bin/../lib/gcc/arm-none-eabi/4.9.2/libgcc.a(_udivdi3.o)
 .bss           0x000000000201d354        0x0 /opt/devkitpro/devkitARM/bin/../lib/gcc/arm-none-eabi/4.9.2/libgcc.a(_clzdi2.o)
 .bss           0x000000000201d354        0x0 /opt/devkitpro/devkitARM/bin/../lib/gcc/arm-none-eabi/4.9.2/libgcc.a(_clzsi2.o)
 .bss           0x000000000201d354        0x0 /opt/devkitpro/devkitARM/bin/../lib/gcc/arm-none-eabi/4.9.2/../../../../arm-none-eabi/lib/libc.a(lib_a-errno.o)
 .bss           0x000000000201d354        0x0 /opt/devkitpro/devkitARM/bin/../lib/gcc/arm-none-eabi/4.9.2/crtend.o
 .bss           0x000000000201d354        0x0 /opt/devkitpro/devkitARM/bin/../lib/gcc/arm-none-eabi/4.9.2/crtn.o
 *(.ewram .ewram.*)
 *(COMMON)
                0x000000000201d354                . = ALIGN (0x4)
                0x000000000201d354                __bss_end__ = .
                0x000000000201d354                end = .
                0x000000000201d354                __end__ = .

.sram           0x000000000e000000       0x98
 *(.sram .sram.*)
 .sram          0x000000000e000000       0x98 objs/main.thumb.o
                0x000000000e000000                test_sram_arr
                0x000000000e000080                sram_init_str
                0x000000000e000098                . = ALIGN (0x4)

.stab
 *(.stab)

.stabstr
 *(.stabstr)

.comment        0x0000000008094270       0x22
 *(.comment)
 .comment       0x0000000008094270       0x22 /opt/devkitpro/devkitARM/bin/../lib/gcc/arm-none-eabi/4.9.2/crtbegin.o
                                         0x23 (size before relaxing)
 .comment       0x0000000008094292       0x23 objs/active_level_class.thumb.o
 .comment       0x0000000008094292       0x23 objs/active_level_manager_class.arm.o
 .comment       0x0000000008094292       0x23 objs/active_level_manager_class.thumb.o
 .comment       0x0000000008094292       0x23 objs/air_block_stuff_class.thumb.o
 .comment       0x0000000008094292       0x23 objs/bg_reg_stuff.arm.o
 .comment       0x0000000008094292       0x23 objs/block_base_stuff_class.thumb.o
 .comment       0x0000000008094292       0x23 objs/block_stuff.thumb.o
 .comment       0x0000000008094292       0x23 objs/button_stuff.thumb.o
 .comment       0x0000000008094292       0x23 objs/coll_box_class.arm.o
 .comment       0x0000000008094292       0x23 objs/coll_box_class.thumb.o
 .comment       0x0000000008094292       0x23 objs/coll_point_group_class.thumb.o
 .comment       0x0000000008094292       0x23 objs/debug_vars.thumb.o
 .comment       0x0000000008094292       0x23 objs/dma_stuff.thumb.o
 .comment       0x0000000008094292       0x23 objs/dud_block_stuff_class.thumb.o
 .comment       0x0000000008094292       0x23 objs/exclam_block_stuff_classes.thumb.o
 .comment       0x0000000008094292       0x23 objs/eyes_block_stuff_classes.thumb.o
 .comment       0x0000000008094292       0x23 objs/fixed_classes.thumb.o
 .comment       0x0000000008094292       0x23 objs/grass_and_dirt_block_stuff_classes.thumb.o
 .comment       0x0000000008094292       0x23 objs/interrupt_stuff.arm.o
 .comment       0x0000000008094292       0x23 objs/interrupt_stuff.thumb.o
 .comment       0x0000000008094292       0x23 objs/level_class.thumb.o
 .comment       0x0000000008094292       0x23 objs/log_block_stuff_class.thumb.o
 .comment       0x0000000008094292       0x23 objs/main.thumb.o
 .comment       0x0000000008094292       0x23 objs/muffin_sprite_stuff_classes.thumb.o
 .comment       0x0000000008094292       0x23 objs/oam_entry_classes.thumb.o
 .comment       0x0000000008094292       0x23 objs/player_sprite_stuff_class.thumb.o
 .comment       0x0000000008094292       0x23 objs/sprite_base_stuff_class.arm.o
 .comment       0x0000000008094292       0x23 objs/sprite_base_stuff_class.thumb.o
 .comment       0x0000000008094292       0x23 objs/sprite_class.thumb.o
 .comment       0x0000000008094292       0x23 objs/sprite_gfx_stuff.thumb.o
 .comment       0x0000000008094292       0x23 objs/sprite_manager_class.arm.o
 .comment       0x0000000008094292       0x23 objs/sprite_manager_class.thumb.o
 .comment       0x0000000008094292       0x23 objs/sprite_type_stuff.thumb.o
 .comment       0x0000000008094292       0x23 objs/sublevel_class.thumb.o
 .comment       0x0000000008094292       0x23 objs/test_level.thumb.o
 .comment       0x0000000008094292       0x23 objs/waffle_sprite_stuff_class.arm.o
 .comment       0x0000000008094292       0x23 objs/waffle_sprite_stuff_class.thumb.o
 .comment       0x0000000008094292       0x23 objs/warp_block_sprite_stuff_class.thumb.o
 .comment       0x0000000008094292       0x23 objs/wood_block_stuff_classes.thumb.o
 .comment       0x0000000008094292       0x23 /opt/devkitpro/devkitARM/bin/../lib/gcc/arm-none-eabi/4.9.2/libgcc.a(unwind-arm.o)
 .comment       0x0000000008094292       0x23 /opt/devkitpro/devkitARM/bin/../lib/gcc/arm-none-eabi/4.9.2/libgcc.a(pr-support.o)
 .comment       0x0000000008094292       0x23 /opt/devkitpro/devkitARM/bin/../lib/gcc/arm-none-eabi/4.9.2/../../../../arm-none-eabi/lib/libc.a(lib_a-abort.o)
 .comment       0x0000000008094292       0x23 /opt/devkitpro/devkitARM/bin/../lib/gcc/arm-none-eabi/4.9.2/../../../../arm-none-eabi/lib/libc.a(lib_a-aeabi_atexit.o)
 .comment       0x0000000008094292       0x23 /opt/devkitpro/devkitARM/bin/../lib/gcc/arm-none-eabi/4.9.2/../../../../arm-none-eabi/lib/libc.a(lib_a-atexit.o)
 .comment       0x0000000008094292       0x23 /opt/devkitpro/devkitARM/bin/../lib/gcc/arm-none-eabi/4.9.2/../../../../arm-none-eabi/lib/libc.a(lib_a-cxa_atexit.o)
 .comment       0x0000000008094292       0x23 /opt/devkitpro/devkitARM/bin/../lib/gcc/arm-none-eabi/4.9.2/../../../../arm-none-eabi/lib/libc.a(lib_a-exit.o)
 .comment       0x0000000008094292       0x23 /opt/devkitpro/devkitARM/bin/../lib/gcc/arm-none-eabi/4.9.2/../../../../arm-none-eabi/lib/libc.a(lib_a-fini.o)
 .comment       0x0000000008094292       0x23 /opt/devkitpro/devkitARM/bin/../lib/gcc/arm-none-eabi/4.9.2/../../../../arm-none-eabi/lib/libc.a(lib_a-impure.o)
 .comment       0x0000000008094292       0x23 /opt/devkitpro/devkitARM/bin/../lib/gcc/arm-none-eabi/4.9.2/../../../../arm-none-eabi/lib/libc.a(lib_a-init.o)
 .comment       0x0000000008094292       0x23 /opt/devkitpro/devkitARM/bin/../lib/gcc/arm-none-eabi/4.9.2/../../../../arm-none-eabi/lib/libc.a(lib_a-malloc.o)
 .comment       0x0000000008094292       0x23 /opt/devkitpro/devkitARM/bin/../lib/gcc/arm-none-eabi/4.9.2/../../../../arm-none-eabi/lib/libc.a(lib_a-mallocr.o)
 .comment       0x0000000008094292       0x23 /opt/devkitpro/devkitARM/bin/../lib/gcc/arm-none-eabi/4.9.2/../../../../arm-none-eabi/lib/libc.a(lib_a-memcpy.o)
 .comment       0x0000000008094292       0x23 /opt/devkitpro/devkitARM/bin/../lib/gcc/arm-none-eabi/4.9.2/../../../../arm-none-eabi/lib/libc.a(lib_a-memset.o)
 .comment       0x0000000008094292       0x23 /opt/devkitpro/devkitARM/bin/../lib/gcc/arm-none-eabi/4.9.2/../../../../arm-none-eabi/lib/libc.a(lib_a-mlock.o)
 .comment       0x0000000008094292       0x23 /opt/devkitpro/devkitARM/bin/../lib/gcc/arm-none-eabi/4.9.2/../../../../arm-none-eabi/lib/libc.a(lib_a-signal.o)
 .comment       0x0000000008094292       0x23 /opt/devkitpro/devkitARM/bin/../lib/gcc/arm-none-eabi/4.9.2/../../../../arm-none-eabi/lib/libc.a(lib_a-__atexit.o)
 .comment       0x0000000008094292       0x23 /opt/devkitpro/devkitARM/bin/../lib/gcc/arm-none-eabi/4.9.2/../../../../arm-none-eabi/lib/libc.a(lib_a-__call_atexit.o)
 .comment       0x0000000008094292       0x23 /opt/devkitpro/devkitARM/bin/../lib/gcc/arm-none-eabi/4.9.2/../../../../arm-none-eabi/lib/libc.a(lib_a-freer.o)
 .comment       0x0000000008094292       0x23 /opt/devkitpro/devkitARM/bin/../lib/gcc/arm-none-eabi/4.9.2/../../../../arm-none-eabi/lib/libstdc++.a(del_op.o)
 .comment       0x0000000008094292       0x23 /opt/devkitpro/devkitARM/bin/../lib/gcc/arm-none-eabi/4.9.2/../../../../arm-none-eabi/lib/libstdc++.a(si_class_type_info.o)
 .comment       0x0000000008094292       0x23 /opt/devkitpro/devkitARM/bin/../lib/gcc/arm-none-eabi/4.9.2/../../../../arm-none-eabi/lib/libstdc++.a(tinfo.o)
 .comment       0x0000000008094292       0x23 /opt/devkitpro/devkitARM/bin/../lib/gcc/arm-none-eabi/4.9.2/../../../../arm-none-eabi/lib/libstdc++.a(new_op.o)
 .comment       0x0000000008094292       0x23 /opt/devkitpro/devkitARM/bin/../lib/gcc/arm-none-eabi/4.9.2/../../../../arm-none-eabi/lib/libstdc++.a(new_handler.o)
 .comment       0x0000000008094292       0x23 /opt/devkitpro/devkitARM/bin/../lib/gcc/arm-none-eabi/4.9.2/../../../../arm-none-eabi/lib/libstdc++.a(class_type_info.o)
 .comment       0x0000000008094292       0x23 /opt/devkitpro/devkitARM/bin/../lib/gcc/arm-none-eabi/4.9.2/../../../../arm-none-eabi/lib/libstdc++.a(bad_alloc.o)
 .comment       0x0000000008094292       0x23 /opt/devkitpro/devkitARM/bin/../lib/gcc/arm-none-eabi/4.9.2/../../../../arm-none-eabi/lib/libstdc++.a(eh_throw.o)
 .comment       0x0000000008094292       0x23 /opt/devkitpro/devkitARM/bin/../lib/gcc/arm-none-eabi/4.9.2/../../../../arm-none-eabi/lib/libstdc++.a(eh_globals.o)
 .comment       0x0000000008094292       0x23 /opt/devkitpro/devkitARM/bin/../lib/gcc/arm-none-eabi/4.9.2/../../../../arm-none-eabi/lib/libstdc++.a(eh_catch.o)
 .comment       0x0000000008094292       0x23 /opt/devkitpro/devkitARM/bin/../lib/gcc/arm-none-eabi/4.9.2/../../../../arm-none-eabi/lib/libstdc++.a(eh_alloc.o)
 .comment       0x0000000008094292       0x23 /opt/devkitpro/devkitARM/bin/../lib/gcc/arm-none-eabi/4.9.2/../../../../arm-none-eabi/lib/libstdc++.a(eh_exception.o)
 .comment       0x0000000008094292       0x23 /opt/devkitpro/devkitARM/bin/../lib/gcc/arm-none-eabi/4.9.2/../../../../arm-none-eabi/lib/libstdc++.a(eh_terminate.o)
 .comment       0x0000000008094292       0x23 /opt/devkitpro/devkitARM/bin/../lib/gcc/arm-none-eabi/4.9.2/../../../../arm-none-eabi/lib/libstdc++.a(eh_call.o)
 .comment       0x0000000008094292       0x23 /opt/devkitpro/devkitARM/bin/../lib/gcc/arm-none-eabi/4.9.2/../../../../arm-none-eabi/lib/libstdc++.a(eh_term_handler.o)
 .comment       0x0000000008094292       0x23 /opt/devkitpro/devkitARM/bin/../lib/gcc/arm-none-eabi/4.9.2/../../../../arm-none-eabi/lib/libstdc++.a(eh_personality.o)
 .comment       0x0000000008094292       0x23 /opt/devkitpro/devkitARM/bin/../lib/gcc/arm-none-eabi/4.9.2/../../../../arm-none-eabi/lib/libstdc++.a(eh_arm.o)
 .comment       0x0000000008094292       0x23 /opt/devkitpro/devkitARM/bin/../lib/gcc/arm-none-eabi/4.9.2/../../../../arm-none-eabi/lib/libstdc++.a(vterminate.o)
 .comment       0x0000000008094292       0x23 /opt/devkitpro/devkitARM/bin/../lib/gcc/arm-none-eabi/4.9.2/../../../../arm-none-eabi/lib/libstdc++.a(cp-demangle.o)
 .comment       0x0000000008094292       0x23 /opt/devkitpro/devkitARM/bin/../lib/gcc/arm-none-eabi/4.9.2/../../../../arm-none-eabi/lib/libstdc++.a(pure.o)
 .comment       0x0000000008094292       0x23 /opt/devkitpro/devkitARM/bin/../lib/gcc/arm-none-eabi/4.9.2/../../../../arm-none-eabi/lib/libstdc++.a(eh_type.o)
 .comment       0x0000000008094292       0x23 /opt/devkitpro/devkitARM/bin/../lib/gcc/arm-none-eabi/4.9.2/../../../../arm-none-eabi/lib/libstdc++.a(eh_unex_handler.o)
 .comment       0x0000000008094292       0x23 /opt/devkitpro/devkitARM/bin/../lib/gcc/arm-none-eabi/4.9.2/../../../../arm-none-eabi/lib/libc.a(lib_a-fputc.o)
 .comment       0x0000000008094292       0x23 /opt/devkitpro/devkitARM/bin/../lib/gcc/arm-none-eabi/4.9.2/../../../../arm-none-eabi/lib/libc.a(lib_a-fputs.o)
 .comment       0x0000000008094292       0x23 /opt/devkitpro/devkitARM/bin/../lib/gcc/arm-none-eabi/4.9.2/../../../../arm-none-eabi/lib/libc.a(lib_a-fvwrite.o)
 .comment       0x0000000008094292       0x23 /opt/devkitpro/devkitARM/bin/../lib/gcc/arm-none-eabi/4.9.2/../../../../arm-none-eabi/lib/libc.a(lib_a-fwrite.o)
 .comment       0x0000000008094292       0x23 /opt/devkitpro/devkitARM/bin/../lib/gcc/arm-none-eabi/4.9.2/../../../../arm-none-eabi/lib/libc.a(lib_a-memchr.o)
 .comment       0x0000000008094292       0x23 /opt/devkitpro/devkitARM/bin/../lib/gcc/arm-none-eabi/4.9.2/../../../../arm-none-eabi/lib/libc.a(lib_a-memcmp.o)
 .comment       0x0000000008094292       0x23 /opt/devkitpro/devkitARM/bin/../lib/gcc/arm-none-eabi/4.9.2/../../../../arm-none-eabi/lib/libc.a(lib_a-memmove.o)
 .comment       0x0000000008094292       0x23 /opt/devkitpro/devkitARM/bin/../lib/gcc/arm-none-eabi/4.9.2/../../../../arm-none-eabi/lib/libc.a(lib_a-putc.o)
 .comment       0x0000000008094292       0x23 /opt/devkitpro/devkitARM/bin/../lib/gcc/arm-none-eabi/4.9.2/../../../../arm-none-eabi/lib/libc.a(lib_a-realloc.o)
 .comment       0x0000000008094292       0x23 /opt/devkitpro/devkitARM/bin/../lib/gcc/arm-none-eabi/4.9.2/../../../../arm-none-eabi/lib/libc.a(lib_a-reallocr.o)
 .comment       0x0000000008094292       0x23 /opt/devkitpro/devkitARM/bin/../lib/gcc/arm-none-eabi/4.9.2/../../../../arm-none-eabi/lib/libc.a(lib_a-sprintf.o)
 .comment       0x0000000008094292       0x23 /opt/devkitpro/devkitARM/bin/../lib/gcc/arm-none-eabi/4.9.2/../../../../arm-none-eabi/lib/libc.a(lib_a-strlen.o)
 .comment       0x0000000008094292       0x23 /opt/devkitpro/devkitARM/bin/../lib/gcc/arm-none-eabi/4.9.2/../../../../arm-none-eabi/lib/libc.a(lib_a-strncmp.o)
 .comment       0x0000000008094292       0x23 /opt/devkitpro/devkitARM/bin/../lib/gcc/arm-none-eabi/4.9.2/../../../../arm-none-eabi/lib/libc.a(lib_a-svfprintf.o)
 .comment       0x0000000008094292       0x23 /opt/devkitpro/devkitARM/bin/../lib/gcc/arm-none-eabi/4.9.2/../../../../arm-none-eabi/lib/libc.a(lib_a-syswrite.o)
 .comment       0x0000000008094292       0x23 /opt/devkitpro/devkitARM/bin/../lib/gcc/arm-none-eabi/4.9.2/../../../../arm-none-eabi/lib/libc.a(lib_a-wbuf.o)
 .comment       0x0000000008094292       0x23 /opt/devkitpro/devkitARM/bin/../lib/gcc/arm-none-eabi/4.9.2/../../../../arm-none-eabi/lib/libc.a(lib_a-wcrtomb.o)
 .comment       0x0000000008094292       0x23 /opt/devkitpro/devkitARM/bin/../lib/gcc/arm-none-eabi/4.9.2/../../../../arm-none-eabi/lib/libc.a(lib_a-wcsrtombs.o)
 .comment       0x0000000008094292       0x23 /opt/devkitpro/devkitARM/bin/../lib/gcc/arm-none-eabi/4.9.2/../../../../arm-none-eabi/lib/libc.a(lib_a-wctomb_r.o)
 .comment       0x0000000008094292       0x23 /opt/devkitpro/devkitARM/bin/../lib/gcc/arm-none-eabi/4.9.2/../../../../arm-none-eabi/lib/libc.a(lib_a-wsetup.o)
 .comment       0x0000000008094292       0x23 /opt/devkitpro/devkitARM/bin/../lib/gcc/arm-none-eabi/4.9.2/../../../../arm-none-eabi/lib/libc.a(lib_a-dtoa.o)
 .comment       0x0000000008094292       0x23 /opt/devkitpro/devkitARM/bin/../lib/gcc/arm-none-eabi/4.9.2/../../../../arm-none-eabi/lib/libc.a(lib_a-fflush.o)
 .comment       0x0000000008094292       0x23 /opt/devkitpro/devkitARM/bin/../lib/gcc/arm-none-eabi/4.9.2/../../../../arm-none-eabi/lib/libc.a(lib_a-findfp.o)
 .comment       0x0000000008094292       0x23 /opt/devkitpro/devkitARM/bin/../lib/gcc/arm-none-eabi/4.9.2/../../../../arm-none-eabi/lib/libc.a(lib_a-fwalk.o)
 .comment       0x0000000008094292       0x23 /opt/devkitpro/devkitARM/bin/../lib/gcc/arm-none-eabi/4.9.2/../../../../arm-none-eabi/lib/libc.a(lib_a-locale.o)
 .comment       0x0000000008094292       0x23 /opt/devkitpro/devkitARM/bin/../lib/gcc/arm-none-eabi/4.9.2/../../../../arm-none-eabi/lib/libc.a(lib_a-makebuf.o)
 .comment       0x0000000008094292       0x23 /opt/devkitpro/devkitARM/bin/../lib/gcc/arm-none-eabi/4.9.2/../../../../arm-none-eabi/lib/libc.a(lib_a-mbtowc_r.o)
 .comment       0x0000000008094292       0x23 /opt/devkitpro/devkitARM/bin/../lib/gcc/arm-none-eabi/4.9.2/../../../../arm-none-eabi/lib/libc.a(lib_a-mprec.o)
 .comment       0x0000000008094292       0x23 /opt/devkitpro/devkitARM/bin/../lib/gcc/arm-none-eabi/4.9.2/../../../../arm-none-eabi/lib/libc.a(lib_a-s_fpclassify.o)
 .comment       0x0000000008094292       0x23 /opt/devkitpro/devkitARM/bin/../lib/gcc/arm-none-eabi/4.9.2/../../../../arm-none-eabi/lib/libc.a(lib_a-s_frexp.o)
 .comment       0x0000000008094292       0x23 /opt/devkitpro/devkitARM/bin/../lib/gcc/arm-none-eabi/4.9.2/../../../../arm-none-eabi/lib/libc.a(lib_a-stdio.o)
 .comment       0x0000000008094292       0x23 /opt/devkitpro/devkitARM/bin/../lib/gcc/arm-none-eabi/4.9.2/../../../../arm-none-eabi/lib/libc.a(lib_a-strcasecmp.o)
 .comment       0x0000000008094292       0x23 /opt/devkitpro/devkitARM/bin/../lib/gcc/arm-none-eabi/4.9.2/../../../../arm-none-eabi/lib/libc.a(lib_a-strcat.o)
 .comment       0x0000000008094292       0x23 /opt/devkitpro/devkitARM/bin/../lib/gcc/arm-none-eabi/4.9.2/../../../../arm-none-eabi/lib/libc.a(lib_a-strchr.o)
 .comment       0x0000000008094292       0x23 /opt/devkitpro/devkitARM/bin/../lib/gcc/arm-none-eabi/4.9.2/../../../../arm-none-eabi/lib/libc.a(lib_a-strcpy.o)
 .comment       0x0000000008094292       0x23 /opt/devkitpro/devkitARM/bin/../lib/gcc/arm-none-eabi/4.9.2/../../../../arm-none-eabi/lib/libc.a(lib_a-strlcpy.o)
 .comment       0x0000000008094292       0x23 /opt/devkitpro/devkitARM/bin/../lib/gcc/arm-none-eabi/4.9.2/../../../../arm-none-eabi/lib/libc.a(lib_a-strncasecmp.o)
 .comment       0x0000000008094292       0x23 /opt/devkitpro/devkitARM/bin/../lib/gcc/arm-none-eabi/4.9.2/../../../../arm-none-eabi/lib/libc.a(lib_a-strncpy.o)
 .comment       0x0000000008094292       0x23 /opt/devkitpro/devkitARM/bin/../lib/gcc/arm-none-eabi/4.9.2/../../../../arm-none-eabi/lib/libc.a(lib_a-strtol.o)
 .comment       0x0000000008094292       0x23 /opt/devkitpro/devkitARM/bin/../lib/gcc/arm-none-eabi/4.9.2/../../../../arm-none-eabi/lib/libc.a(lib_a-svfiprintf.o)
 .comment       0x0000000008094292       0x23 /opt/devkitpro/devkitARM/bin/../lib/gcc/arm-none-eabi/4.9.2/../../../../arm-none-eabi/lib/libc.a(lib_a-wcsnrtombs.o)
 .comment       0x0000000008094292       0x23 /opt/devkitpro/devkitARM/bin/../lib/gcc/arm-none-eabi/4.9.2/../../../../arm-none-eabi/lib/libc.a(lib_a-callocr.o)
 .comment       0x0000000008094292       0x23 /opt/devkitpro/devkitARM/bin/../lib/gcc/arm-none-eabi/4.9.2/../../../../arm-none-eabi/lib/libc.a(lib_a-ctype_.o)
 .comment       0x0000000008094292       0x23 /opt/devkitpro/devkitARM/bin/../lib/gcc/arm-none-eabi/4.9.2/../../../../arm-none-eabi/lib/libc.a(lib_a-fclose.o)
 .comment       0x0000000008094292       0x23 /opt/devkitpro/devkitARM/bin/../lib/gcc/arm-none-eabi/4.9.2/../../../../arm-none-eabi/lib/libc.a(lib_a-getenv_r.o)
 .comment       0x0000000008094292       0x23 /opt/devkitpro/devkitARM/bin/../lib/gcc/arm-none-eabi/4.9.2/../../../../arm-none-eabi/lib/libc.a(lib_a-environ.o)
 .comment       0x0000000008094292       0x23 /opt/devkitpro/devkitARM/bin/../lib/gcc/arm-none-eabi/4.9.2/../../../../arm-none-eabi/lib/libc.a(lib_a-envlock.o)
 .comment       0x0000000008094292       0x23 /opt/devkitpro/devkitARM/bin/../lib/gcc/arm-none-eabi/4.9.2/../../../../arm-none-eabi/lib/libsysbase.a(close.o)
 .comment       0x0000000008094292       0x23 /opt/devkitpro/devkitARM/bin/../lib/gcc/arm-none-eabi/4.9.2/../../../../arm-none-eabi/lib/libsysbase.a(fstat.o)
 .comment       0x0000000008094292       0x23 /opt/devkitpro/devkitARM/bin/../lib/gcc/arm-none-eabi/4.9.2/../../../../arm-none-eabi/lib/libsysbase.a(getpid.o)
 .comment       0x0000000008094292       0x23 /opt/devkitpro/devkitARM/bin/../lib/gcc/arm-none-eabi/4.9.2/../../../../arm-none-eabi/lib/libsysbase.a(isatty.o)
 .comment       0x0000000008094292       0x23 /opt/devkitpro/devkitARM/bin/../lib/gcc/arm-none-eabi/4.9.2/../../../../arm-none-eabi/lib/libsysbase.a(kill.o)
 .comment       0x0000000008094292       0x23 /opt/devkitpro/devkitARM/bin/../lib/gcc/arm-none-eabi/4.9.2/../../../../arm-none-eabi/lib/libsysbase.a(lseek.o)
 .comment       0x0000000008094292       0x23 /opt/devkitpro/devkitARM/bin/../lib/gcc/arm-none-eabi/4.9.2/../../../../arm-none-eabi/lib/libsysbase.a(read.o)
 .comment       0x0000000008094292       0x23 /opt/devkitpro/devkitARM/bin/../lib/gcc/arm-none-eabi/4.9.2/../../../../arm-none-eabi/lib/libsysbase.a(sbrk.o)
 .comment       0x0000000008094292       0x23 /opt/devkitpro/devkitARM/bin/../lib/gcc/arm-none-eabi/4.9.2/../../../../arm-none-eabi/lib/libsysbase.a(write.o)
 .comment       0x0000000008094292       0x23 /opt/devkitpro/devkitARM/bin/../lib/gcc/arm-none-eabi/4.9.2/../../../../arm-none-eabi/lib/libsysbase.a(_exit.o)
 .comment       0x0000000008094292       0x23 /opt/devkitpro/devkitARM/bin/../lib/gcc/arm-none-eabi/4.9.2/../../../../arm-none-eabi/lib/libsysbase.a(malloc_vars.o)
 .comment       0x0000000008094292       0x23 /opt/devkitpro/devkitARM/bin/../lib/gcc/arm-none-eabi/4.9.2/../../../../arm-none-eabi/lib/libsysbase.a(flock.o)
 .comment       0x0000000008094292       0x23 /opt/devkitpro/devkitARM/bin/../lib/gcc/arm-none-eabi/4.9.2/../../../../arm-none-eabi/lib/libsysbase.a(syscall_support.o)
 .comment       0x0000000008094292       0x23 /opt/devkitpro/devkitARM/bin/../lib/gcc/arm-none-eabi/4.9.2/../../../../arm-none-eabi/lib/libsysbase.a(handle_manager.o)
 .comment       0x0000000008094292       0x23 /opt/devkitpro/devkitARM/bin/../lib/gcc/arm-none-eabi/4.9.2/../../../../arm-none-eabi/lib/libsysbase.a(getreent.o)
 .comment       0x0000000008094292       0x23 /opt/devkitpro/devkitARM/bin/../lib/gcc/arm-none-eabi/4.9.2/../../../../arm-none-eabi/lib/libsysbase.a(iosupport.o)
 .comment       0x0000000008094292       0x23 /opt/devkitpro/devkitARM/bin/../lib/gcc/arm-none-eabi/4.9.2/libgcc.a(bpabi.o)
 .comment       0x0000000008094292       0x23 /opt/devkitpro/devkitARM/bin/../lib/gcc/arm-none-eabi/4.9.2/libgcc.a(_divdi3.o)
 .comment       0x0000000008094292       0x23 /opt/devkitpro/devkitARM/bin/../lib/gcc/arm-none-eabi/4.9.2/libgcc.a(_udivdi3.o)
 .comment       0x0000000008094292       0x23 /opt/devkitpro/devkitARM/bin/../lib/gcc/arm-none-eabi/4.9.2/../../../../arm-none-eabi/lib/libc.a(lib_a-errno.o)
 .comment       0x0000000008094292       0x23 /opt/devkitpro/devkitARM/bin/../lib/gcc/arm-none-eabi/4.9.2/crtend.o

.debug_frame
 *(.debug_frame)
OUTPUT(sherwin_adventure.elf elf32-littlearm)

.debug_line     0x0000000000000000       0xa2
 .debug_line    0x0000000000000000       0xa2 /opt/devkitpro/devkitARM/bin/../lib/gcc/arm-none-eabi/4.9.2/../../../../arm-none-eabi/lib/crt0.o

.debug_info     0x0000000000000000       0xc8
 .debug_info    0x0000000000000000       0xc8 /opt/devkitpro/devkitARM/bin/../lib/gcc/arm-none-eabi/4.9.2/../../../../arm-none-eabi/lib/crt0.o

.debug_abbrev   0x0000000000000000       0x14
 .debug_abbrev  0x0000000000000000       0x14 /opt/devkitpro/devkitARM/bin/../lib/gcc/arm-none-eabi/4.9.2/../../../../arm-none-eabi/lib/crt0.o

.debug_aranges  0x0000000000000000       0x20
 .debug_aranges
                0x0000000000000000       0x20 /opt/devkitpro/devkitARM/bin/../lib/gcc/arm-none-eabi/4.9.2/../../../../arm-none-eabi/lib/crt0.o
