Archive member included to satisfy reference by file (symbol)

/usr/lib/gcc/arm-none-eabi/5.2.0/thumb/libgcc.a(unwind-arm.o)
                              objs/main.thumb.o (__aeabi_unwind_cpp_pr1)
/usr/lib/gcc/arm-none-eabi/5.2.0/thumb/libgcc.a(libunwind.o)
                              /usr/lib/gcc/arm-none-eabi/5.2.0/thumb/libgcc.a(unwind-arm.o) (restore_core_regs)
/usr/lib/gcc/arm-none-eabi/5.2.0/thumb/libgcc.a(pr-support.o)
                              /usr/lib/gcc/arm-none-eabi/5.2.0/thumb/libgcc.a(unwind-arm.o) (__gnu_unwind_execute)
/usr/lib/gcc/arm-none-eabi/5.2.0/thumb/libgcc.a(_thumb1_case_uqi.o)
                              /usr/lib/gcc/arm-none-eabi/5.2.0/thumb/libgcc.a(unwind-arm.o) (__gnu_thumb1_case_uqi)
/usr/lib/gcc/arm-none-eabi/5.2.0/../../../../arm-none-eabi/lib/thumb/libc.a(lib_a-abort.o)
                              /usr/lib/gcc/arm-none-eabi/5.2.0/thumb/libgcc.a(unwind-arm.o) (abort)
/usr/lib/gcc/arm-none-eabi/5.2.0/../../../../arm-none-eabi/lib/thumb/libc.a(lib_a-aeabi_atexit.o)
                              objs/active_level_class.thumb.o (__aeabi_atexit)
/usr/lib/gcc/arm-none-eabi/5.2.0/../../../../arm-none-eabi/lib/thumb/libc.a(lib_a-atexit.o)
                              /usr/lib/gcc/arm-none-eabi/5.2.0/../../../../arm-none-eabi/lib/crt0.o (atexit)
/usr/lib/gcc/arm-none-eabi/5.2.0/../../../../arm-none-eabi/lib/thumb/libc.a(lib_a-cxa_atexit.o)
                              /usr/lib/gcc/arm-none-eabi/5.2.0/../../../../arm-none-eabi/lib/thumb/libc.a(lib_a-aeabi_atexit.o) (__cxa_atexit)
/usr/lib/gcc/arm-none-eabi/5.2.0/../../../../arm-none-eabi/lib/thumb/libc.a(lib_a-exit.o)
                              /usr/lib/gcc/arm-none-eabi/5.2.0/../../../../arm-none-eabi/lib/crt0.o (exit)
/usr/lib/gcc/arm-none-eabi/5.2.0/../../../../arm-none-eabi/lib/thumb/libc.a(lib_a-fini.o)
                              /usr/lib/gcc/arm-none-eabi/5.2.0/../../../../arm-none-eabi/lib/crt0.o (__libc_fini_array)
/usr/lib/gcc/arm-none-eabi/5.2.0/../../../../arm-none-eabi/lib/thumb/libc.a(lib_a-impure.o)
                              /usr/lib/gcc/arm-none-eabi/5.2.0/../../../../arm-none-eabi/lib/thumb/libc.a(lib_a-exit.o) (_global_impure_ptr)
/usr/lib/gcc/arm-none-eabi/5.2.0/../../../../arm-none-eabi/lib/thumb/libc.a(lib_a-init.o)
                              /usr/lib/gcc/arm-none-eabi/5.2.0/../../../../arm-none-eabi/lib/crt0.o (__libc_init_array)
/usr/lib/gcc/arm-none-eabi/5.2.0/../../../../arm-none-eabi/lib/thumb/libc.a(lib_a-memcpy.o)
                              /usr/lib/gcc/arm-none-eabi/5.2.0/thumb/libgcc.a(unwind-arm.o) (memcpy)
/usr/lib/gcc/arm-none-eabi/5.2.0/../../../../arm-none-eabi/lib/thumb/libc.a(lib_a-memset.o)
                              /usr/lib/gcc/arm-none-eabi/5.2.0/../../../../arm-none-eabi/lib/crt0.o (memset)
/usr/lib/gcc/arm-none-eabi/5.2.0/../../../../arm-none-eabi/lib/thumb/libc.a(lib_a-signal.o)
                              /usr/lib/gcc/arm-none-eabi/5.2.0/../../../../arm-none-eabi/lib/thumb/libc.a(lib_a-abort.o) (raise)
/usr/lib/gcc/arm-none-eabi/5.2.0/../../../../arm-none-eabi/lib/thumb/libc.a(lib_a-signalr.o)
                              /usr/lib/gcc/arm-none-eabi/5.2.0/../../../../arm-none-eabi/lib/thumb/libc.a(lib_a-signal.o) (_kill_r)
/usr/lib/gcc/arm-none-eabi/5.2.0/../../../../arm-none-eabi/lib/thumb/libc.a(lib_a-__atexit.o)
                              /usr/lib/gcc/arm-none-eabi/5.2.0/../../../../arm-none-eabi/lib/thumb/libc.a(lib_a-atexit.o) (__register_exitproc)
/usr/lib/gcc/arm-none-eabi/5.2.0/../../../../arm-none-eabi/lib/thumb/libc.a(lib_a-__call_atexit.o)
                              /usr/lib/gcc/arm-none-eabi/5.2.0/../../../../arm-none-eabi/lib/thumb/libc.a(lib_a-exit.o) (__call_exitprocs)
/usr/lib/gcc/arm-none-eabi/5.2.0/../../../../arm-none-eabi/lib/thumb/libc.a(lib_a-mallocr.o)
                              /usr/lib/gcc/arm-none-eabi/5.2.0/../../../../arm-none-eabi/lib/thumb/libc.a(lib_a-signal.o) (_malloc_r)
/usr/lib/gcc/arm-none-eabi/5.2.0/../../../../arm-none-eabi/lib/thumb/libc.a(lib_a-mlock.o)
                              /usr/lib/gcc/arm-none-eabi/5.2.0/../../../../arm-none-eabi/lib/thumb/libc.a(lib_a-mallocr.o) (__malloc_lock)
/usr/lib/gcc/arm-none-eabi/5.2.0/../../../../arm-none-eabi/lib/thumb/libc.a(lib_a-reent.o)
                              /usr/lib/gcc/arm-none-eabi/5.2.0/../../../../arm-none-eabi/lib/thumb/libc.a(lib_a-signalr.o) (errno)
/usr/lib/gcc/arm-none-eabi/5.2.0/../../../../arm-none-eabi/lib/thumb/libc.a(lib_a-sbrkr.o)
                              /usr/lib/gcc/arm-none-eabi/5.2.0/../../../../arm-none-eabi/lib/thumb/libc.a(lib_a-mallocr.o) (_sbrk_r)
/usr/lib/gcc/arm-none-eabi/5.2.0/../../../../arm-none-eabi/lib/thumb/libc.a(lib_a-freer.o)
                              /usr/lib/gcc/arm-none-eabi/5.2.0/../../../../arm-none-eabi/lib/thumb/libc.a(lib_a-mallocr.o) (_free_r)
/usr/lib/gcc/arm-none-eabi/5.2.0/../../../../arm-none-eabi/lib/thumb/libstdc++.a(new_op.o)
                              objs/block_stuff.thumb.o (operator new(unsigned int))
/usr/lib/gcc/arm-none-eabi/5.2.0/../../../../arm-none-eabi/lib/thumb/libstdc++.a(eh_throw.o)
                              /usr/lib/gcc/arm-none-eabi/5.2.0/../../../../arm-none-eabi/lib/thumb/libstdc++.a(new_op.o) (__cxa_throw)
/usr/lib/gcc/arm-none-eabi/5.2.0/../../../../arm-none-eabi/lib/thumb/libstdc++.a(bad_alloc.o)
                              /usr/lib/gcc/arm-none-eabi/5.2.0/../../../../arm-none-eabi/lib/thumb/libstdc++.a(new_op.o) (std::bad_alloc::~bad_alloc())
/usr/lib/gcc/arm-none-eabi/5.2.0/../../../../arm-none-eabi/lib/thumb/libstdc++.a(si_class_type_info.o)
                              objs/air_block_stuff_class.thumb.o (vtable for __cxxabiv1::__si_class_type_info)
/usr/lib/gcc/arm-none-eabi/5.2.0/../../../../arm-none-eabi/lib/thumb/libstdc++.a(eh_globals.o)
                              /usr/lib/gcc/arm-none-eabi/5.2.0/../../../../arm-none-eabi/lib/thumb/libstdc++.a(eh_throw.o) (__cxa_get_globals)
/usr/lib/gcc/arm-none-eabi/5.2.0/../../../../arm-none-eabi/lib/thumb/libstdc++.a(del_op.o)
                              objs/active_level_class.thumb.o (operator delete(void*))
/usr/lib/gcc/arm-none-eabi/5.2.0/../../../../arm-none-eabi/lib/thumb/libstdc++.a(new_handler.o)
                              /usr/lib/gcc/arm-none-eabi/5.2.0/../../../../arm-none-eabi/lib/thumb/libstdc++.a(new_op.o) (std::get_new_handler())
/usr/lib/gcc/arm-none-eabi/5.2.0/../../../../arm-none-eabi/lib/thumb/libstdc++.a(class_type_info.o)
                              /usr/lib/gcc/arm-none-eabi/5.2.0/../../../../arm-none-eabi/lib/thumb/libstdc++.a(si_class_type_info.o) (__cxxabiv1::__class_type_info::__do_upcast(__cxxabiv1::__class_type_info const*, void**) const)
/usr/lib/gcc/arm-none-eabi/5.2.0/../../../../arm-none-eabi/lib/thumb/libstdc++.a(eh_catch.o)
                              /usr/lib/gcc/arm-none-eabi/5.2.0/../../../../arm-none-eabi/lib/thumb/libstdc++.a(eh_throw.o) (__cxa_begin_catch)
/usr/lib/gcc/arm-none-eabi/5.2.0/../../../../arm-none-eabi/lib/thumb/libstdc++.a(eh_call.o)
                              /usr/lib/gcc/arm-none-eabi/5.2.0/../../../../arm-none-eabi/lib/thumb/libstdc++.a(eh_catch.o) (__cxa_call_unexpected)
/usr/lib/gcc/arm-none-eabi/5.2.0/../../../../arm-none-eabi/lib/thumb/libstdc++.a(eh_terminate.o)
                              /usr/lib/gcc/arm-none-eabi/5.2.0/../../../../arm-none-eabi/lib/thumb/libstdc++.a(eh_throw.o) (__cxxabiv1::__terminate(void (*)()))
/usr/lib/gcc/arm-none-eabi/5.2.0/../../../../arm-none-eabi/lib/thumb/libstdc++.a(eh_personality.o)
                              /usr/lib/gcc/arm-none-eabi/5.2.0/../../../../arm-none-eabi/lib/thumb/libstdc++.a(eh_catch.o) (__gxx_personality_v0)
/usr/lib/gcc/arm-none-eabi/5.2.0/../../../../arm-none-eabi/lib/thumb/libstdc++.a(eh_exception.o)
                              /usr/lib/gcc/arm-none-eabi/5.2.0/../../../../arm-none-eabi/lib/thumb/libstdc++.a(bad_alloc.o) (std::exception::~exception())
/usr/lib/gcc/arm-none-eabi/5.2.0/../../../../arm-none-eabi/lib/thumb/libstdc++.a(eh_alloc.o)
                              /usr/lib/gcc/arm-none-eabi/5.2.0/../../../../arm-none-eabi/lib/thumb/libstdc++.a(new_op.o) (__cxa_allocate_exception)
/usr/lib/gcc/arm-none-eabi/5.2.0/../../../../arm-none-eabi/lib/thumb/libstdc++.a(tinfo.o)
                              /usr/lib/gcc/arm-none-eabi/5.2.0/../../../../arm-none-eabi/lib/thumb/libstdc++.a(class_type_info.o) (std::type_info::~type_info())
/usr/lib/gcc/arm-none-eabi/5.2.0/../../../../arm-none-eabi/lib/thumb/libstdc++.a(eh_unex_handler.o)
                              /usr/lib/gcc/arm-none-eabi/5.2.0/../../../../arm-none-eabi/lib/thumb/libstdc++.a(eh_terminate.o) (__cxxabiv1::__unexpected_handler)
/usr/lib/gcc/arm-none-eabi/5.2.0/../../../../arm-none-eabi/lib/thumb/libstdc++.a(eh_arm.o)
                              /usr/lib/gcc/arm-none-eabi/5.2.0/../../../../arm-none-eabi/lib/thumb/libstdc++.a(eh_catch.o) (__cxa_end_cleanup)
/usr/lib/gcc/arm-none-eabi/5.2.0/../../../../arm-none-eabi/lib/thumb/libstdc++.a(pure.o)
                              /usr/lib/gcc/arm-none-eabi/5.2.0/../../../../arm-none-eabi/lib/thumb/libstdc++.a(eh_exception.o) (__cxa_pure_virtual)
/usr/lib/gcc/arm-none-eabi/5.2.0/../../../../arm-none-eabi/lib/thumb/libstdc++.a(eh_term_handler.o)
                              /usr/lib/gcc/arm-none-eabi/5.2.0/../../../../arm-none-eabi/lib/thumb/libstdc++.a(eh_terminate.o) (__cxxabiv1::__terminate_handler)
/usr/lib/gcc/arm-none-eabi/5.2.0/../../../../arm-none-eabi/lib/thumb/libstdc++.a(vterminate.o)
                              /usr/lib/gcc/arm-none-eabi/5.2.0/../../../../arm-none-eabi/lib/thumb/libstdc++.a(eh_term_handler.o) (__gnu_cxx::__verbose_terminate_handler())
/usr/lib/gcc/arm-none-eabi/5.2.0/../../../../arm-none-eabi/lib/thumb/libstdc++.a(cp-demangle.o)
                              /usr/lib/gcc/arm-none-eabi/5.2.0/../../../../arm-none-eabi/lib/thumb/libstdc++.a(vterminate.o) (__cxa_demangle)
/usr/lib/gcc/arm-none-eabi/5.2.0/../../../../arm-none-eabi/lib/thumb/libstdc++.a(eh_type.o)
                              /usr/lib/gcc/arm-none-eabi/5.2.0/../../../../arm-none-eabi/lib/thumb/libstdc++.a(vterminate.o) (__cxa_current_exception_type)
/usr/lib/gcc/arm-none-eabi/5.2.0/libgcc.a(_thumb1_case_sqi.o)
                              /usr/lib/gcc/arm-none-eabi/5.2.0/../../../../arm-none-eabi/lib/thumb/libstdc++.a(eh_personality.o) (__gnu_thumb1_case_sqi)
/usr/lib/gcc/arm-none-eabi/5.2.0/libgcc.a(_thumb1_case_shi.o)
                              /usr/lib/gcc/arm-none-eabi/5.2.0/../../../../arm-none-eabi/lib/thumb/libstdc++.a(cp-demangle.o) (__gnu_thumb1_case_shi)
/usr/lib/gcc/arm-none-eabi/5.2.0/libgcc.a(_thumb1_case_uhi.o)
                              /usr/lib/gcc/arm-none-eabi/5.2.0/../../../../arm-none-eabi/lib/thumb/libstdc++.a(cp-demangle.o) (__gnu_thumb1_case_uhi)
/usr/lib/gcc/arm-none-eabi/5.2.0/../../../../arm-none-eabi/lib/libc.a(lib_a-fputc.o)
                              /usr/lib/gcc/arm-none-eabi/5.2.0/../../../../arm-none-eabi/lib/thumb/libstdc++.a(vterminate.o) (fputc)
/usr/lib/gcc/arm-none-eabi/5.2.0/../../../../arm-none-eabi/lib/libc.a(lib_a-fputs.o)
                              /usr/lib/gcc/arm-none-eabi/5.2.0/../../../../arm-none-eabi/lib/thumb/libstdc++.a(vterminate.o) (fputs)
/usr/lib/gcc/arm-none-eabi/5.2.0/../../../../arm-none-eabi/lib/libc.a(lib_a-fvwrite.o)
                              /usr/lib/gcc/arm-none-eabi/5.2.0/../../../../arm-none-eabi/lib/libc.a(lib_a-fputs.o) (__sfvwrite_r)
/usr/lib/gcc/arm-none-eabi/5.2.0/../../../../arm-none-eabi/lib/libc.a(lib_a-malloc.o)
                              /usr/lib/gcc/arm-none-eabi/5.2.0/../../../../arm-none-eabi/lib/thumb/libstdc++.a(new_op.o) (malloc)
/usr/lib/gcc/arm-none-eabi/5.2.0/../../../../arm-none-eabi/lib/libc.a(lib_a-memchr.o)
                              /usr/lib/gcc/arm-none-eabi/5.2.0/../../../../arm-none-eabi/lib/libc.a(lib_a-fvwrite.o) (memchr)
/usr/lib/gcc/arm-none-eabi/5.2.0/../../../../arm-none-eabi/lib/libc.a(lib_a-memcmp.o)
                              /usr/lib/gcc/arm-none-eabi/5.2.0/../../../../arm-none-eabi/lib/thumb/libstdc++.a(cp-demangle.o) (memcmp)
/usr/lib/gcc/arm-none-eabi/5.2.0/../../../../arm-none-eabi/lib/libc.a(lib_a-memmove.o)
                              /usr/lib/gcc/arm-none-eabi/5.2.0/../../../../arm-none-eabi/lib/libc.a(lib_a-fvwrite.o) (memmove)
/usr/lib/gcc/arm-none-eabi/5.2.0/../../../../arm-none-eabi/lib/libc.a(lib_a-putc.o)
                              /usr/lib/gcc/arm-none-eabi/5.2.0/../../../../arm-none-eabi/lib/libc.a(lib_a-fputc.o) (_putc_r)
/usr/lib/gcc/arm-none-eabi/5.2.0/../../../../arm-none-eabi/lib/libc.a(lib_a-realloc.o)
                              /usr/lib/gcc/arm-none-eabi/5.2.0/../../../../arm-none-eabi/lib/thumb/libstdc++.a(cp-demangle.o) (realloc)
/usr/lib/gcc/arm-none-eabi/5.2.0/../../../../arm-none-eabi/lib/libc.a(lib_a-reallocr.o)
                              /usr/lib/gcc/arm-none-eabi/5.2.0/../../../../arm-none-eabi/lib/libc.a(lib_a-fvwrite.o) (_realloc_r)
/usr/lib/gcc/arm-none-eabi/5.2.0/../../../../arm-none-eabi/lib/libc.a(lib_a-sprintf.o)
                              /usr/lib/gcc/arm-none-eabi/5.2.0/../../../../arm-none-eabi/lib/thumb/libstdc++.a(cp-demangle.o) (sprintf)
/usr/lib/gcc/arm-none-eabi/5.2.0/../../../../arm-none-eabi/lib/libc.a(lib_a-strcmp.o)
                              /usr/lib/gcc/arm-none-eabi/5.2.0/../../../../arm-none-eabi/lib/thumb/libstdc++.a(tinfo.o) (strcmp)
/usr/lib/gcc/arm-none-eabi/5.2.0/../../../../arm-none-eabi/lib/libc.a(lib_a-strcpy.o)
                              /usr/lib/gcc/arm-none-eabi/5.2.0/../../../../arm-none-eabi/lib/thumb/libstdc++.a(cp-demangle.o) (strcpy)
/usr/lib/gcc/arm-none-eabi/5.2.0/../../../../arm-none-eabi/lib/libc.a(lib_a-strlen.o)
                              /usr/lib/gcc/arm-none-eabi/5.2.0/../../../../arm-none-eabi/lib/thumb/libstdc++.a(cp-demangle.o) (strlen)
/usr/lib/gcc/arm-none-eabi/5.2.0/../../../../arm-none-eabi/lib/libc.a(lib_a-strncmp.o)
                              /usr/lib/gcc/arm-none-eabi/5.2.0/../../../../arm-none-eabi/lib/thumb/libstdc++.a(cp-demangle.o) (strncmp)
/usr/lib/gcc/arm-none-eabi/5.2.0/../../../../arm-none-eabi/lib/libc.a(lib_a-svfprintf.o)
                              /usr/lib/gcc/arm-none-eabi/5.2.0/../../../../arm-none-eabi/lib/libc.a(lib_a-sprintf.o) (_svfprintf_r)
/usr/lib/gcc/arm-none-eabi/5.2.0/../../../../arm-none-eabi/lib/libc.a(lib_a-syswrite.o)
                              /usr/lib/gcc/arm-none-eabi/5.2.0/../../../../arm-none-eabi/lib/thumb/libstdc++.a(pure.o) (write)
/usr/lib/gcc/arm-none-eabi/5.2.0/../../../../arm-none-eabi/lib/libc.a(lib_a-wbuf.o)
                              /usr/lib/gcc/arm-none-eabi/5.2.0/../../../../arm-none-eabi/lib/libc.a(lib_a-putc.o) (__swbuf_r)
/usr/lib/gcc/arm-none-eabi/5.2.0/../../../../arm-none-eabi/lib/libc.a(lib_a-writer.o)
                              /usr/lib/gcc/arm-none-eabi/5.2.0/../../../../arm-none-eabi/lib/libc.a(lib_a-syswrite.o) (_write_r)
/usr/lib/gcc/arm-none-eabi/5.2.0/../../../../arm-none-eabi/lib/libc.a(lib_a-wsetup.o)
                              /usr/lib/gcc/arm-none-eabi/5.2.0/../../../../arm-none-eabi/lib/libc.a(lib_a-fvwrite.o) (__swsetup_r)
/usr/lib/gcc/arm-none-eabi/5.2.0/../../../../arm-none-eabi/lib/libc.a(lib_a-dtoa.o)
                              /usr/lib/gcc/arm-none-eabi/5.2.0/../../../../arm-none-eabi/lib/libc.a(lib_a-svfprintf.o) (_dtoa_r)
/usr/lib/gcc/arm-none-eabi/5.2.0/../../../../arm-none-eabi/lib/libc.a(lib_a-fflush.o)
                              /usr/lib/gcc/arm-none-eabi/5.2.0/../../../../arm-none-eabi/lib/libc.a(lib_a-fvwrite.o) (_fflush_r)
/usr/lib/gcc/arm-none-eabi/5.2.0/../../../../arm-none-eabi/lib/libc.a(lib_a-findfp.o)
                              /usr/lib/gcc/arm-none-eabi/5.2.0/../../../../arm-none-eabi/lib/libc.a(lib_a-fputc.o) (__sinit)
/usr/lib/gcc/arm-none-eabi/5.2.0/../../../../arm-none-eabi/lib/libc.a(lib_a-fwalk.o)
                              /usr/lib/gcc/arm-none-eabi/5.2.0/../../../../arm-none-eabi/lib/libc.a(lib_a-findfp.o) (_fwalk)
/usr/lib/gcc/arm-none-eabi/5.2.0/../../../../arm-none-eabi/lib/libc.a(lib_a-locale.o)
                              /usr/lib/gcc/arm-none-eabi/5.2.0/../../../../arm-none-eabi/lib/libc.a(lib_a-svfprintf.o) (_localeconv_r)
/usr/lib/gcc/arm-none-eabi/5.2.0/../../../../arm-none-eabi/lib/libc.a(lib_a-makebuf.o)
                              /usr/lib/gcc/arm-none-eabi/5.2.0/../../../../arm-none-eabi/lib/libc.a(lib_a-wsetup.o) (__smakebuf_r)
/usr/lib/gcc/arm-none-eabi/5.2.0/../../../../arm-none-eabi/lib/libc.a(lib_a-mprec.o)
                              /usr/lib/gcc/arm-none-eabi/5.2.0/../../../../arm-none-eabi/lib/libc.a(lib_a-dtoa.o) (_Balloc)
/usr/lib/gcc/arm-none-eabi/5.2.0/../../../../arm-none-eabi/lib/libc.a(lib_a-s_fpclassify.o)
                              /usr/lib/gcc/arm-none-eabi/5.2.0/../../../../arm-none-eabi/lib/libc.a(lib_a-svfprintf.o) (__fpclassifyd)
/usr/lib/gcc/arm-none-eabi/5.2.0/../../../../arm-none-eabi/lib/libc.a(lib_a-stdio.o)
                              /usr/lib/gcc/arm-none-eabi/5.2.0/../../../../arm-none-eabi/lib/libc.a(lib_a-findfp.o) (__sread)
/usr/lib/gcc/arm-none-eabi/5.2.0/../../../../arm-none-eabi/lib/libc.a(lib_a-svfiprintf.o)
                              /usr/lib/gcc/arm-none-eabi/5.2.0/../../../../arm-none-eabi/lib/libc.a(lib_a-svfprintf.o) (__ssprint_r)
/usr/lib/gcc/arm-none-eabi/5.2.0/../../../../arm-none-eabi/lib/libc.a(lib_a-callocr.o)
                              /usr/lib/gcc/arm-none-eabi/5.2.0/../../../../arm-none-eabi/lib/libc.a(lib_a-mprec.o) (_calloc_r)
/usr/lib/gcc/arm-none-eabi/5.2.0/../../../../arm-none-eabi/lib/libc.a(lib_a-closer.o)
                              /usr/lib/gcc/arm-none-eabi/5.2.0/../../../../arm-none-eabi/lib/libc.a(lib_a-stdio.o) (_close_r)
/usr/lib/gcc/arm-none-eabi/5.2.0/../../../../arm-none-eabi/lib/libc.a(lib_a-fclose.o)
                              /usr/lib/gcc/arm-none-eabi/5.2.0/../../../../arm-none-eabi/lib/libc.a(lib_a-findfp.o) (_fclose_r)
/usr/lib/gcc/arm-none-eabi/5.2.0/../../../../arm-none-eabi/lib/libc.a(lib_a-fstatr.o)
                              /usr/lib/gcc/arm-none-eabi/5.2.0/../../../../arm-none-eabi/lib/libc.a(lib_a-makebuf.o) (_fstat_r)
/usr/lib/gcc/arm-none-eabi/5.2.0/../../../../arm-none-eabi/lib/libc.a(lib_a-isattyr.o)
                              /usr/lib/gcc/arm-none-eabi/5.2.0/../../../../arm-none-eabi/lib/libc.a(lib_a-makebuf.o) (_isatty_r)
/usr/lib/gcc/arm-none-eabi/5.2.0/../../../../arm-none-eabi/lib/libc.a(lib_a-lseekr.o)
                              /usr/lib/gcc/arm-none-eabi/5.2.0/../../../../arm-none-eabi/lib/libc.a(lib_a-stdio.o) (_lseek_r)
/usr/lib/gcc/arm-none-eabi/5.2.0/../../../../arm-none-eabi/lib/libc.a(lib_a-readr.o)
                              /usr/lib/gcc/arm-none-eabi/5.2.0/../../../../arm-none-eabi/lib/libc.a(lib_a-stdio.o) (_read_r)
./maxmod/lib/libmm.a(mm_main.o)
                              objs/main.thumb.o (mmFrame)
./maxmod/lib/libmm.a(mm_mas.o)
                              ./maxmod/lib/libmm.a(mm_main.o) (mmLayerMain)
./maxmod/lib/libmm.a(mm_init_default.o)
                              objs/main.thumb.o (mmInitDefault)
./maxmod/lib/libmm.a(mm_mixer_gba.o)
                              ./maxmod/lib/libmm.a(mm_init_default.o) (mmVBlank)
./maxmod/lib/libmm.a(mm_effect.o)
                              ./maxmod/lib/libmm.a(mm_main.o) (mmResetEffects)
./maxmod/lib/libmm.a(mm_mas_arm.o)
                              ./maxmod/lib/libmm.a(mm_mas.o) (mmAllocChannel)
/usr/lib/gcc/arm-none-eabi/5.2.0/libgcc.a(_udivsi3.o)
                              /usr/lib/gcc/arm-none-eabi/5.2.0/../../../../arm-none-eabi/lib/libc.a(lib_a-dtoa.o) (__aeabi_uidiv)
/usr/lib/gcc/arm-none-eabi/5.2.0/libgcc.a(_divsi3.o)
                              /usr/lib/gcc/arm-none-eabi/5.2.0/../../../../arm-none-eabi/lib/libc.a(lib_a-fvwrite.o) (__aeabi_idiv)
/usr/lib/gcc/arm-none-eabi/5.2.0/libgcc.a(_dvmd_tls.o)
                              /usr/lib/gcc/arm-none-eabi/5.2.0/libgcc.a(_udivsi3.o) (__aeabi_idiv0)
/usr/lib/gcc/arm-none-eabi/5.2.0/libgcc.a(_call_via_rX.o)
                              ./maxmod/lib/libmm.a(mm_main.o) (_call_via_r1)
/usr/lib/gcc/arm-none-eabi/5.2.0/libgcc.a(_arm_addsubdf3.o)
                              /usr/lib/gcc/arm-none-eabi/5.2.0/../../../../arm-none-eabi/lib/libc.a(lib_a-dtoa.o) (__aeabi_dsub)
/usr/lib/gcc/arm-none-eabi/5.2.0/libgcc.a(_arm_muldivdf3.o)
                              /usr/lib/gcc/arm-none-eabi/5.2.0/../../../../arm-none-eabi/lib/libc.a(lib_a-dtoa.o) (__aeabi_dmul)
/usr/lib/gcc/arm-none-eabi/5.2.0/libgcc.a(_arm_cmpdf2.o)
                              /usr/lib/gcc/arm-none-eabi/5.2.0/../../../../arm-none-eabi/lib/libc.a(lib_a-svfprintf.o) (__aeabi_dcmpeq)
/usr/lib/gcc/arm-none-eabi/5.2.0/libgcc.a(_arm_fixdfsi.o)
                              /usr/lib/gcc/arm-none-eabi/5.2.0/../../../../arm-none-eabi/lib/libc.a(lib_a-dtoa.o) (__aeabi_d2iz)
/usr/lib/gcc/arm-none-eabi/5.2.0/libgcc.a(_aeabi_uldivmod.o)
                              /usr/lib/gcc/arm-none-eabi/5.2.0/../../../../arm-none-eabi/lib/libc.a(lib_a-svfprintf.o) (__aeabi_uldivmod)
/usr/lib/gcc/arm-none-eabi/5.2.0/libgcc.a(_udivmoddi4.o)
                              /usr/lib/gcc/arm-none-eabi/5.2.0/libgcc.a(_aeabi_uldivmod.o) (__udivmoddi4)
/usr/lib/gcc/arm-none-eabi/5.2.0/libgcc.a(_lshrdi3.o)
                              /usr/lib/gcc/arm-none-eabi/5.2.0/libgcc.a(_udivmoddi4.o) (__aeabi_llsr)
/usr/lib/gcc/arm-none-eabi/5.2.0/libgcc.a(_ashldi3.o)
                              /usr/lib/gcc/arm-none-eabi/5.2.0/libgcc.a(_udivmoddi4.o) (__aeabi_llsl)
/usr/lib/gcc/arm-none-eabi/5.2.0/libgcc.a(_clzdi2.o)
                              /usr/lib/gcc/arm-none-eabi/5.2.0/libgcc.a(_udivmoddi4.o) (__clzdi2)
/usr/lib/gcc/arm-none-eabi/5.2.0/libgcc.a(_clzsi2.o)
                              /usr/lib/gcc/arm-none-eabi/5.2.0/libgcc.a(_clzdi2.o) (__clzsi2)
/usr/lib/gcc/arm-none-eabi/5.2.0/../../../../arm-none-eabi/lib/libnosys.a(close.o)
                              /usr/lib/gcc/arm-none-eabi/5.2.0/../../../../arm-none-eabi/lib/libc.a(lib_a-closer.o) (_close)
/usr/lib/gcc/arm-none-eabi/5.2.0/../../../../arm-none-eabi/lib/libnosys.a(fstat.o)
                              /usr/lib/gcc/arm-none-eabi/5.2.0/../../../../arm-none-eabi/lib/libc.a(lib_a-fstatr.o) (_fstat)
/usr/lib/gcc/arm-none-eabi/5.2.0/../../../../arm-none-eabi/lib/libnosys.a(getpid.o)
                              /usr/lib/gcc/arm-none-eabi/5.2.0/../../../../arm-none-eabi/lib/thumb/libc.a(lib_a-signalr.o) (_getpid)
/usr/lib/gcc/arm-none-eabi/5.2.0/../../../../arm-none-eabi/lib/libnosys.a(isatty.o)
                              /usr/lib/gcc/arm-none-eabi/5.2.0/../../../../arm-none-eabi/lib/libc.a(lib_a-isattyr.o) (_isatty)
/usr/lib/gcc/arm-none-eabi/5.2.0/../../../../arm-none-eabi/lib/libnosys.a(kill.o)
                              /usr/lib/gcc/arm-none-eabi/5.2.0/../../../../arm-none-eabi/lib/thumb/libc.a(lib_a-signalr.o) (_kill)
/usr/lib/gcc/arm-none-eabi/5.2.0/../../../../arm-none-eabi/lib/libnosys.a(lseek.o)
                              /usr/lib/gcc/arm-none-eabi/5.2.0/../../../../arm-none-eabi/lib/libc.a(lib_a-lseekr.o) (_lseek)
/usr/lib/gcc/arm-none-eabi/5.2.0/../../../../arm-none-eabi/lib/libnosys.a(read.o)
                              /usr/lib/gcc/arm-none-eabi/5.2.0/../../../../arm-none-eabi/lib/libc.a(lib_a-readr.o) (_read)
/usr/lib/gcc/arm-none-eabi/5.2.0/../../../../arm-none-eabi/lib/libnosys.a(sbrk.o)
                              /usr/lib/gcc/arm-none-eabi/5.2.0/../../../../arm-none-eabi/lib/thumb/libc.a(lib_a-sbrkr.o) (_sbrk)
/usr/lib/gcc/arm-none-eabi/5.2.0/../../../../arm-none-eabi/lib/libnosys.a(write.o)
                              /usr/lib/gcc/arm-none-eabi/5.2.0/../../../../arm-none-eabi/lib/libc.a(lib_a-writer.o) (_write)
/usr/lib/gcc/arm-none-eabi/5.2.0/../../../../arm-none-eabi/lib/libnosys.a(_exit.o)
                              /usr/lib/gcc/arm-none-eabi/5.2.0/../../../../arm-none-eabi/lib/thumb/libc.a(lib_a-abort.o) (_exit)

Allocating common symbols
Common symbol       size              file

errno               0x4               /usr/lib/gcc/arm-none-eabi/5.2.0/../../../../arm-none-eabi/lib/thumb/libc.a(lib_a-reent.o)

Discarded input sections

 .group         0x0000000000000000       0x10 objs/active_level_class.thumb.o
 .group         0x0000000000000000       0x10 objs/block_stuff.thumb.o
 .group         0x0000000000000000       0x10 objs/block_stuff.thumb.o
 .group         0x0000000000000000       0x10 objs/block_stuff.thumb.o
 .group         0x0000000000000000       0x10 objs/block_stuff.thumb.o
 .group         0x0000000000000000       0x10 objs/block_stuff.thumb.o
 .group         0x0000000000000000       0x10 objs/block_stuff.thumb.o
 .group         0x0000000000000000       0x10 objs/block_stuff.thumb.o
 .group         0x0000000000000000       0x10 objs/block_stuff.thumb.o
 .group         0x0000000000000000       0x10 objs/block_stuff.thumb.o
 .group         0x0000000000000000       0x10 objs/block_stuff.thumb.o
 .group         0x0000000000000000       0x10 objs/block_stuff.thumb.o
 .group         0x0000000000000000       0x10 objs/block_stuff.thumb.o
 .group         0x0000000000000000       0x10 objs/block_stuff.thumb.o
 .group         0x0000000000000000       0x10 objs/block_stuff.thumb.o
 .group         0x0000000000000000       0x10 objs/block_stuff.thumb.o
 .group         0x0000000000000000       0x10 objs/block_stuff.thumb.o
 .group         0x0000000000000000       0x10 objs/block_stuff.thumb.o
 .group         0x0000000000000000       0x10 objs/block_stuff.thumb.o
 .group         0x0000000000000000       0x10 objs/block_stuff.thumb.o
 .group         0x0000000000000000       0x10 objs/block_stuff.thumb.o
 .group         0x0000000000000000       0x10 objs/block_stuff.thumb.o
 .group         0x0000000000000000       0x10 objs/block_stuff.thumb.o
 .group         0x0000000000000000       0x10 objs/block_stuff.thumb.o
 .group         0x0000000000000000       0x10 objs/block_stuff.thumb.o
 .group         0x0000000000000000       0x10 objs/block_stuff.thumb.o
 .group         0x0000000000000000       0x10 objs/block_stuff.thumb.o
 .group         0x0000000000000000       0x10 objs/block_stuff.thumb.o
 .group         0x0000000000000000       0x10 objs/block_stuff.thumb.o
 .group         0x0000000000000000       0x10 objs/block_stuff.thumb.o
 .group         0x0000000000000000       0x10 objs/block_stuff.thumb.o
 .group         0x0000000000000000       0x10 objs/block_stuff.thumb.o
 .group         0x0000000000000000       0x10 objs/block_stuff.thumb.o
 .group         0x0000000000000000       0x10 objs/block_stuff.thumb.o
 .group         0x0000000000000000       0x10 objs/block_stuff.thumb.o
 .group         0x0000000000000000       0x10 objs/block_stuff.thumb.o
 .group         0x0000000000000000       0x10 objs/block_stuff.thumb.o
 .group         0x0000000000000000       0x10 objs/block_stuff.thumb.o
 .group         0x0000000000000000       0x10 objs/block_stuff.thumb.o
 .group         0x0000000000000000       0x10 objs/block_stuff.thumb.o
 .group         0x0000000000000000       0x10 objs/block_stuff.thumb.o
 .group         0x0000000000000000       0x10 objs/block_stuff.thumb.o
 .group         0x0000000000000000       0x10 objs/block_stuff.thumb.o
 .group         0x0000000000000000       0x10 objs/block_stuff.thumb.o
 .group         0x0000000000000000       0x10 objs/block_stuff.thumb.o
 .group         0x0000000000000000       0x10 objs/block_stuff.thumb.o
 .group         0x0000000000000000       0x10 objs/block_stuff.thumb.o
 .group         0x0000000000000000       0x10 objs/block_stuff.thumb.o
 .group         0x0000000000000000       0x10 objs/block_stuff.thumb.o
 .group         0x0000000000000000       0x10 objs/block_stuff.thumb.o
 .group         0x0000000000000000       0x10 objs/block_stuff.thumb.o
 .group         0x0000000000000000       0x10 objs/block_stuff.thumb.o
 .group         0x0000000000000000       0x10 objs/block_stuff.thumb.o
 .group         0x0000000000000000       0x10 objs/block_stuff.thumb.o
 .group         0x0000000000000000       0x10 objs/block_stuff.thumb.o
 .group         0x0000000000000000        0x8 objs/block_stuff.thumb.o
 .group         0x0000000000000000        0x8 objs/block_stuff.thumb.o
 .group         0x0000000000000000        0x8 objs/block_stuff.thumb.o
 .group         0x0000000000000000        0x8 objs/block_stuff.thumb.o
 .group         0x0000000000000000        0x8 objs/block_stuff.thumb.o
 .group         0x0000000000000000        0x8 objs/block_stuff.thumb.o
 .group         0x0000000000000000        0x8 objs/block_stuff.thumb.o
 .group         0x0000000000000000        0x8 objs/block_stuff.thumb.o
 .group         0x0000000000000000        0x8 objs/block_stuff.thumb.o
 .group         0x0000000000000000        0x8 objs/block_stuff.thumb.o
 .group         0x0000000000000000        0x8 objs/block_stuff.thumb.o
 .group         0x0000000000000000        0x8 objs/block_stuff.thumb.o
 .group         0x0000000000000000        0x8 objs/block_stuff.thumb.o
 .group         0x0000000000000000        0x8 objs/block_stuff.thumb.o
 .group         0x0000000000000000        0x8 objs/block_stuff.thumb.o
 .group         0x0000000000000000        0x8 objs/block_stuff.thumb.o
 .group         0x0000000000000000        0x8 objs/block_stuff.thumb.o
 .group         0x0000000000000000        0x8 objs/block_stuff.thumb.o
 .group         0x0000000000000000        0x8 objs/block_stuff.thumb.o
 .group         0x0000000000000000        0x8 objs/block_stuff.thumb.o
 .group         0x0000000000000000        0x8 objs/block_stuff.thumb.o
 .group         0x0000000000000000        0x8 objs/block_stuff.thumb.o
 .group         0x0000000000000000        0x8 objs/block_stuff.thumb.o
 .group         0x0000000000000000        0x8 objs/block_stuff.thumb.o
 .group         0x0000000000000000        0x8 objs/block_stuff.thumb.o
 .group         0x0000000000000000        0x8 objs/block_stuff.thumb.o
 .group         0x0000000000000000        0x8 objs/block_stuff.thumb.o
 .group         0x0000000000000000        0x8 objs/block_stuff.thumb.o
 .group         0x0000000000000000        0x8 objs/block_stuff.thumb.o
 .group         0x0000000000000000        0x8 objs/block_stuff.thumb.o
 .group         0x0000000000000000        0x8 objs/block_stuff.thumb.o
 .group         0x0000000000000000        0x8 objs/block_stuff.thumb.o
 .group         0x0000000000000000        0x8 objs/block_stuff.thumb.o
 .group         0x0000000000000000        0x8 objs/block_stuff.thumb.o
 .group         0x0000000000000000        0x8 objs/block_stuff.thumb.o
 .group         0x0000000000000000        0x8 objs/block_stuff.thumb.o
 .group         0x0000000000000000        0x8 objs/block_stuff.thumb.o
 .group         0x0000000000000000        0x8 objs/block_stuff.thumb.o
 .group         0x0000000000000000        0x8 objs/block_stuff.thumb.o
 .group         0x0000000000000000        0x8 objs/block_stuff.thumb.o
 .group         0x0000000000000000        0x8 objs/block_stuff.thumb.o
 .group         0x0000000000000000        0x8 objs/block_stuff.thumb.o
 .group         0x0000000000000000        0x8 objs/block_stuff.thumb.o
 .group         0x0000000000000000        0x8 objs/block_stuff.thumb.o
 .group         0x0000000000000000        0x8 objs/block_stuff.thumb.o
 .group         0x0000000000000000        0x8 objs/block_stuff.thumb.o
 .group         0x0000000000000000        0x8 objs/block_stuff.thumb.o
 .group         0x0000000000000000        0x8 objs/block_stuff.thumb.o
 .group         0x0000000000000000        0x8 objs/block_stuff.thumb.o
 .group         0x0000000000000000        0x8 objs/block_stuff.thumb.o
 .group         0x0000000000000000        0x8 objs/block_stuff.thumb.o
 .group         0x0000000000000000        0x8 objs/block_stuff.thumb.o
 .group         0x0000000000000000        0x8 objs/block_stuff.thumb.o
 .group         0x0000000000000000        0x8 objs/block_stuff.thumb.o
 .group         0x0000000000000000       0x10 objs/player_sprite_stuff_class.thumb.o
 .group         0x0000000000000000       0x10 objs/player_sprite_stuff_class.thumb.o
 .group         0x0000000000000000       0x10 objs/player_sprite_stuff_class.thumb.o
 .group         0x0000000000000000       0x10 objs/player_sprite_stuff_class.thumb.o
 .group         0x0000000000000000       0x10 objs/sprite_base_stuff_class.thumb.o
 .group         0x0000000000000000       0x10 objs/sprite_base_stuff_class.thumb.o
 .group         0x0000000000000000       0x10 objs/sprite_manager_class.thumb.o
 .group         0x0000000000000000       0x10 objs/sprite_type_stuff.thumb.o
 .group         0x0000000000000000       0x10 objs/sprite_type_stuff.thumb.o
 .group         0x0000000000000000       0x10 objs/sprite_type_stuff.thumb.o
 .group         0x0000000000000000       0x10 objs/sprite_type_stuff.thumb.o
 .group         0x0000000000000000       0x10 objs/sprite_type_stuff.thumb.o
 .group         0x0000000000000000       0x10 objs/sprite_type_stuff.thumb.o
 .group         0x0000000000000000       0x10 objs/sprite_type_stuff.thumb.o
 .group         0x0000000000000000       0x10 objs/sprite_type_stuff.thumb.o
 .group         0x0000000000000000       0x10 objs/sprite_type_stuff.thumb.o
 .group         0x0000000000000000       0x10 objs/sprite_type_stuff.thumb.o
 .group         0x0000000000000000       0x10 objs/sprite_type_stuff.thumb.o
 .group         0x0000000000000000       0x10 objs/sprite_type_stuff.thumb.o
 .group         0x0000000000000000       0x10 objs/sprite_type_stuff.thumb.o
 .group         0x0000000000000000       0x10 objs/sprite_type_stuff.thumb.o
 .group         0x0000000000000000       0x10 objs/sprite_type_stuff.thumb.o
 .group         0x0000000000000000       0x10 objs/sprite_type_stuff.thumb.o
 .group         0x0000000000000000       0x10 objs/sprite_type_stuff.thumb.o
 .group         0x0000000000000000       0x10 objs/sprite_type_stuff.thumb.o
 .group         0x0000000000000000       0x10 objs/sprite_type_stuff.thumb.o
 .group         0x0000000000000000       0x10 objs/sprite_type_stuff.thumb.o
 .group         0x0000000000000000       0x10 objs/sprite_type_stuff.thumb.o
 .group         0x0000000000000000       0x10 objs/sprite_type_stuff.thumb.o
 .group         0x0000000000000000       0x10 objs/sprite_type_stuff.thumb.o
 .group         0x0000000000000000       0x10 objs/sprite_type_stuff.thumb.o
 .group         0x0000000000000000       0x10 objs/sprite_type_stuff.thumb.o
 .group         0x0000000000000000        0x8 objs/sprite_type_stuff.thumb.o
 .group         0x0000000000000000        0x8 objs/sprite_type_stuff.thumb.o
 .group         0x0000000000000000        0x8 objs/sprite_type_stuff.thumb.o
 .group         0x0000000000000000        0x8 objs/sprite_type_stuff.thumb.o
 .group         0x0000000000000000        0x8 objs/sprite_type_stuff.thumb.o
 .group         0x0000000000000000        0x8 objs/sprite_type_stuff.thumb.o
 .group         0x0000000000000000        0x8 objs/sprite_type_stuff.thumb.o
 .group         0x0000000000000000        0x8 objs/sprite_type_stuff.thumb.o
 .group         0x0000000000000000        0x8 objs/sprite_type_stuff.thumb.o
 .group         0x0000000000000000        0x8 objs/sprite_type_stuff.thumb.o
 .group         0x0000000000000000        0x8 objs/sprite_type_stuff.thumb.o
 .group         0x0000000000000000        0x8 objs/sprite_type_stuff.thumb.o
 .group         0x0000000000000000        0x8 objs/sprite_type_stuff.thumb.o
 .group         0x0000000000000000        0x8 objs/sprite_type_stuff.thumb.o
 .group         0x0000000000000000        0x8 objs/sprite_type_stuff.thumb.o
 .group         0x0000000000000000       0x10 objs/waffle_sprite_stuff_class.thumb.o
 .group         0x0000000000000000       0x10 objs/waffle_sprite_stuff_class.thumb.o
 .group         0x0000000000000000       0x10 objs/waffle_sprite_stuff_class.thumb.o
 .group         0x0000000000000000       0x10 objs/waffle_sprite_stuff_class.thumb.o
 .group         0x0000000000000000       0x10 objs/waffle_sprite_stuff_class.thumb.o
 .group         0x0000000000000000       0x10 objs/waffle_sprite_stuff_class.thumb.o

Memory Configuration

Name             Origin             Length             Attributes
rom              0x0000000008000000 0x0000000002000000
iwram            0x0000000003000000 0x0000000000008000
ewram            0x0000000002000000 0x0000000000040000
sram             0x000000000e000000 0x0000000000010000
*default*        0x0000000000000000 0xffffffffffffffff

Linker script and memory map

LOAD /usr/lib/gcc/arm-none-eabi/5.2.0/crti.o
LOAD /usr/lib/gcc/arm-none-eabi/5.2.0/crtbegin.o
LOAD /usr/lib/gcc/arm-none-eabi/5.2.0/../../../../arm-none-eabi/lib/crt0.o
LOAD objs/active_level_class.thumb.o
LOAD objs/active_level_manager_class.arm.o
LOAD objs/active_level_manager_class.thumb.o
LOAD objs/air_block_stuff_class.thumb.o
LOAD objs/asm_init.o
LOAD objs/bg_reg_stuff.arm.o
LOAD objs/block_base_stuff_class.thumb.o
LOAD objs/block_stuff.thumb.o
LOAD objs/button_stuff.thumb.o
LOAD objs/coll_box_class.arm.o
LOAD objs/coll_box_class.thumb.o
LOAD objs/coll_point_group_class.thumb.o
LOAD objs/debug_vars.thumb.o
LOAD objs/division_funcs.o
LOAD objs/dma_stuff.thumb.o
LOAD objs/dud_block_stuff_class.thumb.o
LOAD objs/exclam_block_stuff_classes.thumb.o
LOAD objs/eyes_block_stuff_classes.thumb.o
LOAD objs/fixed_classes.thumb.o
LOAD objs/grass_and_dirt_block_stuff_classes.thumb.o
LOAD objs/interrupt_stuff.arm.o
LOAD objs/interrupt_stuff.thumb.o
LOAD objs/level_class.thumb.o
LOAD objs/log_block_stuff_class.thumb.o
LOAD objs/main.thumb.o
LOAD objs/memcpy32_from_tonc.o
LOAD objs/memory_funcs_8bit.o
LOAD objs/muffin_sprite_stuff_classes.thumb.o
LOAD objs/oam_entry_classes.thumb.o
LOAD objs/player_sprite_stuff_class.thumb.o
LOAD objs/practice_17.bin.o
LOAD objs/ram_funcs1.o
LOAD objs/sherwin_gfx.o
LOAD objs/sprite_base_stuff_class.arm.o
LOAD objs/sprite_base_stuff_class.thumb.o
LOAD objs/sprite_class.thumb.o
LOAD objs/sprite_gfx_stuff.thumb.o
LOAD objs/sprite_manager_class.arm.o
LOAD objs/sprite_manager_class.thumb.o
LOAD objs/sprite_type_stuff.thumb.o
LOAD objs/sublevel_class.thumb.o
LOAD objs/test_level.thumb.o
LOAD objs/the_block_gfx.o
LOAD objs/the_block_like_sprites_gfx.o
LOAD objs/the_golem_enemy_gfx.o
LOAD objs/the_powerup_gfx.o
LOAD objs/title_screen.o
LOAD objs/waffle_sprite_stuff_class.arm.o
LOAD objs/waffle_sprite_stuff_class.thumb.o
LOAD objs/warp_block_sprite_stuff_class.thumb.o
LOAD objs/wood_block_stuff_classes.thumb.o
LOAD /usr/lib/gcc/arm-none-eabi/5.2.0/thumb/libgcc.a
LOAD /usr/lib/gcc/arm-none-eabi/5.2.0/../../../../arm-none-eabi/lib/thumb/libc.a
LOAD /usr/lib/gcc/arm-none-eabi/5.2.0/../../../../arm-none-eabi/lib/thumb/libstdc++.a
LOAD /usr/lib/gcc/arm-none-eabi/5.2.0/libgcc.a
LOAD /usr/lib/gcc/arm-none-eabi/5.2.0/../../../../arm-none-eabi/lib/libc.a
LOAD /usr/lib/gcc/arm-none-eabi/5.2.0/../../../../arm-none-eabi/lib/libstdc++.a
LOAD ./maxmod/lib/libmm.a
START GROUP
LOAD /usr/lib/gcc/arm-none-eabi/5.2.0/libgcc.a
LOAD /usr/lib/gcc/arm-none-eabi/5.2.0/../../../../arm-none-eabi/lib/libc.a
END GROUP
START GROUP
LOAD /usr/lib/gcc/arm-none-eabi/5.2.0/libgcc.a
LOAD /usr/lib/gcc/arm-none-eabi/5.2.0/../../../../arm-none-eabi/lib/libc.a
LOAD /usr/lib/gcc/arm-none-eabi/5.2.0/../../../../arm-none-eabi/lib/libnosys.a
END GROUP
LOAD /usr/lib/gcc/arm-none-eabi/5.2.0/crtend.o
LOAD /usr/lib/gcc/arm-none-eabi/5.2.0/crtn.o
                0x0000000008000000                __text_start = ORIGIN (rom)
                0x0000000002000000                __ewram_start = ORIGIN (ewram)
                0x0000000003000000                __iwram_start = ORIGIN (iwram)
                0x000000000e000000                __sram_start = ORIGIN (sram)
                0x0000000008000000                . = __text_start

.startup        0x0000000008000000      0x254
 *(.startup)
 .startup       0x0000000008000000      0x254 objs/asm_init.o
                0x0000000008000000                _start2
                0x0000000008000100                next
 *(.asm_text)
                0x0000000008000254                . = ALIGN (0x4)

.text           0x0000000008000258    0x60430
 CREATE_OBJECT_SYMBOLS
 *(.text .text.* .gnu.linkonce.t.*)
 .text          0x0000000008000258        0x0 /usr/lib/gcc/arm-none-eabi/5.2.0/crti.o
 .text          0x0000000008000258        0x0 /usr/lib/gcc/arm-none-eabi/5.2.0/crtbegin.o
 .text.__do_global_dtors_aux
                0x0000000008000258       0x44 /usr/lib/gcc/arm-none-eabi/5.2.0/crtbegin.o
 .text.frame_dummy
                0x000000000800029c       0x54 /usr/lib/gcc/arm-none-eabi/5.2.0/crtbegin.o
 .text          0x00000000080002f0      0x104 /usr/lib/gcc/arm-none-eabi/5.2.0/../../../../arm-none-eabi/lib/crt0.o
                0x00000000080002f0                _mainCRTStartup
                0x00000000080002f0                _start
 .text          0x00000000080003f4        0x0 objs/active_level_class.thumb.o
 .text._ZNSt5arrayISt12forward_listI23sprite_init_param_groupSaIS1_EELj512EED2Ev
                0x00000000080003f4       0x2c objs/active_level_class.thumb.o
                0x00000000080003f4                std::array<std::forward_list<sprite_init_param_group, std::allocator<sprite_init_param_group> >, 512u>::~array()
                0x00000000080003f4                std::array<std::forward_list<sprite_init_param_group, std::allocator<sprite_init_param_group> >, 512u>::~array()
 .text.startup  0x0000000008000420       0x4c objs/active_level_class.thumb.o
 .text          0x000000000800046c        0x0 objs/active_level_manager_class.arm.o
 .text          0x000000000800046c        0x0 objs/active_level_manager_class.thumb.o
 .text          0x000000000800046c        0x0 objs/air_block_stuff_class.thumb.o
 .text          0x000000000800046c        0x8 objs/asm_init.o
                0x000000000800046c                asm_main
 .text          0x0000000008000474        0x0 objs/bg_reg_stuff.arm.o
 .text          0x0000000008000474        0x0 objs/block_base_stuff_class.thumb.o
 .text          0x0000000008000474        0x0 objs/block_stuff.thumb.o
 .text._ZN24grass_single_block_stuff19get_metatile_numberEv
                0x0000000008000474        0x4 objs/block_stuff.thumb.o
                0x0000000008000474                grass_single_block_stuff::get_metatile_number()
 .text._ZN24grass_single_block_stuff18get_palette_numberEv
                0x0000000008000478        0x4 objs/block_stuff.thumb.o
                0x0000000008000478                grass_single_block_stuff::get_palette_number()
 .text._ZN24grass_single_block_stuff26get_metatile_graphics_slotEv
                0x000000000800047c        0x4 objs/block_stuff.thumb.o
                0x000000000800047c                grass_single_block_stuff::get_metatile_graphics_slot()
 .text._ZN26grass_top_left_block_stuff19get_metatile_numberEv
                0x0000000008000480        0x4 objs/block_stuff.thumb.o
                0x0000000008000480                grass_top_left_block_stuff::get_metatile_number()
 .text._ZN26grass_top_left_block_stuff18get_palette_numberEv
                0x0000000008000484        0x4 objs/block_stuff.thumb.o
                0x0000000008000484                grass_top_left_block_stuff::get_palette_number()
 .text._ZN26grass_top_left_block_stuff26get_metatile_graphics_slotEv
                0x0000000008000488        0x4 objs/block_stuff.thumb.o
                0x0000000008000488                grass_top_left_block_stuff::get_metatile_graphics_slot()
 .text._ZN28grass_top_middle_block_stuff19get_metatile_numberEv
                0x000000000800048c        0x4 objs/block_stuff.thumb.o
                0x000000000800048c                grass_top_middle_block_stuff::get_metatile_number()
 .text._ZN28grass_top_middle_block_stuff18get_palette_numberEv
                0x0000000008000490        0x4 objs/block_stuff.thumb.o
                0x0000000008000490                grass_top_middle_block_stuff::get_palette_number()
 .text._ZN28grass_top_middle_block_stuff26get_metatile_graphics_slotEv
                0x0000000008000494        0x4 objs/block_stuff.thumb.o
                0x0000000008000494                grass_top_middle_block_stuff::get_metatile_graphics_slot()
 .text._ZN27grass_top_right_block_stuff19get_metatile_numberEv
                0x0000000008000498        0x4 objs/block_stuff.thumb.o
                0x0000000008000498                grass_top_right_block_stuff::get_metatile_number()
 .text._ZN27grass_top_right_block_stuff18get_palette_numberEv
                0x000000000800049c        0x4 objs/block_stuff.thumb.o
                0x000000000800049c                grass_top_right_block_stuff::get_palette_number()
 .text._ZN27grass_top_right_block_stuff26get_metatile_graphics_slotEv
                0x00000000080004a0        0x4 objs/block_stuff.thumb.o
                0x00000000080004a0                grass_top_right_block_stuff::get_metatile_graphics_slot()
 .text._ZN28dirt_middle_left_block_stuff19get_metatile_numberEv
                0x00000000080004a4        0x4 objs/block_stuff.thumb.o
                0x00000000080004a4                dirt_middle_left_block_stuff::get_metatile_number()
 .text._ZN28dirt_middle_left_block_stuff18get_palette_numberEv
                0x00000000080004a8        0x4 objs/block_stuff.thumb.o
                0x00000000080004a8                dirt_middle_left_block_stuff::get_palette_number()
 .text._ZN28dirt_middle_left_block_stuff26get_metatile_graphics_slotEv
                0x00000000080004ac        0x4 objs/block_stuff.thumb.o
                0x00000000080004ac                dirt_middle_left_block_stuff::get_metatile_graphics_slot()
 .text._ZN30dirt_middle_middle_block_stuff19get_metatile_numberEv
                0x00000000080004b0        0x4 objs/block_stuff.thumb.o
                0x00000000080004b0                dirt_middle_middle_block_stuff::get_metatile_number()
 .text._ZN30dirt_middle_middle_block_stuff18get_palette_numberEv
                0x00000000080004b4        0x4 objs/block_stuff.thumb.o
                0x00000000080004b4                dirt_middle_middle_block_stuff::get_palette_number()
 .text._ZN30dirt_middle_middle_block_stuff26get_metatile_graphics_slotEv
                0x00000000080004b8        0x4 objs/block_stuff.thumb.o
                0x00000000080004b8                dirt_middle_middle_block_stuff::get_metatile_graphics_slot()
 .text._ZN29dirt_middle_right_block_stuff19get_metatile_numberEv
                0x00000000080004bc        0x4 objs/block_stuff.thumb.o
                0x00000000080004bc                dirt_middle_right_block_stuff::get_metatile_number()
 .text._ZN29dirt_middle_right_block_stuff18get_palette_numberEv
                0x00000000080004c0        0x4 objs/block_stuff.thumb.o
                0x00000000080004c0                dirt_middle_right_block_stuff::get_palette_number()
 .text._ZN29dirt_middle_right_block_stuff26get_metatile_graphics_slotEv
                0x00000000080004c4        0x4 objs/block_stuff.thumb.o
                0x00000000080004c4                dirt_middle_right_block_stuff::get_metatile_graphics_slot()
 .text._ZN28dirt_bottom_left_block_stuff19get_metatile_numberEv
                0x00000000080004c8        0x4 objs/block_stuff.thumb.o
                0x00000000080004c8                dirt_bottom_left_block_stuff::get_metatile_number()
 .text._ZN28dirt_bottom_left_block_stuff18get_palette_numberEv
                0x00000000080004cc        0x4 objs/block_stuff.thumb.o
                0x00000000080004cc                dirt_bottom_left_block_stuff::get_palette_number()
 .text._ZN28dirt_bottom_left_block_stuff26get_metatile_graphics_slotEv
                0x00000000080004d0        0x4 objs/block_stuff.thumb.o
                0x00000000080004d0                dirt_bottom_left_block_stuff::get_metatile_graphics_slot()
 .text._ZN30dirt_bottom_middle_block_stuff19get_metatile_numberEv
                0x00000000080004d4        0x4 objs/block_stuff.thumb.o
                0x00000000080004d4                dirt_bottom_middle_block_stuff::get_metatile_number()
 .text._ZN30dirt_bottom_middle_block_stuff18get_palette_numberEv
                0x00000000080004d8        0x4 objs/block_stuff.thumb.o
                0x00000000080004d8                dirt_bottom_middle_block_stuff::get_palette_number()
 .text._ZN30dirt_bottom_middle_block_stuff26get_metatile_graphics_slotEv
                0x00000000080004dc        0x4 objs/block_stuff.thumb.o
                0x00000000080004dc                dirt_bottom_middle_block_stuff::get_metatile_graphics_slot()
 .text._ZN29dirt_bottom_right_block_stuff19get_metatile_numberEv
                0x00000000080004e0        0x4 objs/block_stuff.thumb.o
                0x00000000080004e0                dirt_bottom_right_block_stuff::get_metatile_number()
 .text._ZN29dirt_bottom_right_block_stuff18get_palette_numberEv
                0x00000000080004e4        0x4 objs/block_stuff.thumb.o
                0x00000000080004e4                dirt_bottom_right_block_stuff::get_palette_number()
 .text._ZN29dirt_bottom_right_block_stuff26get_metatile_graphics_slotEv
                0x00000000080004e8        0x4 objs/block_stuff.thumb.o
                0x00000000080004e8                dirt_bottom_right_block_stuff::get_metatile_graphics_slot()
 .text._ZN31grass_slope_p16_p16_block_stuff19get_metatile_numberEv
                0x00000000080004ec        0x4 objs/block_stuff.thumb.o
                0x00000000080004ec                grass_slope_p16_p16_block_stuff::get_metatile_number()
 .text._ZN31grass_slope_p16_p16_block_stuff18get_palette_numberEv
                0x00000000080004f0        0x4 objs/block_stuff.thumb.o
                0x00000000080004f0                grass_slope_p16_p16_block_stuff::get_palette_number()
 .text._ZN31grass_slope_p16_p16_block_stuff26get_metatile_graphics_slotEv
                0x00000000080004f4        0x4 objs/block_stuff.thumb.o
                0x00000000080004f4                grass_slope_p16_p16_block_stuff::get_metatile_graphics_slot()
 .text._ZN31grass_slope_n16_p16_block_stuff19get_metatile_numberEv
                0x00000000080004f8        0x4 objs/block_stuff.thumb.o
                0x00000000080004f8                grass_slope_n16_p16_block_stuff::get_metatile_number()
 .text._ZN31grass_slope_n16_p16_block_stuff18get_palette_numberEv
                0x00000000080004fc        0x4 objs/block_stuff.thumb.o
                0x00000000080004fc                grass_slope_n16_p16_block_stuff::get_palette_number()
 .text._ZN31grass_slope_n16_p16_block_stuff26get_metatile_graphics_slotEv
                0x0000000008000500        0x4 objs/block_stuff.thumb.o
                0x0000000008000500                grass_slope_n16_p16_block_stuff::get_metatile_graphics_slot()
 .text._ZN37grass_slope_p32_p16_short_block_stuff19get_metatile_numberEv
                0x0000000008000504        0x4 objs/block_stuff.thumb.o
                0x0000000008000504                grass_slope_p32_p16_short_block_stuff::get_metatile_number()
 .text._ZN37grass_slope_p32_p16_short_block_stuff18get_palette_numberEv
                0x0000000008000508        0x4 objs/block_stuff.thumb.o
                0x0000000008000508                grass_slope_p32_p16_short_block_stuff::get_palette_number()
 .text._ZN37grass_slope_p32_p16_short_block_stuff26get_metatile_graphics_slotEv
                0x000000000800050c        0x4 objs/block_stuff.thumb.o
                0x000000000800050c                grass_slope_p32_p16_short_block_stuff::get_metatile_graphics_slot()
 .text._ZN36grass_slope_p32_p16_tall_block_stuff19get_metatile_numberEv
                0x0000000008000510        0x4 objs/block_stuff.thumb.o
                0x0000000008000510                grass_slope_p32_p16_tall_block_stuff::get_metatile_number()
 .text._ZN36grass_slope_p32_p16_tall_block_stuff18get_palette_numberEv
                0x0000000008000514        0x4 objs/block_stuff.thumb.o
                0x0000000008000514                grass_slope_p32_p16_tall_block_stuff::get_palette_number()
 .text._ZN36grass_slope_p32_p16_tall_block_stuff26get_metatile_graphics_slotEv
                0x0000000008000518        0x4 objs/block_stuff.thumb.o
                0x0000000008000518                grass_slope_p32_p16_tall_block_stuff::get_metatile_graphics_slot()
 .text._ZN36grass_slope_n32_p16_tall_block_stuff19get_metatile_numberEv
                0x000000000800051c        0x4 objs/block_stuff.thumb.o
                0x000000000800051c                grass_slope_n32_p16_tall_block_stuff::get_metatile_number()
 .text._ZN36grass_slope_n32_p16_tall_block_stuff18get_palette_numberEv
                0x0000000008000520        0x4 objs/block_stuff.thumb.o
                0x0000000008000520                grass_slope_n32_p16_tall_block_stuff::get_palette_number()
 .text._ZN36grass_slope_n32_p16_tall_block_stuff26get_metatile_graphics_slotEv
                0x0000000008000524        0x4 objs/block_stuff.thumb.o
                0x0000000008000524                grass_slope_n32_p16_tall_block_stuff::get_metatile_graphics_slot()
 .text._ZN37grass_slope_n32_p16_short_block_stuff19get_metatile_numberEv
                0x0000000008000528        0x4 objs/block_stuff.thumb.o
                0x0000000008000528                grass_slope_n32_p16_short_block_stuff::get_metatile_number()
 .text._ZN37grass_slope_n32_p16_short_block_stuff18get_palette_numberEv
                0x000000000800052c        0x4 objs/block_stuff.thumb.o
                0x000000000800052c                grass_slope_n32_p16_short_block_stuff::get_palette_number()
 .text._ZN37grass_slope_n32_p16_short_block_stuff26get_metatile_graphics_slotEv
                0x0000000008000530        0x4 objs/block_stuff.thumb.o
                0x0000000008000530                grass_slope_n32_p16_short_block_stuff::get_metatile_graphics_slot()
 .text._ZN31grass_in_slope_left_block_stuff19get_metatile_numberEv
                0x0000000008000534        0x4 objs/block_stuff.thumb.o
                0x0000000008000534                grass_in_slope_left_block_stuff::get_metatile_number()
 .text._ZN31grass_in_slope_left_block_stuff18get_palette_numberEv
                0x0000000008000538        0x4 objs/block_stuff.thumb.o
                0x0000000008000538                grass_in_slope_left_block_stuff::get_palette_number()
 .text._ZN31grass_in_slope_left_block_stuff26get_metatile_graphics_slotEv
                0x000000000800053c        0x4 objs/block_stuff.thumb.o
                0x000000000800053c                grass_in_slope_left_block_stuff::get_metatile_graphics_slot()
 .text._ZN32grass_in_slope_right_block_stuff19get_metatile_numberEv
                0x0000000008000540        0x4 objs/block_stuff.thumb.o
                0x0000000008000540                grass_in_slope_right_block_stuff::get_metatile_number()
 .text._ZN32grass_in_slope_right_block_stuff18get_palette_numberEv
                0x0000000008000544        0x4 objs/block_stuff.thumb.o
                0x0000000008000544                grass_in_slope_right_block_stuff::get_palette_number()
 .text._ZN32grass_in_slope_right_block_stuff26get_metatile_graphics_slotEv
                0x0000000008000548        0x4 objs/block_stuff.thumb.o
                0x0000000008000548                grass_in_slope_right_block_stuff::get_metatile_graphics_slot()
 .text.startup  0x000000000800054c      0x244 objs/block_stuff.thumb.o
 .text          0x0000000008000790      0x188 objs/button_stuff.thumb.o
                0x0000000008000790                soft_reset_keys_down()
 .text          0x0000000008000918        0x0 objs/coll_box_class.arm.o
 .text          0x0000000008000918       0x84 objs/coll_box_class.thumb.o
                0x0000000008000918                coll_box::set_side_coords(fixed24p8, fixed24p8, fixed24p8, fixed24p8)
                0x0000000008000930                coll_box::get_corners(vec2<fixed24p8>&, vec2<fixed24p8>&, vec2<fixed24p8>&, vec2<fixed24p8>&)
                0x0000000008000960                coll_box::get_block_coords_intersected_by_corners(vec2<long>&, vec2<long>&, vec2<long>&, vec2<long>&)
 .text          0x000000000800099c        0x0 objs/coll_point_group_class.thumb.o
 .text          0x000000000800099c        0x0 objs/debug_vars.thumb.o
 .text          0x000000000800099c        0x0 objs/division_funcs.o
 .text          0x000000000800099c       0xd0 objs/dma_stuff.thumb.o
                0x000000000800099c                dma3_cpy
                0x00000000080009e4                dma0_cpy
                0x0000000008000a2c                dma3_fill
 .text          0x0000000008000a6c        0x0 objs/dud_block_stuff_class.thumb.o
 .text          0x0000000008000a6c        0x0 objs/exclam_block_stuff_classes.thumb.o
 .text          0x0000000008000a6c        0x0 objs/eyes_block_stuff_classes.thumb.o
 .text          0x0000000008000a6c        0x0 objs/fixed_classes.thumb.o
 .text          0x0000000008000a6c        0x0 objs/grass_and_dirt_block_stuff_classes.thumb.o
 .text          0x0000000008000a6c        0x0 objs/interrupt_stuff.arm.o
 .text          0x0000000008000a6c      0x168 objs/interrupt_stuff.thumb.o
                0x0000000008000a6c                irqEnable
                0x0000000008000abc                irqSet
                0x0000000008000b68                irq_init()
 .text          0x0000000008000bd4        0x0 objs/level_class.thumb.o
 .text          0x0000000008000bd4        0x0 objs/log_block_stuff_class.thumb.o
 .text          0x0000000008000bd4      0x1d8 objs/main.thumb.o
                0x0000000008000bd4                vblank_func()
                0x0000000008000cb8                title_screen_func()
 .text.startup  0x0000000008000dac      0x23c objs/main.thumb.o
                0x0000000008000dac                main
 .text          0x0000000008000fe8        0x0 objs/memcpy32_from_tonc.o
 .text          0x0000000008000fe8        0x0 objs/memory_funcs_8bit.o
 .text          0x0000000008000fe8        0x0 objs/muffin_sprite_stuff_classes.thumb.o
 .text          0x0000000008000fe8      0x37c objs/oam_entry_classes.thumb.o
                0x0000000008000fe8                oam_entry::set_shape_size(oam_entry::shape_size)
                0x00000000080010cc                oam_entry::get_shape_size() const
                0x0000000008001150                oam_entry::set_shape_size_with_vec2(vec2<unsigned long> const&)
                0x000000000800129c                oam_entry::get_shape_size_as_vec2() const
 .text          0x0000000008001364      0x480 objs/player_sprite_stuff_class.thumb.o
                0x0000000008001364                player_sprite_stuff::get_curr_relative_tile_slot(sprite&)
                0x00000000080013fc                player_sprite_stuff::gfx_update(sprite&)
                0x0000000008001448                player_sprite_stuff::init(sprite&, bool)
                0x00000000080014e0                player_sprite_stuff::update_part_1(sprite&)
                0x00000000080016d8                player_sprite_stuff::init(sprite&, vec2<fixed24p8> const&, vec2<unsigned long> const&, vec2<short>&, bool)
 .text._ZNK19player_sprite_stuff15get_sprite_typeEv
                0x00000000080017e4        0x4 objs/player_sprite_stuff_class.thumb.o
                0x00000000080017e4                player_sprite_stuff::get_sprite_type() const
 .text._ZN19player_sprite_stuff16get_gfx_categoryER6sprite
                0x00000000080017e8        0x4 objs/player_sprite_stuff_class.thumb.o
                0x00000000080017e8                player_sprite_stuff::get_gfx_category(sprite&)
 .text._ZN19player_sprite_stuff24get_num_active_gfx_tilesEv
                0x00000000080017ec        0x4 objs/player_sprite_stuff_class.thumb.o
                0x00000000080017ec                player_sprite_stuff::get_num_active_gfx_tiles()
 .text._ZNK19player_sprite_stuff12get_tile_arrEv
                0x00000000080017f0        0x8 objs/player_sprite_stuff_class.thumb.o
                0x00000000080017f0                player_sprite_stuff::get_tile_arr() const
 .text          0x00000000080017f8        0x0 objs/practice_17.bin.o
 .text          0x00000000080017f8        0x0 objs/ram_funcs1.o
 .text          0x00000000080017f8        0x0 objs/sherwin_gfx.o
 .text          0x00000000080017f8        0x0 objs/sprite_base_stuff_class.arm.o
 .text          0x00000000080017f8       0xfc objs/sprite_base_stuff_class.thumb.o
                0x00000000080017f8                sprite_base_stuff::init(sprite&, vec2<fixed24p8> const&, vec2<short> const&, bool)
                0x0000000008001824                sprite_base_stuff::init(sprite&, vec2<fixed24p8> const&, vec2<unsigned long> const&, vec2<short>&, bool)
                0x0000000008001850                sprite_base_stuff::get_sprite_type() const
                0x0000000008001854                sprite_base_stuff::init(sprite&, bool)
 .text._ZNK17sprite_base_stuff12get_tile_arrEv
                0x00000000080018f4        0x8 objs/sprite_base_stuff_class.thumb.o
                0x00000000080018f4                sprite_base_stuff::get_tile_arr() const
 .text._ZN17sprite_base_stuff24get_num_active_gfx_tilesEv
                0x00000000080018fc        0x4 objs/sprite_base_stuff_class.thumb.o
                0x00000000080018fc                sprite_base_stuff::get_num_active_gfx_tiles()
 .text          0x0000000008001900      0x180 objs/sprite_class.thumb.o
                0x0000000008001900                sprite::sprite()
                0x0000000008001900                sprite::sprite()
                0x000000000800199c                sprite::reinit_with_sprite_ipg(sprite_init_param_group*)
                0x0000000008001a0c                sprite::reinit_with_sprite_ipg(unsigned long, sprite_init_param_group*)
 .text          0x0000000008001a80       0x50 objs/sprite_gfx_stuff.thumb.o
                0x0000000008001a80                sprite_gfx_manager::upload_default_sprite_palettes()
 .text          0x0000000008001ad0        0x0 objs/sprite_manager_class.arm.o
 .text          0x0000000008001ad0      0x470 objs/sprite_manager_class.thumb.o
                0x0000000008001ad0                sprite_manager::init_the_player(vec2<fixed24p8> const&, vec2<unsigned long> const&, vec2<short>&)
                0x0000000008001b04                sprite_manager::some_sprite_init_thing()
                0x0000000008001be8                sprite_manager::initial_sprite_spawning_from_level_data(vec2<unsigned long> const&, vec2<short>&, int&)
                0x0000000008001d7c                sprite_manager::initial_sprite_spawning_from_level_data_old(vec2<short> const&, int&)
                0x0000000008001ea8                sprite_manager::init_horiz_level_sprite_ipg_lists(sprite_init_param_group const*, unsigned long)
 .text._ZNSt12forward_listI23sprite_init_param_groupSaIS0_EE4sortISt4lessIS0_EEEvT_
                0x0000000008001f40       0xc0 objs/sprite_manager_class.thumb.o
                0x0000000008001f40                void std::forward_list<sprite_init_param_group, std::allocator<sprite_init_param_group> >::sort<std::less<sprite_init_param_group> >(std::less<sprite_init_param_group>)
 .text.startup  0x0000000008002000       0x2c objs/sprite_manager_class.thumb.o
 .text          0x000000000800202c        0x0 objs/sprite_type_stuff.thumb.o
 .text._ZNK19muffin_sprite_stuff15get_sprite_typeEv
                0x000000000800202c        0x4 objs/sprite_type_stuff.thumb.o
                0x000000000800202c                muffin_sprite_stuff::get_sprite_type() const
 .text._ZN19muffin_sprite_stuff16get_gfx_categoryER6sprite
                0x0000000008002030        0x4 objs/sprite_type_stuff.thumb.o
                0x0000000008002030                muffin_sprite_stuff::get_gfx_category(sprite&)
 .text._ZN19muffin_sprite_stuff27get_curr_relative_tile_slotER6sprite
                0x0000000008002034        0x4 objs/sprite_type_stuff.thumb.o
                0x0000000008002034                muffin_sprite_stuff::get_curr_relative_tile_slot(sprite&)
 .text._ZN19muffin_sprite_stuff24get_num_active_gfx_tilesEv
                0x0000000008002038        0x4 objs/sprite_type_stuff.thumb.o
                0x0000000008002038                muffin_sprite_stuff::get_num_active_gfx_tiles()
 .text._ZNK19muffin_sprite_stuff12get_tile_arrEv
                0x000000000800203c        0x8 objs/sprite_type_stuff.thumb.o
                0x000000000800203c                muffin_sprite_stuff::get_tile_arr() const
 .text._ZNK24fire_muffin_sprite_stuff15get_sprite_typeEv
                0x0000000008002044        0x4 objs/sprite_type_stuff.thumb.o
                0x0000000008002044                fire_muffin_sprite_stuff::get_sprite_type() const
 .text._ZN24fire_muffin_sprite_stuff16get_gfx_categoryER6sprite
                0x0000000008002048        0x4 objs/sprite_type_stuff.thumb.o
                0x0000000008002048                fire_muffin_sprite_stuff::get_gfx_category(sprite&)
 .text._ZN24fire_muffin_sprite_stuff27get_curr_relative_tile_slotER6sprite
                0x000000000800204c        0x4 objs/sprite_type_stuff.thumb.o
                0x000000000800204c                fire_muffin_sprite_stuff::get_curr_relative_tile_slot(sprite&)
 .text._ZN24fire_muffin_sprite_stuff24get_num_active_gfx_tilesEv
                0x0000000008002050        0x4 objs/sprite_type_stuff.thumb.o
                0x0000000008002050                fire_muffin_sprite_stuff::get_num_active_gfx_tiles()
 .text._ZNK24fire_muffin_sprite_stuff12get_tile_arrEv
                0x0000000008002054        0x8 objs/sprite_type_stuff.thumb.o
                0x0000000008002054                fire_muffin_sprite_stuff::get_tile_arr() const
 .text._ZNK23ice_muffin_sprite_stuff15get_sprite_typeEv
                0x000000000800205c        0x4 objs/sprite_type_stuff.thumb.o
                0x000000000800205c                ice_muffin_sprite_stuff::get_sprite_type() const
 .text._ZN23ice_muffin_sprite_stuff16get_gfx_categoryER6sprite
                0x0000000008002060        0x4 objs/sprite_type_stuff.thumb.o
                0x0000000008002060                ice_muffin_sprite_stuff::get_gfx_category(sprite&)
 .text._ZN23ice_muffin_sprite_stuff27get_curr_relative_tile_slotER6sprite
                0x0000000008002064        0x4 objs/sprite_type_stuff.thumb.o
                0x0000000008002064                ice_muffin_sprite_stuff::get_curr_relative_tile_slot(sprite&)
 .text._ZN23ice_muffin_sprite_stuff24get_num_active_gfx_tilesEv
                0x0000000008002068        0x4 objs/sprite_type_stuff.thumb.o
                0x0000000008002068                ice_muffin_sprite_stuff::get_num_active_gfx_tiles()
 .text._ZNK23ice_muffin_sprite_stuff12get_tile_arrEv
                0x000000000800206c        0x8 objs/sprite_type_stuff.thumb.o
                0x000000000800206c                ice_muffin_sprite_stuff::get_tile_arr() const
 .text._ZNK29chocolate_muffin_sprite_stuff15get_sprite_typeEv
                0x0000000008002074        0x4 objs/sprite_type_stuff.thumb.o
                0x0000000008002074                chocolate_muffin_sprite_stuff::get_sprite_type() const
 .text._ZN29chocolate_muffin_sprite_stuff16get_gfx_categoryER6sprite
                0x0000000008002078        0x4 objs/sprite_type_stuff.thumb.o
                0x0000000008002078                chocolate_muffin_sprite_stuff::get_gfx_category(sprite&)
 .text._ZN29chocolate_muffin_sprite_stuff27get_curr_relative_tile_slotER6sprite
                0x000000000800207c        0x4 objs/sprite_type_stuff.thumb.o
                0x000000000800207c                chocolate_muffin_sprite_stuff::get_curr_relative_tile_slot(sprite&)
 .text._ZN29chocolate_muffin_sprite_stuff24get_num_active_gfx_tilesEv
                0x0000000008002080        0x4 objs/sprite_type_stuff.thumb.o
                0x0000000008002080                chocolate_muffin_sprite_stuff::get_num_active_gfx_tiles()
 .text._ZNK29chocolate_muffin_sprite_stuff12get_tile_arrEv
                0x0000000008002084        0x8 objs/sprite_type_stuff.thumb.o
                0x0000000008002084                chocolate_muffin_sprite_stuff::get_tile_arr() const
 .text._ZNK23warp_block_sprite_stuff15get_sprite_typeEv
                0x000000000800208c        0x4 objs/sprite_type_stuff.thumb.o
                0x000000000800208c                warp_block_sprite_stuff::get_sprite_type() const
 .text._ZN23warp_block_sprite_stuff16get_gfx_categoryER6sprite
                0x0000000008002090        0x4 objs/sprite_type_stuff.thumb.o
                0x0000000008002090                warp_block_sprite_stuff::get_gfx_category(sprite&)
 .text._ZN23warp_block_sprite_stuff27get_curr_relative_tile_slotER6sprite
                0x0000000008002094        0x4 objs/sprite_type_stuff.thumb.o
                0x0000000008002094                warp_block_sprite_stuff::get_curr_relative_tile_slot(sprite&)
 .text._ZN23warp_block_sprite_stuff24get_num_active_gfx_tilesEv
                0x0000000008002098        0x4 objs/sprite_type_stuff.thumb.o
                0x0000000008002098                warp_block_sprite_stuff::get_num_active_gfx_tiles()
 .text._ZNK23warp_block_sprite_stuff12get_tile_arrEv
                0x000000000800209c        0x8 objs/sprite_type_stuff.thumb.o
                0x000000000800209c                warp_block_sprite_stuff::get_tile_arr() const
 .text          0x00000000080020a4        0x0 objs/sublevel_class.thumb.o
 .text          0x00000000080020a4        0x0 objs/test_level.thumb.o
 .text          0x00000000080020a4        0x0 objs/the_block_gfx.o
 .text          0x00000000080020a4        0x0 objs/the_block_like_sprites_gfx.o
 .text          0x00000000080020a4        0x0 objs/the_golem_enemy_gfx.o
 .text          0x00000000080020a4        0x0 objs/the_powerup_gfx.o
 .text          0x00000000080020a4        0x0 objs/title_screen.o
 .text          0x00000000080020a4        0x0 objs/waffle_sprite_stuff_class.arm.o
 .text          0x00000000080020a4        0x0 objs/waffle_sprite_stuff_class.thumb.o
 .text._ZNK19waffle_sprite_stuff15get_sprite_typeEv
                0x00000000080020a4        0x4 objs/waffle_sprite_stuff_class.thumb.o
                0x00000000080020a4                waffle_sprite_stuff::get_sprite_type() const
 .text._ZN19waffle_sprite_stuff16get_gfx_categoryER6sprite
                0x00000000080020a8        0x4 objs/waffle_sprite_stuff_class.thumb.o
                0x00000000080020a8                waffle_sprite_stuff::get_gfx_category(sprite&)
 .text._ZN19waffle_sprite_stuff27get_curr_relative_tile_slotER6sprite
                0x00000000080020ac        0x4 objs/waffle_sprite_stuff_class.thumb.o
                0x00000000080020ac                waffle_sprite_stuff::get_curr_relative_tile_slot(sprite&)
 .text._ZN19waffle_sprite_stuff24get_num_active_gfx_tilesEv
                0x00000000080020b0        0x4 objs/waffle_sprite_stuff_class.thumb.o
                0x00000000080020b0                waffle_sprite_stuff::get_num_active_gfx_tiles()
 .text._ZNK19waffle_sprite_stuff12get_tile_arrEv
                0x00000000080020b4        0x8 objs/waffle_sprite_stuff_class.thumb.o
                0x00000000080020b4                waffle_sprite_stuff::get_tile_arr() const
 .text._ZN19waffle_sprite_stuff21block_collision_stuffER6sprite
                0x00000000080020bc       0x14 objs/waffle_sprite_stuff_class.thumb.o
                0x00000000080020bc                waffle_sprite_stuff::block_collision_stuff(sprite&)
 .text          0x00000000080020d0        0x0 objs/warp_block_sprite_stuff_class.thumb.o
 .text          0x00000000080020d0        0x0 objs/wood_block_stuff_classes.thumb.o
 .text          0x00000000080020d0        0x0 /usr/lib/gcc/arm-none-eabi/5.2.0/thumb/libgcc.a(unwind-arm.o)
 .text.selfrel_offset31
                0x00000000080020d0       0x16 /usr/lib/gcc/arm-none-eabi/5.2.0/thumb/libgcc.a(unwind-arm.o)
 .text.search_EIT_table
                0x00000000080020e6       0x70 /usr/lib/gcc/arm-none-eabi/5.2.0/thumb/libgcc.a(unwind-arm.o)
 *fill*         0x0000000008002156        0x2 
 .text.__gnu_unwind_get_pr_addr
                0x0000000008002158       0x28 /usr/lib/gcc/arm-none-eabi/5.2.0/thumb/libgcc.a(unwind-arm.o)
 .text.get_eit_entry
                0x0000000008002180       0x9c /usr/lib/gcc/arm-none-eabi/5.2.0/thumb/libgcc.a(unwind-arm.o)
 .text.restore_non_core_regs
                0x000000000800221c       0x4e /usr/lib/gcc/arm-none-eabi/5.2.0/thumb/libgcc.a(unwind-arm.o)
 .text._Unwind_decode_typeinfo_ptr.isra.0
                0x000000000800226a        0xe /usr/lib/gcc/arm-none-eabi/5.2.0/thumb/libgcc.a(unwind-arm.o)
 .text.__gnu_unwind_24bit.isra.1
                0x0000000008002278        0x4 /usr/lib/gcc/arm-none-eabi/5.2.0/thumb/libgcc.a(unwind-arm.o)
 .text._Unwind_DebugHook
                0x000000000800227c        0x2 /usr/lib/gcc/arm-none-eabi/5.2.0/thumb/libgcc.a(unwind-arm.o)
 .text.unwind_phase2
                0x000000000800227e       0x3e /usr/lib/gcc/arm-none-eabi/5.2.0/thumb/libgcc.a(unwind-arm.o)
 .text.unwind_phase2_forced
                0x00000000080022bc       0xc4 /usr/lib/gcc/arm-none-eabi/5.2.0/thumb/libgcc.a(unwind-arm.o)
 .text._Unwind_GetCFA
                0x0000000008002380        0x4 /usr/lib/gcc/arm-none-eabi/5.2.0/thumb/libgcc.a(unwind-arm.o)
                0x0000000008002380                _Unwind_GetCFA
 .text.__gnu_Unwind_RaiseException
                0x0000000008002384       0x56 /usr/lib/gcc/arm-none-eabi/5.2.0/thumb/libgcc.a(unwind-arm.o)
                0x0000000008002384                __gnu_Unwind_RaiseException
 .text.__gnu_Unwind_ForcedUnwind
                0x00000000080023da       0x18 /usr/lib/gcc/arm-none-eabi/5.2.0/thumb/libgcc.a(unwind-arm.o)
                0x00000000080023da                __gnu_Unwind_ForcedUnwind
 .text.__gnu_Unwind_Resume
                0x00000000080023f2       0x48 /usr/lib/gcc/arm-none-eabi/5.2.0/thumb/libgcc.a(unwind-arm.o)
                0x00000000080023f2                __gnu_Unwind_Resume
 .text.__gnu_Unwind_Resume_or_Rethrow
                0x000000000800243a       0x1e /usr/lib/gcc/arm-none-eabi/5.2.0/thumb/libgcc.a(unwind-arm.o)
                0x000000000800243a                __gnu_Unwind_Resume_or_Rethrow
 .text._Unwind_Complete
                0x0000000008002458        0x2 /usr/lib/gcc/arm-none-eabi/5.2.0/thumb/libgcc.a(unwind-arm.o)
                0x0000000008002458                _Unwind_Complete
 .text._Unwind_DeleteException
                0x000000000800245a       0x18 /usr/lib/gcc/arm-none-eabi/5.2.0/thumb/libgcc.a(unwind-arm.o)
                0x000000000800245a                _Unwind_DeleteException
 .text._Unwind_VRS_Get
                0x0000000008002472       0x38 /usr/lib/gcc/arm-none-eabi/5.2.0/thumb/libgcc.a(unwind-arm.o)
                0x0000000008002472                _Unwind_VRS_Get
 .text._Unwind_GetGR
                0x00000000080024aa       0x18 /usr/lib/gcc/arm-none-eabi/5.2.0/thumb/libgcc.a(unwind-arm.o)
 .text._Unwind_VRS_Set
                0x00000000080024c2       0x38 /usr/lib/gcc/arm-none-eabi/5.2.0/thumb/libgcc.a(unwind-arm.o)
                0x00000000080024c2                _Unwind_VRS_Set
 .text._Unwind_SetGR
                0x00000000080024fa       0x18 /usr/lib/gcc/arm-none-eabi/5.2.0/thumb/libgcc.a(unwind-arm.o)
 *fill*         0x0000000008002512        0x2 
 .text.__gnu_Unwind_Backtrace
                0x0000000008002514       0x78 /usr/lib/gcc/arm-none-eabi/5.2.0/thumb/libgcc.a(unwind-arm.o)
                0x0000000008002514                __gnu_Unwind_Backtrace
 .text.__gnu_unwind_pr_common
                0x000000000800258c      0x284 /usr/lib/gcc/arm-none-eabi/5.2.0/thumb/libgcc.a(unwind-arm.o)
 .text.__aeabi_unwind_cpp_pr0
                0x0000000008002810        0xe /usr/lib/gcc/arm-none-eabi/5.2.0/thumb/libgcc.a(unwind-arm.o)
                0x0000000008002810                __aeabi_unwind_cpp_pr0
 .text.__aeabi_unwind_cpp_pr1
                0x000000000800281e        0xe /usr/lib/gcc/arm-none-eabi/5.2.0/thumb/libgcc.a(unwind-arm.o)
                0x000000000800281e                __aeabi_unwind_cpp_pr1
 .text.__aeabi_unwind_cpp_pr2
                0x000000000800282c        0xe /usr/lib/gcc/arm-none-eabi/5.2.0/thumb/libgcc.a(unwind-arm.o)
                0x000000000800282c                __aeabi_unwind_cpp_pr2
 .text._Unwind_VRS_Pop
                0x000000000800283a      0x24c /usr/lib/gcc/arm-none-eabi/5.2.0/thumb/libgcc.a(unwind-arm.o)
                0x000000000800283a                _Unwind_VRS_Pop
 *fill*         0x0000000008002a86        0x2 
 .text          0x0000000008002a88      0x1d8 /usr/lib/gcc/arm-none-eabi/5.2.0/thumb/libgcc.a(libunwind.o)
                0x0000000008002a88                __restore_core_regs
                0x0000000008002a88                restore_core_regs
                0x0000000008002aa4                __gnu_Unwind_Restore_VFP
                0x0000000008002aac                __gnu_Unwind_Save_VFP
                0x0000000008002ab4                __gnu_Unwind_Restore_VFP_D
                0x0000000008002abc                __gnu_Unwind_Save_VFP_D
                0x0000000008002ac4                __gnu_Unwind_Restore_VFP_D_16_to_31
                0x0000000008002acc                __gnu_Unwind_Save_VFP_D_16_to_31
                0x0000000008002ad4                __gnu_Unwind_Restore_WMMXD
                0x0000000008002b18                __gnu_Unwind_Save_WMMXD
                0x0000000008002b5c                __gnu_Unwind_Restore_WMMXC
                0x0000000008002b70                __gnu_Unwind_Save_WMMXC
                0x0000000008002b84                ___Unwind_RaiseException
                0x0000000008002b84                _Unwind_RaiseException
                0x0000000008002bb0                ___Unwind_Resume
                0x0000000008002bb0                _Unwind_Resume
                0x0000000008002bdc                _Unwind_Resume_or_Rethrow
                0x0000000008002bdc                ___Unwind_Resume_or_Rethrow
                0x0000000008002c08                ___Unwind_ForcedUnwind
                0x0000000008002c08                _Unwind_ForcedUnwind
                0x0000000008002c34                _Unwind_Backtrace
                0x0000000008002c34                ___Unwind_Backtrace
 .text          0x0000000008002c60        0x0 /usr/lib/gcc/arm-none-eabi/5.2.0/thumb/libgcc.a(pr-support.o)
 .text.next_unwind_byte
                0x0000000008002c60       0x30 /usr/lib/gcc/arm-none-eabi/5.2.0/thumb/libgcc.a(pr-support.o)
 .text._Unwind_GetGR.constprop.0
                0x0000000008002c90       0x18 /usr/lib/gcc/arm-none-eabi/5.2.0/thumb/libgcc.a(pr-support.o)
 .text.unwind_UCB_from_context
                0x0000000008002ca8        0xc /usr/lib/gcc/arm-none-eabi/5.2.0/thumb/libgcc.a(pr-support.o)
 .text.__gnu_unwind_execute
                0x0000000008002cb4      0x288 /usr/lib/gcc/arm-none-eabi/5.2.0/thumb/libgcc.a(pr-support.o)
                0x0000000008002cb4                __gnu_unwind_execute
 .text.__gnu_unwind_frame
                0x0000000008002f3c       0x2a /usr/lib/gcc/arm-none-eabi/5.2.0/thumb/libgcc.a(pr-support.o)
                0x0000000008002f3c                __gnu_unwind_frame
 .text._Unwind_GetRegionStart
                0x0000000008002f66        0xe /usr/lib/gcc/arm-none-eabi/5.2.0/thumb/libgcc.a(pr-support.o)
                0x0000000008002f66                _Unwind_GetRegionStart
 .text._Unwind_GetLanguageSpecificData
                0x0000000008002f74       0x18 /usr/lib/gcc/arm-none-eabi/5.2.0/thumb/libgcc.a(pr-support.o)
                0x0000000008002f74                _Unwind_GetLanguageSpecificData
 .text._Unwind_GetTextRelBase
                0x0000000008002f8c        0x6 /usr/lib/gcc/arm-none-eabi/5.2.0/thumb/libgcc.a(pr-support.o)
                0x0000000008002f8c                _Unwind_GetTextRelBase
 .text._Unwind_GetDataRelBase
                0x0000000008002f92        0x6 /usr/lib/gcc/arm-none-eabi/5.2.0/thumb/libgcc.a(pr-support.o)
                0x0000000008002f92                _Unwind_GetDataRelBase
 .text          0x0000000008002f98       0x14 /usr/lib/gcc/arm-none-eabi/5.2.0/thumb/libgcc.a(_thumb1_case_uqi.o)
                0x0000000008002f98                __gnu_thumb1_case_uqi
 .text          0x0000000008002fac        0x0 /usr/lib/gcc/arm-none-eabi/5.2.0/../../../../arm-none-eabi/lib/thumb/libc.a(lib_a-abort.o)
 .text.abort    0x0000000008002fac       0x10 /usr/lib/gcc/arm-none-eabi/5.2.0/../../../../arm-none-eabi/lib/thumb/libc.a(lib_a-abort.o)
                0x0000000008002fac                abort
 .text          0x0000000008002fbc        0x0 /usr/lib/gcc/arm-none-eabi/5.2.0/../../../../arm-none-eabi/lib/thumb/libc.a(lib_a-aeabi_atexit.o)
 .text.__aeabi_atexit
                0x0000000008002fbc       0x14 /usr/lib/gcc/arm-none-eabi/5.2.0/../../../../arm-none-eabi/lib/thumb/libc.a(lib_a-aeabi_atexit.o)
                0x0000000008002fbc                __aeabi_atexit
 .text          0x0000000008002fd0        0x0 /usr/lib/gcc/arm-none-eabi/5.2.0/../../../../arm-none-eabi/lib/thumb/libc.a(lib_a-atexit.o)
 .text.atexit   0x0000000008002fd0       0x14 /usr/lib/gcc/arm-none-eabi/5.2.0/../../../../arm-none-eabi/lib/thumb/libc.a(lib_a-atexit.o)
                0x0000000008002fd0                atexit
 .text          0x0000000008002fe4        0x0 /usr/lib/gcc/arm-none-eabi/5.2.0/../../../../arm-none-eabi/lib/thumb/libc.a(lib_a-cxa_atexit.o)
 .text.__cxa_atexit
                0x0000000008002fe4       0x14 /usr/lib/gcc/arm-none-eabi/5.2.0/../../../../arm-none-eabi/lib/thumb/libc.a(lib_a-cxa_atexit.o)
                0x0000000008002fe4                __cxa_atexit
 .text          0x0000000008002ff8        0x0 /usr/lib/gcc/arm-none-eabi/5.2.0/../../../../arm-none-eabi/lib/thumb/libc.a(lib_a-exit.o)
 .text.exit     0x0000000008002ff8       0x28 /usr/lib/gcc/arm-none-eabi/5.2.0/../../../../arm-none-eabi/lib/thumb/libc.a(lib_a-exit.o)
                0x0000000008002ff8                exit
 .text          0x0000000008003020        0x0 /usr/lib/gcc/arm-none-eabi/5.2.0/../../../../arm-none-eabi/lib/thumb/libc.a(lib_a-fini.o)
 .text.__libc_fini_array
                0x0000000008003020       0x3c /usr/lib/gcc/arm-none-eabi/5.2.0/../../../../arm-none-eabi/lib/thumb/libc.a(lib_a-fini.o)
                0x0000000008003020                __libc_fini_array
 .text          0x000000000800305c        0x0 /usr/lib/gcc/arm-none-eabi/5.2.0/../../../../arm-none-eabi/lib/thumb/libc.a(lib_a-impure.o)
 .text          0x000000000800305c        0x0 /usr/lib/gcc/arm-none-eabi/5.2.0/../../../../arm-none-eabi/lib/thumb/libc.a(lib_a-init.o)
 .text.__libc_init_array
                0x000000000800305c       0x58 /usr/lib/gcc/arm-none-eabi/5.2.0/../../../../arm-none-eabi/lib/thumb/libc.a(lib_a-init.o)
                0x000000000800305c                __libc_init_array
 .text          0x00000000080030b4        0x0 /usr/lib/gcc/arm-none-eabi/5.2.0/../../../../arm-none-eabi/lib/thumb/libc.a(lib_a-memcpy.o)
 .text.memcpy   0x00000000080030b4       0x80 /usr/lib/gcc/arm-none-eabi/5.2.0/../../../../arm-none-eabi/lib/thumb/libc.a(lib_a-memcpy.o)
                0x00000000080030b4                memcpy
 .text          0x0000000008003134        0x0 /usr/lib/gcc/arm-none-eabi/5.2.0/../../../../arm-none-eabi/lib/thumb/libc.a(lib_a-memset.o)
 .text.memset   0x0000000008003134       0x94 /usr/lib/gcc/arm-none-eabi/5.2.0/../../../../arm-none-eabi/lib/thumb/libc.a(lib_a-memset.o)
                0x0000000008003134                memset
 .text          0x00000000080031c8        0x0 /usr/lib/gcc/arm-none-eabi/5.2.0/../../../../arm-none-eabi/lib/thumb/libc.a(lib_a-signal.o)
 .text._init_signal_r
                0x00000000080031c8       0x3c /usr/lib/gcc/arm-none-eabi/5.2.0/../../../../arm-none-eabi/lib/thumb/libc.a(lib_a-signal.o)
                0x00000000080031c8                _init_signal_r
 .text._signal_r
                0x0000000008003204       0x40 /usr/lib/gcc/arm-none-eabi/5.2.0/../../../../arm-none-eabi/lib/thumb/libc.a(lib_a-signal.o)
                0x0000000008003204                _signal_r
 .text._raise_r
                0x0000000008003244       0x64 /usr/lib/gcc/arm-none-eabi/5.2.0/../../../../arm-none-eabi/lib/thumb/libc.a(lib_a-signal.o)
                0x0000000008003244                _raise_r
 .text.__sigtramp_r
                0x00000000080032a8       0x58 /usr/lib/gcc/arm-none-eabi/5.2.0/../../../../arm-none-eabi/lib/thumb/libc.a(lib_a-signal.o)
                0x00000000080032a8                __sigtramp_r
 .text.raise    0x0000000008003300       0x18 /usr/lib/gcc/arm-none-eabi/5.2.0/../../../../arm-none-eabi/lib/thumb/libc.a(lib_a-signal.o)
                0x0000000008003300                raise
 .text.signal   0x0000000008003318       0x1c /usr/lib/gcc/arm-none-eabi/5.2.0/../../../../arm-none-eabi/lib/thumb/libc.a(lib_a-signal.o)
                0x0000000008003318                signal
 .text._init_signal
                0x0000000008003334       0x14 /usr/lib/gcc/arm-none-eabi/5.2.0/../../../../arm-none-eabi/lib/thumb/libc.a(lib_a-signal.o)
                0x0000000008003334                _init_signal
 .text.__sigtramp
                0x0000000008003348       0x18 /usr/lib/gcc/arm-none-eabi/5.2.0/../../../../arm-none-eabi/lib/thumb/libc.a(lib_a-signal.o)
                0x0000000008003348                __sigtramp
 .text          0x0000000008003360        0x0 /usr/lib/gcc/arm-none-eabi/5.2.0/../../../../arm-none-eabi/lib/thumb/libc.a(lib_a-signalr.o)
 .text._kill_r  0x0000000008003360       0x2c /usr/lib/gcc/arm-none-eabi/5.2.0/../../../../arm-none-eabi/lib/thumb/libc.a(lib_a-signalr.o)
                0x0000000008003360                _kill_r
 .text._getpid_r
                0x000000000800338c        0xc /usr/lib/gcc/arm-none-eabi/5.2.0/../../../../arm-none-eabi/lib/thumb/libc.a(lib_a-signalr.o)
                0x000000000800338c                _getpid_r
 .text          0x0000000008003398        0x0 /usr/lib/gcc/arm-none-eabi/5.2.0/../../../../arm-none-eabi/lib/thumb/libc.a(lib_a-__atexit.o)
 .text.__register_exitproc
                0x0000000008003398       0xd8 /usr/lib/gcc/arm-none-eabi/5.2.0/../../../../arm-none-eabi/lib/thumb/libc.a(lib_a-__atexit.o)
                0x0000000008003398                __register_exitproc
 .text          0x0000000008003470        0x0 /usr/lib/gcc/arm-none-eabi/5.2.0/../../../../arm-none-eabi/lib/thumb/libc.a(lib_a-__call_atexit.o)
 .text.startup.register_fini
                0x0000000008003470       0x1c /usr/lib/gcc/arm-none-eabi/5.2.0/../../../../arm-none-eabi/lib/thumb/libc.a(lib_a-__call_atexit.o)
 .text.__call_exitprocs
                0x000000000800348c      0x10c /usr/lib/gcc/arm-none-eabi/5.2.0/../../../../arm-none-eabi/lib/thumb/libc.a(lib_a-__call_atexit.o)
                0x000000000800348c                __call_exitprocs
 .text          0x0000000008003598        0x0 /usr/lib/gcc/arm-none-eabi/5.2.0/../../../../arm-none-eabi/lib/thumb/libc.a(lib_a-mallocr.o)
 .text._malloc_r
                0x0000000008003598      0x564 /usr/lib/gcc/arm-none-eabi/5.2.0/../../../../arm-none-eabi/lib/thumb/libc.a(lib_a-mallocr.o)
                0x0000000008003598                _malloc_r
 .text          0x0000000008003afc        0x0 /usr/lib/gcc/arm-none-eabi/5.2.0/../../../../arm-none-eabi/lib/thumb/libc.a(lib_a-mlock.o)
 .text.__malloc_lock
                0x0000000008003afc        0x4 /usr/lib/gcc/arm-none-eabi/5.2.0/../../../../arm-none-eabi/lib/thumb/libc.a(lib_a-mlock.o)
                0x0000000008003afc                __malloc_lock
 .text.__malloc_unlock
                0x0000000008003b00        0x4 /usr/lib/gcc/arm-none-eabi/5.2.0/../../../../arm-none-eabi/lib/thumb/libc.a(lib_a-mlock.o)
                0x0000000008003b00                __malloc_unlock
 .text          0x0000000008003b04        0x0 /usr/lib/gcc/arm-none-eabi/5.2.0/../../../../arm-none-eabi/lib/thumb/libc.a(lib_a-reent.o)
 .text.cleanup_glue
                0x0000000008003b04       0x20 /usr/lib/gcc/arm-none-eabi/5.2.0/../../../../arm-none-eabi/lib/thumb/libc.a(lib_a-reent.o)
                0x0000000008003b04                cleanup_glue
 .text._reclaim_reent
                0x0000000008003b24       0xa0 /usr/lib/gcc/arm-none-eabi/5.2.0/../../../../arm-none-eabi/lib/thumb/libc.a(lib_a-reent.o)
                0x0000000008003b24                _reclaim_reent
 .text          0x0000000008003bc4        0x0 /usr/lib/gcc/arm-none-eabi/5.2.0/../../../../arm-none-eabi/lib/thumb/libc.a(lib_a-sbrkr.o)
 .text._sbrk_r  0x0000000008003bc4       0x28 /usr/lib/gcc/arm-none-eabi/5.2.0/../../../../arm-none-eabi/lib/thumb/libc.a(lib_a-sbrkr.o)
                0x0000000008003bc4                _sbrk_r
 .text          0x0000000008003bec        0x0 /usr/lib/gcc/arm-none-eabi/5.2.0/../../../../arm-none-eabi/lib/thumb/libc.a(lib_a-freer.o)
 .text._malloc_trim_r
                0x0000000008003bec       0xa4 /usr/lib/gcc/arm-none-eabi/5.2.0/../../../../arm-none-eabi/lib/thumb/libc.a(lib_a-freer.o)
                0x0000000008003bec                _malloc_trim_r
 .text._free_r  0x0000000008003c90      0x1c8 /usr/lib/gcc/arm-none-eabi/5.2.0/../../../../arm-none-eabi/lib/thumb/libc.a(lib_a-freer.o)
                0x0000000008003c90                _free_r
 .text          0x0000000008003e58        0x0 /usr/lib/gcc/arm-none-eabi/5.2.0/../../../../arm-none-eabi/lib/thumb/libstdc++.a(new_op.o)
 .text._Znwj    0x0000000008003e58       0x48 /usr/lib/gcc/arm-none-eabi/5.2.0/../../../../arm-none-eabi/lib/thumb/libstdc++.a(new_op.o)
                0x0000000008003e58                operator new(unsigned int)
 .text          0x0000000008003ea0        0x0 /usr/lib/gcc/arm-none-eabi/5.2.0/../../../../arm-none-eabi/lib/thumb/libstdc++.a(eh_throw.o)
 .text._ZL23__gxx_exception_cleanup19_Unwind_Reason_CodeP21_Unwind_Control_Block
                0x0000000008003ea0       0x2e /usr/lib/gcc/arm-none-eabi/5.2.0/../../../../arm-none-eabi/lib/thumb/libstdc++.a(eh_throw.o)
 *fill*         0x0000000008003ece        0x2 
 .text.__cxa_throw
                0x0000000008003ed0       0x6c /usr/lib/gcc/arm-none-eabi/5.2.0/../../../../arm-none-eabi/lib/thumb/libstdc++.a(eh_throw.o)
                0x0000000008003ed0                __cxa_throw
 .text.__cxa_rethrow
                0x0000000008003f3c       0x74 /usr/lib/gcc/arm-none-eabi/5.2.0/../../../../arm-none-eabi/lib/thumb/libstdc++.a(eh_throw.o)
                0x0000000008003f3c                __cxa_rethrow
 .text          0x0000000008003fb0        0x0 /usr/lib/gcc/arm-none-eabi/5.2.0/../../../../arm-none-eabi/lib/thumb/libstdc++.a(bad_alloc.o)
 .text._ZNKSt9bad_alloc4whatEv
                0x0000000008003fb0        0x8 /usr/lib/gcc/arm-none-eabi/5.2.0/../../../../arm-none-eabi/lib/thumb/libstdc++.a(bad_alloc.o)
                0x0000000008003fb0                std::bad_alloc::what() const
 .text._ZNSt9bad_allocD2Ev
                0x0000000008003fb8       0x1c /usr/lib/gcc/arm-none-eabi/5.2.0/../../../../arm-none-eabi/lib/thumb/libstdc++.a(bad_alloc.o)
                0x0000000008003fb8                std::bad_alloc::~bad_alloc()
                0x0000000008003fb8                std::bad_alloc::~bad_alloc()
 .text._ZNSt9bad_allocD0Ev
                0x0000000008003fd4       0x16 /usr/lib/gcc/arm-none-eabi/5.2.0/../../../../arm-none-eabi/lib/thumb/libstdc++.a(bad_alloc.o)
                0x0000000008003fd4                std::bad_alloc::~bad_alloc()
 .text          0x0000000008003fea        0x0 /usr/lib/gcc/arm-none-eabi/5.2.0/../../../../arm-none-eabi/lib/thumb/libstdc++.a(si_class_type_info.o)
 *fill*         0x0000000008003fea        0x2 
 .text._ZN10__cxxabiv120__si_class_type_infoD2Ev
                0x0000000008003fec       0x1c /usr/lib/gcc/arm-none-eabi/5.2.0/../../../../arm-none-eabi/lib/thumb/libstdc++.a(si_class_type_info.o)
                0x0000000008003fec                __cxxabiv1::__si_class_type_info::~__si_class_type_info()
                0x0000000008003fec                __cxxabiv1::__si_class_type_info::~__si_class_type_info()
 .text._ZN10__cxxabiv120__si_class_type_infoD0Ev
                0x0000000008004008       0x16 /usr/lib/gcc/arm-none-eabi/5.2.0/../../../../arm-none-eabi/lib/thumb/libstdc++.a(si_class_type_info.o)
                0x0000000008004008                __cxxabiv1::__si_class_type_info::~__si_class_type_info()
 .text._ZNK10__cxxabiv120__si_class_type_info12__do_dyncastEiNS_17__class_type_info10__sub_kindEPKS1_PKvS4_S6_RNS1_16__dyncast_resultE
                0x000000000800401e       0x8c /usr/lib/gcc/arm-none-eabi/5.2.0/../../../../arm-none-eabi/lib/thumb/libstdc++.a(si_class_type_info.o)
                0x000000000800401e                __cxxabiv1::__si_class_type_info::__do_dyncast(int, __cxxabiv1::__class_type_info::__sub_kind, __cxxabiv1::__class_type_info const*, void const*, __cxxabiv1::__class_type_info const*, void const*, __cxxabiv1::__class_type_info::__dyncast_result&) const
 .text._ZNK10__cxxabiv120__si_class_type_info20__do_find_public_srcEiPKvPKNS_17__class_type_infoES2_
                0x00000000080040aa       0x3a /usr/lib/gcc/arm-none-eabi/5.2.0/../../../../arm-none-eabi/lib/thumb/libstdc++.a(si_class_type_info.o)
                0x00000000080040aa                __cxxabiv1::__si_class_type_info::__do_find_public_src(int, void const*, __cxxabiv1::__class_type_info const*, void const*) const
 .text._ZNK10__cxxabiv120__si_class_type_info11__do_upcastEPKNS_17__class_type_infoEPKvRNS1_15__upcast_resultE
                0x00000000080040e4       0x2a /usr/lib/gcc/arm-none-eabi/5.2.0/../../../../arm-none-eabi/lib/thumb/libstdc++.a(si_class_type_info.o)
                0x00000000080040e4                __cxxabiv1::__si_class_type_info::__do_upcast(__cxxabiv1::__class_type_info const*, void const*, __cxxabiv1::__class_type_info::__upcast_result&) const
 .text          0x000000000800410e        0x0 /usr/lib/gcc/arm-none-eabi/5.2.0/../../../../arm-none-eabi/lib/thumb/libstdc++.a(eh_globals.o)
 *fill*         0x000000000800410e        0x2 
 .text.__cxa_get_globals_fast
                0x0000000008004110        0x8 /usr/lib/gcc/arm-none-eabi/5.2.0/../../../../arm-none-eabi/lib/thumb/libstdc++.a(eh_globals.o)
                0x0000000008004110                __cxa_get_globals_fast
 .text.__cxa_get_globals
                0x0000000008004118        0x8 /usr/lib/gcc/arm-none-eabi/5.2.0/../../../../arm-none-eabi/lib/thumb/libstdc++.a(eh_globals.o)
                0x0000000008004118                __cxa_get_globals
 .text          0x0000000008004120        0x0 /usr/lib/gcc/arm-none-eabi/5.2.0/../../../../arm-none-eabi/lib/thumb/libstdc++.a(del_op.o)
 .text._ZdlPv   0x0000000008004120        0xc /usr/lib/gcc/arm-none-eabi/5.2.0/../../../../arm-none-eabi/lib/thumb/libstdc++.a(del_op.o)
                0x0000000008004120                operator delete(void*)
 .text          0x000000000800412c        0x0 /usr/lib/gcc/arm-none-eabi/5.2.0/../../../../arm-none-eabi/lib/thumb/libstdc++.a(new_handler.o)
 .text._ZSt15set_new_handlerPFvvE
                0x000000000800412c       0x10 /usr/lib/gcc/arm-none-eabi/5.2.0/../../../../arm-none-eabi/lib/thumb/libstdc++.a(new_handler.o)
                0x000000000800412c                std::set_new_handler(void (*)())
 .text._ZSt15get_new_handlerv
                0x000000000800413c        0xc /usr/lib/gcc/arm-none-eabi/5.2.0/../../../../arm-none-eabi/lib/thumb/libstdc++.a(new_handler.o)
                0x000000000800413c                std::get_new_handler()
 .text          0x0000000008004148        0x0 /usr/lib/gcc/arm-none-eabi/5.2.0/../../../../arm-none-eabi/lib/thumb/libstdc++.a(class_type_info.o)
 .text._ZNK10__cxxabiv117__class_type_info11__do_upcastEPKS0_PPv
                0x0000000008004148       0x3c /usr/lib/gcc/arm-none-eabi/5.2.0/../../../../arm-none-eabi/lib/thumb/libstdc++.a(class_type_info.o)
                0x0000000008004148                __cxxabiv1::__class_type_info::__do_upcast(__cxxabiv1::__class_type_info const*, void**) const
 .text._ZNK10__cxxabiv117__class_type_info20__do_find_public_srcEiPKvPKS0_S2_
                0x0000000008004184        0xc /usr/lib/gcc/arm-none-eabi/5.2.0/../../../../arm-none-eabi/lib/thumb/libstdc++.a(class_type_info.o)
                0x0000000008004184                __cxxabiv1::__class_type_info::__do_find_public_src(int, void const*, __cxxabiv1::__class_type_info const*, void const*) const
 .text._ZN10__cxxabiv117__class_type_infoD2Ev
                0x0000000008004190       0x1c /usr/lib/gcc/arm-none-eabi/5.2.0/../../../../arm-none-eabi/lib/thumb/libstdc++.a(class_type_info.o)
                0x0000000008004190                __cxxabiv1::__class_type_info::~__class_type_info()
                0x0000000008004190                __cxxabiv1::__class_type_info::~__class_type_info()
 .text._ZN10__cxxabiv117__class_type_infoD0Ev
                0x00000000080041ac       0x16 /usr/lib/gcc/arm-none-eabi/5.2.0/../../../../arm-none-eabi/lib/thumb/libstdc++.a(class_type_info.o)
                0x00000000080041ac                __cxxabiv1::__class_type_info::~__class_type_info()
 .text._ZNK10__cxxabiv117__class_type_info11__do_upcastEPKS0_PKvRNS0_15__upcast_resultE
                0x00000000080041c2       0x1e /usr/lib/gcc/arm-none-eabi/5.2.0/../../../../arm-none-eabi/lib/thumb/libstdc++.a(class_type_info.o)
                0x00000000080041c2                __cxxabiv1::__class_type_info::__do_upcast(__cxxabiv1::__class_type_info const*, void const*, __cxxabiv1::__class_type_info::__upcast_result&) const
 .text._ZNK10__cxxabiv117__class_type_info12__do_dyncastEiNS0_10__sub_kindEPKS0_PKvS3_S5_RNS0_16__dyncast_resultE
                0x00000000080041e0       0x3e /usr/lib/gcc/arm-none-eabi/5.2.0/../../../../arm-none-eabi/lib/thumb/libstdc++.a(class_type_info.o)
                0x00000000080041e0                __cxxabiv1::__class_type_info::__do_dyncast(int, __cxxabiv1::__class_type_info::__sub_kind, __cxxabiv1::__class_type_info const*, void const*, __cxxabiv1::__class_type_info const*, void const*, __cxxabiv1::__class_type_info::__dyncast_result&) const
 .text._ZNK10__cxxabiv117__class_type_info10__do_catchEPKSt9type_infoPPvj
                0x000000000800421e       0x2c /usr/lib/gcc/arm-none-eabi/5.2.0/../../../../arm-none-eabi/lib/thumb/libstdc++.a(class_type_info.o)
                0x000000000800421e                __cxxabiv1::__class_type_info::__do_catch(std::type_info const*, void**, unsigned int) const
 .text          0x000000000800424a        0x0 /usr/lib/gcc/arm-none-eabi/5.2.0/../../../../arm-none-eabi/lib/thumb/libstdc++.a(eh_catch.o)
 .text._ZN10__cxxabiv1L24__is_gxx_exception_classEPc
                0x000000000800424a       0x3c /usr/lib/gcc/arm-none-eabi/5.2.0/../../../../arm-none-eabi/lib/thumb/libstdc++.a(eh_catch.o)
 .text.__cxa_get_exception_ptr
                0x0000000008004286        0x4 /usr/lib/gcc/arm-none-eabi/5.2.0/../../../../arm-none-eabi/lib/thumb/libstdc++.a(eh_catch.o)
                0x0000000008004286                __cxa_get_exception_ptr
 .text.__cxa_begin_catch
                0x000000000800428a       0x60 /usr/lib/gcc/arm-none-eabi/5.2.0/../../../../arm-none-eabi/lib/thumb/libstdc++.a(eh_catch.o)
                0x000000000800428a                __cxa_begin_catch
 .text.__cxa_end_catch
                0x00000000080042ea       0x54 /usr/lib/gcc/arm-none-eabi/5.2.0/../../../../arm-none-eabi/lib/thumb/libstdc++.a(eh_catch.o)
                0x00000000080042ea                __cxa_end_catch
 .text._ZSt18uncaught_exceptionv
                0x000000000800433e       0x12 /usr/lib/gcc/arm-none-eabi/5.2.0/../../../../arm-none-eabi/lib/thumb/libstdc++.a(eh_catch.o)
                0x000000000800433e                std::uncaught_exception()
 .text          0x0000000008004350        0x0 /usr/lib/gcc/arm-none-eabi/5.2.0/../../../../arm-none-eabi/lib/thumb/libstdc++.a(eh_call.o)
 .text._ZN10__cxxabiv1L24__is_gxx_exception_classEPc
                0x0000000008004350       0x3c /usr/lib/gcc/arm-none-eabi/5.2.0/../../../../arm-none-eabi/lib/thumb/libstdc++.a(eh_call.o)
 .text.__cxa_call_terminate
                0x000000000800438c       0x20 /usr/lib/gcc/arm-none-eabi/5.2.0/../../../../arm-none-eabi/lib/thumb/libstdc++.a(eh_call.o)
                0x000000000800438c                __cxa_call_terminate
 .text.__cxa_call_unexpected
                0x00000000080043ac      0x100 /usr/lib/gcc/arm-none-eabi/5.2.0/../../../../arm-none-eabi/lib/thumb/libstdc++.a(eh_call.o)
                0x00000000080043ac                __cxa_call_unexpected
 .text          0x00000000080044ac        0x0 /usr/lib/gcc/arm-none-eabi/5.2.0/../../../../arm-none-eabi/lib/thumb/libstdc++.a(eh_terminate.o)
 .text._ZN10__cxxabiv111__terminateEPFvvE
                0x00000000080044ac       0x2a /usr/lib/gcc/arm-none-eabi/5.2.0/../../../../arm-none-eabi/lib/thumb/libstdc++.a(eh_terminate.o)
                0x00000000080044ac                __cxxabiv1::__terminate(void (*)())
 *fill*         0x00000000080044d6        0x2 
 .text._ZSt9terminatev
                0x00000000080044d8       0x10 /usr/lib/gcc/arm-none-eabi/5.2.0/../../../../arm-none-eabi/lib/thumb/libstdc++.a(eh_terminate.o)
                0x00000000080044d8                std::terminate()
 .text._ZN10__cxxabiv112__unexpectedEPFvvE
                0x00000000080044e8        0xc /usr/lib/gcc/arm-none-eabi/5.2.0/../../../../arm-none-eabi/lib/thumb/libstdc++.a(eh_terminate.o)
                0x00000000080044e8                __cxxabiv1::__unexpected(void (*)())
 .text._ZSt10unexpectedv
                0x00000000080044f4       0x10 /usr/lib/gcc/arm-none-eabi/5.2.0/../../../../arm-none-eabi/lib/thumb/libstdc++.a(eh_terminate.o)
                0x00000000080044f4                std::unexpected()
 .text._ZSt13set_terminatePFvvE
                0x0000000008004504       0x10 /usr/lib/gcc/arm-none-eabi/5.2.0/../../../../arm-none-eabi/lib/thumb/libstdc++.a(eh_terminate.o)
                0x0000000008004504                std::set_terminate(void (*)())
 .text._ZSt13get_terminatev
                0x0000000008004514        0xc /usr/lib/gcc/arm-none-eabi/5.2.0/../../../../arm-none-eabi/lib/thumb/libstdc++.a(eh_terminate.o)
                0x0000000008004514                std::get_terminate()
 .text._ZSt14set_unexpectedPFvvE
                0x0000000008004520       0x10 /usr/lib/gcc/arm-none-eabi/5.2.0/../../../../arm-none-eabi/lib/thumb/libstdc++.a(eh_terminate.o)
                0x0000000008004520                std::set_unexpected(void (*)())
 .text._ZSt14get_unexpectedv
                0x0000000008004530        0xc /usr/lib/gcc/arm-none-eabi/5.2.0/../../../../arm-none-eabi/lib/thumb/libstdc++.a(eh_terminate.o)
                0x0000000008004530                std::get_unexpected()
 .text          0x000000000800453c        0x0 /usr/lib/gcc/arm-none-eabi/5.2.0/../../../../arm-none-eabi/lib/thumb/libstdc++.a(eh_personality.o)
 .text._ZL12read_uleb128PKhPm
                0x000000000800453c       0x32 /usr/lib/gcc/arm-none-eabi/5.2.0/../../../../arm-none-eabi/lib/thumb/libstdc++.a(eh_personality.o)
 .text._ZL12read_sleb128PKhPl
                0x000000000800456e       0x34 /usr/lib/gcc/arm-none-eabi/5.2.0/../../../../arm-none-eabi/lib/thumb/libstdc++.a(eh_personality.o)
 .text._ZL28read_encoded_value_with_basehjPKhPj
                0x00000000080045a2       0xba /usr/lib/gcc/arm-none-eabi/5.2.0/../../../../arm-none-eabi/lib/thumb/libstdc++.a(eh_personality.o)
 .text._ZL21base_of_encoded_valuehP15_Unwind_Context
                0x000000000800465c       0x48 /usr/lib/gcc/arm-none-eabi/5.2.0/../../../../arm-none-eabi/lib/thumb/libstdc++.a(eh_personality.o)
 .text._ZL18read_encoded_valueP15_Unwind_ContexthPKhPj
                0x00000000080046a4       0x22 /usr/lib/gcc/arm-none-eabi/5.2.0/../../../../arm-none-eabi/lib/thumb/libstdc++.a(eh_personality.o)
 .text._ZL17parse_lsda_headerP15_Unwind_ContextPKhP16lsda_header_info
                0x00000000080046c6       0x62 /usr/lib/gcc/arm-none-eabi/5.2.0/../../../../arm-none-eabi/lib/thumb/libstdc++.a(eh_personality.o)
 .text._Unwind_GetGR
                0x0000000008004728       0x18 /usr/lib/gcc/arm-none-eabi/5.2.0/../../../../arm-none-eabi/lib/thumb/libstdc++.a(eh_personality.o)
 .text.__gxx_personality_v0
                0x0000000008004740      0x364 /usr/lib/gcc/arm-none-eabi/5.2.0/../../../../arm-none-eabi/lib/thumb/libstdc++.a(eh_personality.o)
                0x0000000008004740                __gxx_personality_v0
 .text          0x0000000008004aa4        0x0 /usr/lib/gcc/arm-none-eabi/5.2.0/../../../../arm-none-eabi/lib/thumb/libstdc++.a(eh_exception.o)
 .text._ZNSt9exceptionD2Ev
                0x0000000008004aa4        0x2 /usr/lib/gcc/arm-none-eabi/5.2.0/../../../../arm-none-eabi/lib/thumb/libstdc++.a(eh_exception.o)
                0x0000000008004aa4                std::exception::~exception()
                0x0000000008004aa4                std::exception::~exception()
 .text._ZNSt13bad_exceptionD2Ev
                0x0000000008004aa6        0x2 /usr/lib/gcc/arm-none-eabi/5.2.0/../../../../arm-none-eabi/lib/thumb/libstdc++.a(eh_exception.o)
                0x0000000008004aa6                std::bad_exception::~bad_exception()
                0x0000000008004aa6                std::bad_exception::~bad_exception()
 .text._ZNKSt9exception4whatEv
                0x0000000008004aa8        0x8 /usr/lib/gcc/arm-none-eabi/5.2.0/../../../../arm-none-eabi/lib/thumb/libstdc++.a(eh_exception.o)
                0x0000000008004aa8                std::exception::what() const
 .text._ZNKSt13bad_exception4whatEv
                0x0000000008004ab0        0x8 /usr/lib/gcc/arm-none-eabi/5.2.0/../../../../arm-none-eabi/lib/thumb/libstdc++.a(eh_exception.o)
                0x0000000008004ab0                std::bad_exception::what() const
 .text._ZNSt9exceptionD0Ev
                0x0000000008004ab8       0x10 /usr/lib/gcc/arm-none-eabi/5.2.0/../../../../arm-none-eabi/lib/thumb/libstdc++.a(eh_exception.o)
                0x0000000008004ab8                std::exception::~exception()
 .text._ZNSt13bad_exceptionD0Ev
                0x0000000008004ac8       0x10 /usr/lib/gcc/arm-none-eabi/5.2.0/../../../../arm-none-eabi/lib/thumb/libstdc++.a(eh_exception.o)
                0x0000000008004ac8                std::bad_exception::~bad_exception()
 .text._ZN10__cxxabiv115__forced_unwindD2Ev
                0x0000000008004ad8        0x2 /usr/lib/gcc/arm-none-eabi/5.2.0/../../../../arm-none-eabi/lib/thumb/libstdc++.a(eh_exception.o)
                0x0000000008004ad8                __cxxabiv1::__forced_unwind::~__forced_unwind()
                0x0000000008004ad8                __cxxabiv1::__forced_unwind::~__forced_unwind()
 .text._ZN10__cxxabiv115__forced_unwindD0Ev
                0x0000000008004ada       0x10 /usr/lib/gcc/arm-none-eabi/5.2.0/../../../../arm-none-eabi/lib/thumb/libstdc++.a(eh_exception.o)
                0x0000000008004ada                __cxxabiv1::__forced_unwind::~__forced_unwind()
 .text._ZN10__cxxabiv119__foreign_exceptionD2Ev
                0x0000000008004aea        0x2 /usr/lib/gcc/arm-none-eabi/5.2.0/../../../../arm-none-eabi/lib/thumb/libstdc++.a(eh_exception.o)
                0x0000000008004aea                __cxxabiv1::__foreign_exception::~__foreign_exception()
                0x0000000008004aea                __cxxabiv1::__foreign_exception::~__foreign_exception()
 .text._ZN10__cxxabiv119__foreign_exceptionD0Ev
                0x0000000008004aec       0x10 /usr/lib/gcc/arm-none-eabi/5.2.0/../../../../arm-none-eabi/lib/thumb/libstdc++.a(eh_exception.o)
                0x0000000008004aec                __cxxabiv1::__foreign_exception::~__foreign_exception()
 .text          0x0000000008004afc        0x0 /usr/lib/gcc/arm-none-eabi/5.2.0/../../../../arm-none-eabi/lib/thumb/libstdc++.a(eh_alloc.o)
 .text._ZN12_GLOBAL__N_14pool4freeEPv.constprop.4
                0x0000000008004afc       0x50 /usr/lib/gcc/arm-none-eabi/5.2.0/../../../../arm-none-eabi/lib/thumb/libstdc++.a(eh_alloc.o)
 .text._ZN12_GLOBAL__N_14pool8allocateEj.constprop.5
                0x0000000008004b4c       0x4c /usr/lib/gcc/arm-none-eabi/5.2.0/../../../../arm-none-eabi/lib/thumb/libstdc++.a(eh_alloc.o)
 .text.__cxa_allocate_exception
                0x0000000008004b98       0x30 /usr/lib/gcc/arm-none-eabi/5.2.0/../../../../arm-none-eabi/lib/thumb/libstdc++.a(eh_alloc.o)
                0x0000000008004b98                __cxa_allocate_exception
 .text.__cxa_free_exception
                0x0000000008004bc8       0x28 /usr/lib/gcc/arm-none-eabi/5.2.0/../../../../arm-none-eabi/lib/thumb/libstdc++.a(eh_alloc.o)
                0x0000000008004bc8                __cxa_free_exception
 .text.__cxa_allocate_dependent_exception
                0x0000000008004bf0       0x2c /usr/lib/gcc/arm-none-eabi/5.2.0/../../../../arm-none-eabi/lib/thumb/libstdc++.a(eh_alloc.o)
                0x0000000008004bf0                __cxa_allocate_dependent_exception
 .text.__cxa_free_dependent_exception
                0x0000000008004c1c       0x28 /usr/lib/gcc/arm-none-eabi/5.2.0/../../../../arm-none-eabi/lib/thumb/libstdc++.a(eh_alloc.o)
                0x0000000008004c1c                __cxa_free_dependent_exception
 .text.startup._GLOBAL__sub_I___cxa_allocate_exception
                0x0000000008004c44       0x30 /usr/lib/gcc/arm-none-eabi/5.2.0/../../../../arm-none-eabi/lib/thumb/libstdc++.a(eh_alloc.o)
 .text          0x0000000008004c74        0x0 /usr/lib/gcc/arm-none-eabi/5.2.0/../../../../arm-none-eabi/lib/thumb/libstdc++.a(tinfo.o)
 .text._ZNSt9type_infoD2Ev
                0x0000000008004c74        0x2 /usr/lib/gcc/arm-none-eabi/5.2.0/../../../../arm-none-eabi/lib/thumb/libstdc++.a(tinfo.o)
                0x0000000008004c74                std::type_info::~type_info()
                0x0000000008004c74                std::type_info::~type_info()
 .text._ZNKSt9type_info15__is_function_pEv
                0x0000000008004c76        0x4 /usr/lib/gcc/arm-none-eabi/5.2.0/../../../../arm-none-eabi/lib/thumb/libstdc++.a(tinfo.o)
                0x0000000008004c76                std::type_info::__is_function_p() const
                0x0000000008004c76                std::type_info::__is_pointer_p() const
 .text._ZNKSt9type_info11__do_upcastEPKN10__cxxabiv117__class_type_infoEPPv
                0x0000000008004c7a        0x4 /usr/lib/gcc/arm-none-eabi/5.2.0/../../../../arm-none-eabi/lib/thumb/libstdc++.a(tinfo.o)
                0x0000000008004c7a                std::type_info::__do_upcast(__cxxabiv1::__class_type_info const*, void**) const
 .text._ZNSt9type_infoD0Ev
                0x0000000008004c7e       0x10 /usr/lib/gcc/arm-none-eabi/5.2.0/../../../../arm-none-eabi/lib/thumb/libstdc++.a(tinfo.o)
                0x0000000008004c7e                std::type_info::~type_info()
 .text._ZNKSt9type_infoeqERKS_
                0x0000000008004c8e       0x2e /usr/lib/gcc/arm-none-eabi/5.2.0/../../../../arm-none-eabi/lib/thumb/libstdc++.a(tinfo.o)
                0x0000000008004c8e                std::type_info::operator==(std::type_info const&) const
 .text._ZNKSt9type_info10__do_catchEPKS_PPvj
                0x0000000008004cbc        0xc /usr/lib/gcc/arm-none-eabi/5.2.0/../../../../arm-none-eabi/lib/thumb/libstdc++.a(tinfo.o)
                0x0000000008004cbc                std::type_info::__do_catch(std::type_info const*, void**, unsigned int) const
 .text          0x0000000008004cc8        0x0 /usr/lib/gcc/arm-none-eabi/5.2.0/../../../../arm-none-eabi/lib/thumb/libstdc++.a(eh_unex_handler.o)
 .text          0x0000000008004cc8        0x0 /usr/lib/gcc/arm-none-eabi/5.2.0/../../../../arm-none-eabi/lib/thumb/libstdc++.a(eh_arm.o)
 .text.__cxa_end_cleanup
                0x0000000008004cc8        0xc /usr/lib/gcc/arm-none-eabi/5.2.0/../../../../arm-none-eabi/lib/thumb/libstdc++.a(eh_arm.o)
                0x0000000008004cc8                __cxa_end_cleanup
 .text._ZN10__cxxabiv1L24__is_gxx_exception_classEPc
                0x0000000008004cd4       0x3c /usr/lib/gcc/arm-none-eabi/5.2.0/../../../../arm-none-eabi/lib/thumb/libstdc++.a(eh_arm.o)
 .text.__cxa_type_match
                0x0000000008004d10       0xc8 /usr/lib/gcc/arm-none-eabi/5.2.0/../../../../arm-none-eabi/lib/thumb/libstdc++.a(eh_arm.o)
                0x0000000008004d10                __cxa_type_match
 .text.__cxa_begin_cleanup
                0x0000000008004dd8       0x3c /usr/lib/gcc/arm-none-eabi/5.2.0/../../../../arm-none-eabi/lib/thumb/libstdc++.a(eh_arm.o)
                0x0000000008004dd8                __cxa_begin_cleanup
 .text.__gnu_end_cleanup
                0x0000000008004e14       0x3c /usr/lib/gcc/arm-none-eabi/5.2.0/../../../../arm-none-eabi/lib/thumb/libstdc++.a(eh_arm.o)
                0x0000000008004e14                __gnu_end_cleanup
 .text          0x0000000008004e50        0x0 /usr/lib/gcc/arm-none-eabi/5.2.0/../../../../arm-none-eabi/lib/thumb/libstdc++.a(pure.o)
 .text.__cxa_pure_virtual
                0x0000000008004e50       0x14 /usr/lib/gcc/arm-none-eabi/5.2.0/../../../../arm-none-eabi/lib/thumb/libstdc++.a(pure.o)
                0x0000000008004e50                __cxa_pure_virtual
 .text.__cxa_deleted_virtual
                0x0000000008004e64       0x14 /usr/lib/gcc/arm-none-eabi/5.2.0/../../../../arm-none-eabi/lib/thumb/libstdc++.a(pure.o)
                0x0000000008004e64                __cxa_deleted_virtual
 .text          0x0000000008004e78        0x0 /usr/lib/gcc/arm-none-eabi/5.2.0/../../../../arm-none-eabi/lib/thumb/libstdc++.a(eh_term_handler.o)
 .text          0x0000000008004e78        0x0 /usr/lib/gcc/arm-none-eabi/5.2.0/../../../../arm-none-eabi/lib/thumb/libstdc++.a(vterminate.o)
 .text._ZN9__gnu_cxx27__verbose_terminate_handlerEv
                0x0000000008004e78       0xf4 /usr/lib/gcc/arm-none-eabi/5.2.0/../../../../arm-none-eabi/lib/thumb/libstdc++.a(vterminate.o)
                0x0000000008004e78                __gnu_cxx::__verbose_terminate_handler()
 .text          0x0000000008004f6c        0x0 /usr/lib/gcc/arm-none-eabi/5.2.0/../../../../arm-none-eabi/lib/thumb/libstdc++.a(cp-demangle.o)
 .text.d_make_empty
                0x0000000008004f6c       0x1c /usr/lib/gcc/arm-none-eabi/5.2.0/../../../../arm-none-eabi/lib/thumb/libstdc++.a(cp-demangle.o)
 .text.d_make_comp
                0x0000000008004f88       0x8c /usr/lib/gcc/arm-none-eabi/5.2.0/../../../../arm-none-eabi/lib/thumb/libstdc++.a(cp-demangle.o)
 .text.d_make_name
                0x0000000008005014       0x26 /usr/lib/gcc/arm-none-eabi/5.2.0/../../../../arm-none-eabi/lib/thumb/libstdc++.a(cp-demangle.o)
 .text.d_make_builtin_type
                0x000000000800503a       0x20 /usr/lib/gcc/arm-none-eabi/5.2.0/../../../../arm-none-eabi/lib/thumb/libstdc++.a(cp-demangle.o)
 .text.d_cv_qualifiers
                0x000000000800505a       0xc0 /usr/lib/gcc/arm-none-eabi/5.2.0/../../../../arm-none-eabi/lib/thumb/libstdc++.a(cp-demangle.o)
 .text.d_ref_qualifier
                0x000000000800511a       0x36 /usr/lib/gcc/arm-none-eabi/5.2.0/../../../../arm-none-eabi/lib/thumb/libstdc++.a(cp-demangle.o)
 .text.d_add_substitution
                0x0000000008005150       0x24 /usr/lib/gcc/arm-none-eabi/5.2.0/../../../../arm-none-eabi/lib/thumb/libstdc++.a(cp-demangle.o)
 .text.d_count_templates_scopes
                0x0000000008005174       0x92 /usr/lib/gcc/arm-none-eabi/5.2.0/../../../../arm-none-eabi/lib/thumb/libstdc++.a(cp-demangle.o)
 .text.d_print_flush
                0x0000000008005206       0x24 /usr/lib/gcc/arm-none-eabi/5.2.0/../../../../arm-none-eabi/lib/thumb/libstdc++.a(cp-demangle.o)
 .text.d_append_char
                0x000000000800522a       0x26 /usr/lib/gcc/arm-none-eabi/5.2.0/../../../../arm-none-eabi/lib/thumb/libstdc++.a(cp-demangle.o)
 .text.d_append_buffer
                0x0000000008005250       0x1e /usr/lib/gcc/arm-none-eabi/5.2.0/../../../../arm-none-eabi/lib/thumb/libstdc++.a(cp-demangle.o)
 .text.d_index_template_argument
                0x000000000800526e       0x28 /usr/lib/gcc/arm-none-eabi/5.2.0/../../../../arm-none-eabi/lib/thumb/libstdc++.a(cp-demangle.o)
 .text.d_append_string
                0x0000000008005296       0x1c /usr/lib/gcc/arm-none-eabi/5.2.0/../../../../arm-none-eabi/lib/thumb/libstdc++.a(cp-demangle.o)
 *fill*         0x00000000080052b2        0x2 
 .text.d_append_num
                0x00000000080052b4       0x24 /usr/lib/gcc/arm-none-eabi/5.2.0/../../../../arm-none-eabi/lib/thumb/libstdc++.a(cp-demangle.o)
 .text.d_number.isra.0
                0x00000000080052d8       0x40 /usr/lib/gcc/arm-none-eabi/5.2.0/../../../../arm-none-eabi/lib/thumb/libstdc++.a(cp-demangle.o)
 .text.d_number_component
                0x0000000008005318       0x22 /usr/lib/gcc/arm-none-eabi/5.2.0/../../../../arm-none-eabi/lib/thumb/libstdc++.a(cp-demangle.o)
 .text.d_compact_number
                0x000000000800533a       0x34 /usr/lib/gcc/arm-none-eabi/5.2.0/../../../../arm-none-eabi/lib/thumb/libstdc++.a(cp-demangle.o)
 .text.d_template_param
                0x000000000800536e       0x38 /usr/lib/gcc/arm-none-eabi/5.2.0/../../../../arm-none-eabi/lib/thumb/libstdc++.a(cp-demangle.o)
 .text.d_discriminator
                0x00000000080053a6       0x24 /usr/lib/gcc/arm-none-eabi/5.2.0/../../../../arm-none-eabi/lib/thumb/libstdc++.a(cp-demangle.o)
 *fill*         0x00000000080053ca        0x2 
 .text.d_source_name
                0x00000000080053cc       0x80 /usr/lib/gcc/arm-none-eabi/5.2.0/../../../../arm-none-eabi/lib/thumb/libstdc++.a(cp-demangle.o)
 .text.d_abi_tags
                0x000000000800544c       0x30 /usr/lib/gcc/arm-none-eabi/5.2.0/../../../../arm-none-eabi/lib/thumb/libstdc++.a(cp-demangle.o)
 .text.d_call_offset
                0x000000000800547c       0x58 /usr/lib/gcc/arm-none-eabi/5.2.0/../../../../arm-none-eabi/lib/thumb/libstdc++.a(cp-demangle.o)
 .text.op_is_new_cast.isra.2
                0x00000000080054d4       0x26 /usr/lib/gcc/arm-none-eabi/5.2.0/../../../../arm-none-eabi/lib/thumb/libstdc++.a(cp-demangle.o)
 .text.d_lookup_template_argument.isra.6
                0x00000000080054fa       0x22 /usr/lib/gcc/arm-none-eabi/5.2.0/../../../../arm-none-eabi/lib/thumb/libstdc++.a(cp-demangle.o)
 .text.d_find_pack
                0x000000000800551c       0x7c /usr/lib/gcc/arm-none-eabi/5.2.0/../../../../arm-none-eabi/lib/thumb/libstdc++.a(cp-demangle.o)
 .text.d_growable_string_callback_adapter
                0x0000000008005598       0x72 /usr/lib/gcc/arm-none-eabi/5.2.0/../../../../arm-none-eabi/lib/thumb/libstdc++.a(cp-demangle.o)
 .text.d_print_expr_op
                0x000000000800560a       0x1e /usr/lib/gcc/arm-none-eabi/5.2.0/../../../../arm-none-eabi/lib/thumb/libstdc++.a(cp-demangle.o)
 .text.d_print_comp
                0x0000000008005628      0xd84 /usr/lib/gcc/arm-none-eabi/5.2.0/../../../../arm-none-eabi/lib/thumb/libstdc++.a(cp-demangle.o)
 .text.d_print_mod
                0x00000000080063ac       0xf8 /usr/lib/gcc/arm-none-eabi/5.2.0/../../../../arm-none-eabi/lib/thumb/libstdc++.a(cp-demangle.o)
 .text.d_print_mod_list
                0x00000000080064a4       0xf8 /usr/lib/gcc/arm-none-eabi/5.2.0/../../../../arm-none-eabi/lib/thumb/libstdc++.a(cp-demangle.o)
 .text.d_print_array_type.isra.9
                0x000000000800659c       0x84 /usr/lib/gcc/arm-none-eabi/5.2.0/../../../../arm-none-eabi/lib/thumb/libstdc++.a(cp-demangle.o)
 .text.d_print_function_type.isra.10
                0x0000000008006620       0xdc /usr/lib/gcc/arm-none-eabi/5.2.0/../../../../arm-none-eabi/lib/thumb/libstdc++.a(cp-demangle.o)
 .text.d_print_cast.isra.11
                0x00000000080066fc       0x8e /usr/lib/gcc/arm-none-eabi/5.2.0/../../../../arm-none-eabi/lib/thumb/libstdc++.a(cp-demangle.o)
 .text.d_print_subexpr
                0x000000000800678a       0x40 /usr/lib/gcc/arm-none-eabi/5.2.0/../../../../arm-none-eabi/lib/thumb/libstdc++.a(cp-demangle.o)
 *fill*         0x00000000080067ca        0x2 
 .text.d_substitution
                0x00000000080067cc      0x140 /usr/lib/gcc/arm-none-eabi/5.2.0/../../../../arm-none-eabi/lib/thumb/libstdc++.a(cp-demangle.o)
 .text.d_name   0x000000000800690c      0x294 /usr/lib/gcc/arm-none-eabi/5.2.0/../../../../arm-none-eabi/lib/thumb/libstdc++.a(cp-demangle.o)
 .text.d_type   0x0000000008006ba0      0x494 /usr/lib/gcc/arm-none-eabi/5.2.0/../../../../arm-none-eabi/lib/thumb/libstdc++.a(cp-demangle.o)
 .text.d_operator_name
                0x0000000008007034       0xd8 /usr/lib/gcc/arm-none-eabi/5.2.0/../../../../arm-none-eabi/lib/thumb/libstdc++.a(cp-demangle.o)
 .text.d_parmlist
                0x000000000800710c       0x78 /usr/lib/gcc/arm-none-eabi/5.2.0/../../../../arm-none-eabi/lib/thumb/libstdc++.a(cp-demangle.o)
 .text.d_unqualified_name
                0x0000000008007184      0x1cc /usr/lib/gcc/arm-none-eabi/5.2.0/../../../../arm-none-eabi/lib/thumb/libstdc++.a(cp-demangle.o)
 .text.d_bare_function_type
                0x0000000008007350       0x40 /usr/lib/gcc/arm-none-eabi/5.2.0/../../../../arm-none-eabi/lib/thumb/libstdc++.a(cp-demangle.o)
 .text.d_function_type
                0x0000000008007390       0x40 /usr/lib/gcc/arm-none-eabi/5.2.0/../../../../arm-none-eabi/lib/thumb/libstdc++.a(cp-demangle.o)
 .text.d_encoding
                0x00000000080073d0      0x37e /usr/lib/gcc/arm-none-eabi/5.2.0/../../../../arm-none-eabi/lib/thumb/libstdc++.a(cp-demangle.o)
 .text.d_expr_primary
                0x000000000800774e       0xa4 /usr/lib/gcc/arm-none-eabi/5.2.0/../../../../arm-none-eabi/lib/thumb/libstdc++.a(cp-demangle.o)
 .text.d_template_args
                0x00000000080077f2       0xa6 /usr/lib/gcc/arm-none-eabi/5.2.0/../../../../arm-none-eabi/lib/thumb/libstdc++.a(cp-demangle.o)
 .text.d_expression_1
                0x0000000008007898      0x334 /usr/lib/gcc/arm-none-eabi/5.2.0/../../../../arm-none-eabi/lib/thumb/libstdc++.a(cp-demangle.o)
 .text.d_expression
                0x0000000008007bcc       0x16 /usr/lib/gcc/arm-none-eabi/5.2.0/../../../../arm-none-eabi/lib/thumb/libstdc++.a(cp-demangle.o)
 .text.d_exprlist
                0x0000000008007be2       0x58 /usr/lib/gcc/arm-none-eabi/5.2.0/../../../../arm-none-eabi/lib/thumb/libstdc++.a(cp-demangle.o)
 *fill*         0x0000000008007c3a        0x2 
 .text.d_demangle_callback.constprop.15
                0x0000000008007c3c      0x268 /usr/lib/gcc/arm-none-eabi/5.2.0/../../../../arm-none-eabi/lib/thumb/libstdc++.a(cp-demangle.o)
 .text.__cxa_demangle
                0x0000000008007ea4       0xb8 /usr/lib/gcc/arm-none-eabi/5.2.0/../../../../arm-none-eabi/lib/thumb/libstdc++.a(cp-demangle.o)
                0x0000000008007ea4                __cxa_demangle
 .text.__gcclibcxx_demangle_callback
                0x0000000008007f5c       0x24 /usr/lib/gcc/arm-none-eabi/5.2.0/../../../../arm-none-eabi/lib/thumb/libstdc++.a(cp-demangle.o)
                0x0000000008007f5c                __gcclibcxx_demangle_callback
 .text          0x0000000008007f80        0x0 /usr/lib/gcc/arm-none-eabi/5.2.0/../../../../arm-none-eabi/lib/thumb/libstdc++.a(eh_type.o)
 .text.__cxa_current_exception_type
                0x0000000008007f80       0x22 /usr/lib/gcc/arm-none-eabi/5.2.0/../../../../arm-none-eabi/lib/thumb/libstdc++.a(eh_type.o)
                0x0000000008007f80                __cxa_current_exception_type
 *fill*         0x0000000008007fa2        0x2 
 .text          0x0000000008007fa4       0x14 /usr/lib/gcc/arm-none-eabi/5.2.0/libgcc.a(_thumb1_case_sqi.o)
                0x0000000008007fa4                __gnu_thumb1_case_sqi
 .text          0x0000000008007fb8       0x14 /usr/lib/gcc/arm-none-eabi/5.2.0/libgcc.a(_thumb1_case_shi.o)
                0x0000000008007fb8                __gnu_thumb1_case_shi
 .text          0x0000000008007fcc       0x14 /usr/lib/gcc/arm-none-eabi/5.2.0/libgcc.a(_thumb1_case_uhi.o)
                0x0000000008007fcc                __gnu_thumb1_case_uhi
 .text          0x0000000008007fe0        0x0 /usr/lib/gcc/arm-none-eabi/5.2.0/../../../../arm-none-eabi/lib/libc.a(lib_a-fputc.o)
 .text._fputc_r
                0x0000000008007fe0       0x3c /usr/lib/gcc/arm-none-eabi/5.2.0/../../../../arm-none-eabi/lib/libc.a(lib_a-fputc.o)
                0x0000000008007fe0                _fputc_r
 .text.fputc    0x000000000800801c       0x48 /usr/lib/gcc/arm-none-eabi/5.2.0/../../../../arm-none-eabi/lib/libc.a(lib_a-fputc.o)
                0x000000000800801c                fputc
 .text          0x0000000008008064        0x0 /usr/lib/gcc/arm-none-eabi/5.2.0/../../../../arm-none-eabi/lib/libc.a(lib_a-fputs.o)
 .text._fputs_r
                0x0000000008008064       0x8c /usr/lib/gcc/arm-none-eabi/5.2.0/../../../../arm-none-eabi/lib/libc.a(lib_a-fputs.o)
                0x0000000008008064                _fputs_r
 .text.fputs    0x00000000080080f0       0x18 /usr/lib/gcc/arm-none-eabi/5.2.0/../../../../arm-none-eabi/lib/libc.a(lib_a-fputs.o)
                0x00000000080080f0                fputs
 .text          0x0000000008008108        0x0 /usr/lib/gcc/arm-none-eabi/5.2.0/../../../../arm-none-eabi/lib/libc.a(lib_a-fvwrite.o)
 .text.__sfvwrite_r
                0x0000000008008108      0x4c8 /usr/lib/gcc/arm-none-eabi/5.2.0/../../../../arm-none-eabi/lib/libc.a(lib_a-fvwrite.o)
                0x0000000008008108                __sfvwrite_r
 .text          0x00000000080085d0        0x0 /usr/lib/gcc/arm-none-eabi/5.2.0/../../../../arm-none-eabi/lib/libc.a(lib_a-malloc.o)
 .text.malloc   0x00000000080085d0       0x20 /usr/lib/gcc/arm-none-eabi/5.2.0/../../../../arm-none-eabi/lib/libc.a(lib_a-malloc.o)
                0x00000000080085d0                malloc
 .text.free     0x00000000080085f0       0x20 /usr/lib/gcc/arm-none-eabi/5.2.0/../../../../arm-none-eabi/lib/libc.a(lib_a-malloc.o)
                0x00000000080085f0                free
 .text          0x0000000008008610        0x0 /usr/lib/gcc/arm-none-eabi/5.2.0/../../../../arm-none-eabi/lib/libc.a(lib_a-memchr.o)
 .text.memchr   0x0000000008008610      0x10c /usr/lib/gcc/arm-none-eabi/5.2.0/../../../../arm-none-eabi/lib/libc.a(lib_a-memchr.o)
                0x0000000008008610                memchr
 .text          0x000000000800871c        0x0 /usr/lib/gcc/arm-none-eabi/5.2.0/../../../../arm-none-eabi/lib/libc.a(lib_a-memcmp.o)
 .text.memcmp   0x000000000800871c       0xb0 /usr/lib/gcc/arm-none-eabi/5.2.0/../../../../arm-none-eabi/lib/libc.a(lib_a-memcmp.o)
                0x000000000800871c                memcmp
 .text          0x00000000080087cc        0x0 /usr/lib/gcc/arm-none-eabi/5.2.0/../../../../arm-none-eabi/lib/libc.a(lib_a-memmove.o)
 .text.memmove  0x00000000080087cc      0x12c /usr/lib/gcc/arm-none-eabi/5.2.0/../../../../arm-none-eabi/lib/libc.a(lib_a-memmove.o)
                0x00000000080087cc                memmove
 .text          0x00000000080088f8        0x0 /usr/lib/gcc/arm-none-eabi/5.2.0/../../../../arm-none-eabi/lib/libc.a(lib_a-putc.o)
 .text._putc_r  0x00000000080088f8       0xa4 /usr/lib/gcc/arm-none-eabi/5.2.0/../../../../arm-none-eabi/lib/libc.a(lib_a-putc.o)
                0x00000000080088f8                _putc_r
 .text.putc     0x000000000800899c       0xb4 /usr/lib/gcc/arm-none-eabi/5.2.0/../../../../arm-none-eabi/lib/libc.a(lib_a-putc.o)
                0x000000000800899c                putc
 .text          0x0000000008008a50        0x0 /usr/lib/gcc/arm-none-eabi/5.2.0/../../../../arm-none-eabi/lib/libc.a(lib_a-realloc.o)
 .text.realloc  0x0000000008008a50       0x24 /usr/lib/gcc/arm-none-eabi/5.2.0/../../../../arm-none-eabi/lib/libc.a(lib_a-realloc.o)
                0x0000000008008a50                realloc
 .text          0x0000000008008a74        0x0 /usr/lib/gcc/arm-none-eabi/5.2.0/../../../../arm-none-eabi/lib/libc.a(lib_a-reallocr.o)
 .text._realloc_r
                0x0000000008008a74      0x4d4 /usr/lib/gcc/arm-none-eabi/5.2.0/../../../../arm-none-eabi/lib/libc.a(lib_a-reallocr.o)
                0x0000000008008a74                _realloc_r
 .text          0x0000000008008f48        0x0 /usr/lib/gcc/arm-none-eabi/5.2.0/../../../../arm-none-eabi/lib/libc.a(lib_a-sprintf.o)
 .text._sprintf_r
                0x0000000008008f48       0x64 /usr/lib/gcc/arm-none-eabi/5.2.0/../../../../arm-none-eabi/lib/libc.a(lib_a-sprintf.o)
                0x0000000008008f48                _sprintf_r
 .text.sprintf  0x0000000008008fac       0x74 /usr/lib/gcc/arm-none-eabi/5.2.0/../../../../arm-none-eabi/lib/libc.a(lib_a-sprintf.o)
                0x0000000008008fac                sprintf
 .text          0x0000000008009020      0x224 /usr/lib/gcc/arm-none-eabi/5.2.0/../../../../arm-none-eabi/lib/libc.a(lib_a-strcmp.o)
                0x0000000008009020                strcmp
 .text          0x0000000008009244        0x0 /usr/lib/gcc/arm-none-eabi/5.2.0/../../../../arm-none-eabi/lib/libc.a(lib_a-strcpy.o)
 .text.strcpy   0x0000000008009244       0xf0 /usr/lib/gcc/arm-none-eabi/5.2.0/../../../../arm-none-eabi/lib/libc.a(lib_a-strcpy.o)
                0x0000000008009244                strcpy
 .text          0x0000000008009334        0x0 /usr/lib/gcc/arm-none-eabi/5.2.0/../../../../arm-none-eabi/lib/libc.a(lib_a-strlen.o)
 .text.strlen   0x0000000008009334       0x60 /usr/lib/gcc/arm-none-eabi/5.2.0/../../../../arm-none-eabi/lib/libc.a(lib_a-strlen.o)
                0x0000000008009334                strlen
 .text          0x0000000008009394        0x0 /usr/lib/gcc/arm-none-eabi/5.2.0/../../../../arm-none-eabi/lib/libc.a(lib_a-strncmp.o)
 .text.strncmp  0x0000000008009394      0x124 /usr/lib/gcc/arm-none-eabi/5.2.0/../../../../arm-none-eabi/lib/libc.a(lib_a-strncmp.o)
                0x0000000008009394                strncmp
 .text          0x00000000080094b8        0x0 /usr/lib/gcc/arm-none-eabi/5.2.0/../../../../arm-none-eabi/lib/libc.a(lib_a-svfprintf.o)
 .text._svfprintf_r
                0x00000000080094b8     0x2404 /usr/lib/gcc/arm-none-eabi/5.2.0/../../../../arm-none-eabi/lib/libc.a(lib_a-svfprintf.o)
                0x00000000080094b8                _svfprintf_r
 .text          0x000000000800b8bc        0x0 /usr/lib/gcc/arm-none-eabi/5.2.0/../../../../arm-none-eabi/lib/libc.a(lib_a-syswrite.o)
 .text.write    0x000000000800b8bc       0x28 /usr/lib/gcc/arm-none-eabi/5.2.0/../../../../arm-none-eabi/lib/libc.a(lib_a-syswrite.o)
                0x000000000800b8bc                write
 .text          0x000000000800b8e4        0x0 /usr/lib/gcc/arm-none-eabi/5.2.0/../../../../arm-none-eabi/lib/libc.a(lib_a-wbuf.o)
 .text.__swbuf_r
                0x000000000800b8e4      0x128 /usr/lib/gcc/arm-none-eabi/5.2.0/../../../../arm-none-eabi/lib/libc.a(lib_a-wbuf.o)
                0x000000000800b8e4                __swbuf_r
 .text.__swbuf  0x000000000800ba0c       0x18 /usr/lib/gcc/arm-none-eabi/5.2.0/../../../../arm-none-eabi/lib/libc.a(lib_a-wbuf.o)
                0x000000000800ba0c                __swbuf
 .text          0x000000000800ba24        0x0 /usr/lib/gcc/arm-none-eabi/5.2.0/../../../../arm-none-eabi/lib/libc.a(lib_a-writer.o)
 .text._write_r
                0x000000000800ba24       0x48 /usr/lib/gcc/arm-none-eabi/5.2.0/../../../../arm-none-eabi/lib/libc.a(lib_a-writer.o)
                0x000000000800ba24                _write_r
 .text          0x000000000800ba6c        0x0 /usr/lib/gcc/arm-none-eabi/5.2.0/../../../../arm-none-eabi/lib/libc.a(lib_a-wsetup.o)
 .text.__swsetup_r
                0x000000000800ba6c      0x15c /usr/lib/gcc/arm-none-eabi/5.2.0/../../../../arm-none-eabi/lib/libc.a(lib_a-wsetup.o)
                0x000000000800ba6c                __swsetup_r
 .text          0x000000000800bbc8        0x0 /usr/lib/gcc/arm-none-eabi/5.2.0/../../../../arm-none-eabi/lib/libc.a(lib_a-dtoa.o)
 .text.quorem   0x000000000800bbc8      0x1d8 /usr/lib/gcc/arm-none-eabi/5.2.0/../../../../arm-none-eabi/lib/libc.a(lib_a-dtoa.o)
 .text._dtoa_r  0x000000000800bda0     0x16e0 /usr/lib/gcc/arm-none-eabi/5.2.0/../../../../arm-none-eabi/lib/libc.a(lib_a-dtoa.o)
                0x000000000800bda0                _dtoa_r
 .text          0x000000000800d480        0x0 /usr/lib/gcc/arm-none-eabi/5.2.0/../../../../arm-none-eabi/lib/libc.a(lib_a-fflush.o)
 .text.__sflush_r
                0x000000000800d480      0x22c /usr/lib/gcc/arm-none-eabi/5.2.0/../../../../arm-none-eabi/lib/libc.a(lib_a-fflush.o)
                0x000000000800d480                __sflush_r
 .text._fflush_r
                0x000000000800d6ac       0x54 /usr/lib/gcc/arm-none-eabi/5.2.0/../../../../arm-none-eabi/lib/libc.a(lib_a-fflush.o)
                0x000000000800d6ac                _fflush_r
 .text.fflush   0x000000000800d700       0x38 /usr/lib/gcc/arm-none-eabi/5.2.0/../../../../arm-none-eabi/lib/libc.a(lib_a-fflush.o)
                0x000000000800d700                fflush
 .text          0x000000000800d738        0x0 /usr/lib/gcc/arm-none-eabi/5.2.0/../../../../arm-none-eabi/lib/libc.a(lib_a-findfp.o)
 .text.__fp_unlock
                0x000000000800d738        0x8 /usr/lib/gcc/arm-none-eabi/5.2.0/../../../../arm-none-eabi/lib/libc.a(lib_a-findfp.o)
 .text._cleanup_r
                0x000000000800d740       0x18 /usr/lib/gcc/arm-none-eabi/5.2.0/../../../../arm-none-eabi/lib/libc.a(lib_a-findfp.o)
                0x000000000800d740                _cleanup_r
 .text.__sinit.part.1
                0x000000000800d758      0x160 /usr/lib/gcc/arm-none-eabi/5.2.0/../../../../arm-none-eabi/lib/libc.a(lib_a-findfp.o)
 .text.__fp_lock
                0x000000000800d8b8        0x8 /usr/lib/gcc/arm-none-eabi/5.2.0/../../../../arm-none-eabi/lib/libc.a(lib_a-findfp.o)
 .text.__sfmoreglue
                0x000000000800d8c0       0x50 /usr/lib/gcc/arm-none-eabi/5.2.0/../../../../arm-none-eabi/lib/libc.a(lib_a-findfp.o)
                0x000000000800d8c0                __sfmoreglue
 .text.__sfp    0x000000000800d910       0xec /usr/lib/gcc/arm-none-eabi/5.2.0/../../../../arm-none-eabi/lib/libc.a(lib_a-findfp.o)
                0x000000000800d910                __sfp
 .text._cleanup
                0x000000000800d9fc       0x24 /usr/lib/gcc/arm-none-eabi/5.2.0/../../../../arm-none-eabi/lib/libc.a(lib_a-findfp.o)
                0x000000000800d9fc                _cleanup
 .text.__sinit  0x000000000800da20       0x10 /usr/lib/gcc/arm-none-eabi/5.2.0/../../../../arm-none-eabi/lib/libc.a(lib_a-findfp.o)
                0x000000000800da20                __sinit
 .text.__sfp_lock_acquire
                0x000000000800da30        0x4 /usr/lib/gcc/arm-none-eabi/5.2.0/../../../../arm-none-eabi/lib/libc.a(lib_a-findfp.o)
                0x000000000800da30                __sfp_lock_acquire
 .text.__sfp_lock_release
                0x000000000800da34        0x4 /usr/lib/gcc/arm-none-eabi/5.2.0/../../../../arm-none-eabi/lib/libc.a(lib_a-findfp.o)
                0x000000000800da34                __sfp_lock_release
 .text.__sinit_lock_acquire
                0x000000000800da38        0x4 /usr/lib/gcc/arm-none-eabi/5.2.0/../../../../arm-none-eabi/lib/libc.a(lib_a-findfp.o)
                0x000000000800da38                __sinit_lock_acquire
 .text.__sinit_lock_release
                0x000000000800da3c        0x4 /usr/lib/gcc/arm-none-eabi/5.2.0/../../../../arm-none-eabi/lib/libc.a(lib_a-findfp.o)
                0x000000000800da3c                __sinit_lock_release
 .text.__fp_lock_all
                0x000000000800da40       0x24 /usr/lib/gcc/arm-none-eabi/5.2.0/../../../../arm-none-eabi/lib/libc.a(lib_a-findfp.o)
                0x000000000800da40                __fp_lock_all
 .text.__fp_unlock_all
                0x000000000800da64       0x24 /usr/lib/gcc/arm-none-eabi/5.2.0/../../../../arm-none-eabi/lib/libc.a(lib_a-findfp.o)
                0x000000000800da64                __fp_unlock_all
 .text          0x000000000800da88        0x0 /usr/lib/gcc/arm-none-eabi/5.2.0/../../../../arm-none-eabi/lib/libc.a(lib_a-fwalk.o)
 .text._fwalk   0x000000000800da88       0x84 /usr/lib/gcc/arm-none-eabi/5.2.0/../../../../arm-none-eabi/lib/libc.a(lib_a-fwalk.o)
                0x000000000800da88                _fwalk
 .text._fwalk_reent
                0x000000000800db0c       0x8c /usr/lib/gcc/arm-none-eabi/5.2.0/../../../../arm-none-eabi/lib/libc.a(lib_a-fwalk.o)
                0x000000000800db0c                _fwalk_reent
 .text          0x000000000800db98        0x0 /usr/lib/gcc/arm-none-eabi/5.2.0/../../../../arm-none-eabi/lib/libc.a(lib_a-locale.o)
 .text._setlocale_r
                0x000000000800db98       0x74 /usr/lib/gcc/arm-none-eabi/5.2.0/../../../../arm-none-eabi/lib/libc.a(lib_a-locale.o)
                0x000000000800db98                _setlocale_r
 .text.__locale_charset
                0x000000000800dc0c        0xc /usr/lib/gcc/arm-none-eabi/5.2.0/../../../../arm-none-eabi/lib/libc.a(lib_a-locale.o)
                0x000000000800dc0c                __locale_charset
 .text.__locale_mb_cur_max
                0x000000000800dc18       0x10 /usr/lib/gcc/arm-none-eabi/5.2.0/../../../../arm-none-eabi/lib/libc.a(lib_a-locale.o)
                0x000000000800dc18                __locale_mb_cur_max
 .text.__locale_msgcharset
                0x000000000800dc28        0xc /usr/lib/gcc/arm-none-eabi/5.2.0/../../../../arm-none-eabi/lib/libc.a(lib_a-locale.o)
                0x000000000800dc28                __locale_msgcharset
 .text.__locale_cjk_lang
                0x000000000800dc34        0x8 /usr/lib/gcc/arm-none-eabi/5.2.0/../../../../arm-none-eabi/lib/libc.a(lib_a-locale.o)
                0x000000000800dc34                __locale_cjk_lang
 .text._localeconv_r
                0x000000000800dc3c        0xc /usr/lib/gcc/arm-none-eabi/5.2.0/../../../../arm-none-eabi/lib/libc.a(lib_a-locale.o)
                0x000000000800dc3c                _localeconv_r
 .text.setlocale
                0x000000000800dc48       0x18 /usr/lib/gcc/arm-none-eabi/5.2.0/../../../../arm-none-eabi/lib/libc.a(lib_a-locale.o)
                0x000000000800dc48                setlocale
 .text.localeconv
                0x000000000800dc60        0xc /usr/lib/gcc/arm-none-eabi/5.2.0/../../../../arm-none-eabi/lib/libc.a(lib_a-locale.o)
                0x000000000800dc60                localeconv
 .text          0x000000000800dc6c        0x0 /usr/lib/gcc/arm-none-eabi/5.2.0/../../../../arm-none-eabi/lib/libc.a(lib_a-makebuf.o)
 .text.__smakebuf_r
                0x000000000800dc6c      0x168 /usr/lib/gcc/arm-none-eabi/5.2.0/../../../../arm-none-eabi/lib/libc.a(lib_a-makebuf.o)
                0x000000000800dc6c                __smakebuf_r
 .text          0x000000000800ddd4        0x0 /usr/lib/gcc/arm-none-eabi/5.2.0/../../../../arm-none-eabi/lib/libc.a(lib_a-mprec.o)
 .text._Balloc  0x000000000800ddd4       0x90 /usr/lib/gcc/arm-none-eabi/5.2.0/../../../../arm-none-eabi/lib/libc.a(lib_a-mprec.o)
                0x000000000800ddd4                _Balloc
 .text._Bfree   0x000000000800de64       0x1c /usr/lib/gcc/arm-none-eabi/5.2.0/../../../../arm-none-eabi/lib/libc.a(lib_a-mprec.o)
                0x000000000800de64                _Bfree
 .text.__multadd
                0x000000000800de80       0xdc /usr/lib/gcc/arm-none-eabi/5.2.0/../../../../arm-none-eabi/lib/libc.a(lib_a-mprec.o)
                0x000000000800de80                __multadd
 .text.__s2b    0x000000000800df5c       0xe8 /usr/lib/gcc/arm-none-eabi/5.2.0/../../../../arm-none-eabi/lib/libc.a(lib_a-mprec.o)
                0x000000000800df5c                __s2b
 .text.__hi0bits
                0x000000000800e044       0x5c /usr/lib/gcc/arm-none-eabi/5.2.0/../../../../arm-none-eabi/lib/libc.a(lib_a-mprec.o)
                0x000000000800e044                __hi0bits
 .text.__lo0bits
                0x000000000800e0a0       0x94 /usr/lib/gcc/arm-none-eabi/5.2.0/../../../../arm-none-eabi/lib/libc.a(lib_a-mprec.o)
                0x000000000800e0a0                __lo0bits
 .text.__i2b    0x000000000800e134       0x24 /usr/lib/gcc/arm-none-eabi/5.2.0/../../../../arm-none-eabi/lib/libc.a(lib_a-mprec.o)
                0x000000000800e134                __i2b
 .text.__multiply
                0x000000000800e158      0x1f0 /usr/lib/gcc/arm-none-eabi/5.2.0/../../../../arm-none-eabi/lib/libc.a(lib_a-mprec.o)
                0x000000000800e158                __multiply
 .text.__pow5mult
                0x000000000800e348      0x104 /usr/lib/gcc/arm-none-eabi/5.2.0/../../../../arm-none-eabi/lib/libc.a(lib_a-mprec.o)
                0x000000000800e348                __pow5mult
 .text.__lshift
                0x000000000800e44c       0xf4 /usr/lib/gcc/arm-none-eabi/5.2.0/../../../../arm-none-eabi/lib/libc.a(lib_a-mprec.o)
                0x000000000800e44c                __lshift
 .text.__mcmp   0x000000000800e540       0x64 /usr/lib/gcc/arm-none-eabi/5.2.0/../../../../arm-none-eabi/lib/libc.a(lib_a-mprec.o)
                0x000000000800e540                __mcmp
 .text.__mdiff  0x000000000800e5a4      0x1b0 /usr/lib/gcc/arm-none-eabi/5.2.0/../../../../arm-none-eabi/lib/libc.a(lib_a-mprec.o)
                0x000000000800e5a4                __mdiff
 .text.__ulp    0x000000000800e754       0x68 /usr/lib/gcc/arm-none-eabi/5.2.0/../../../../arm-none-eabi/lib/libc.a(lib_a-mprec.o)
                0x000000000800e754                __ulp
 .text.__b2d    0x000000000800e7bc       0xf8 /usr/lib/gcc/arm-none-eabi/5.2.0/../../../../arm-none-eabi/lib/libc.a(lib_a-mprec.o)
                0x000000000800e7bc                __b2d
 .text.__d2b    0x000000000800e8b4      0x10c /usr/lib/gcc/arm-none-eabi/5.2.0/../../../../arm-none-eabi/lib/libc.a(lib_a-mprec.o)
                0x000000000800e8b4                __d2b
 .text.__ratio  0x000000000800e9c0       0x98 /usr/lib/gcc/arm-none-eabi/5.2.0/../../../../arm-none-eabi/lib/libc.a(lib_a-mprec.o)
                0x000000000800e9c0                __ratio
 .text._mprec_log10
                0x000000000800ea58       0x54 /usr/lib/gcc/arm-none-eabi/5.2.0/../../../../arm-none-eabi/lib/libc.a(lib_a-mprec.o)
                0x000000000800ea58                _mprec_log10
 .text.__copybits
                0x000000000800eaac       0x70 /usr/lib/gcc/arm-none-eabi/5.2.0/../../../../arm-none-eabi/lib/libc.a(lib_a-mprec.o)
                0x000000000800eaac                __copybits
 .text.__any_on
                0x000000000800eb1c       0x80 /usr/lib/gcc/arm-none-eabi/5.2.0/../../../../arm-none-eabi/lib/libc.a(lib_a-mprec.o)
                0x000000000800eb1c                __any_on
 .text          0x000000000800eb9c        0x0 /usr/lib/gcc/arm-none-eabi/5.2.0/../../../../arm-none-eabi/lib/libc.a(lib_a-s_fpclassify.o)
 .text.__fpclassifyd
                0x000000000800eb9c       0x6c /usr/lib/gcc/arm-none-eabi/5.2.0/../../../../arm-none-eabi/lib/libc.a(lib_a-s_fpclassify.o)
                0x000000000800eb9c                __fpclassifyd
 .text          0x000000000800ec08        0x0 /usr/lib/gcc/arm-none-eabi/5.2.0/../../../../arm-none-eabi/lib/libc.a(lib_a-stdio.o)
 .text.__sread  0x000000000800ec08       0x34 /usr/lib/gcc/arm-none-eabi/5.2.0/../../../../arm-none-eabi/lib/libc.a(lib_a-stdio.o)
                0x000000000800ec08                __sread
 .text.__seofread
                0x000000000800ec3c        0x8 /usr/lib/gcc/arm-none-eabi/5.2.0/../../../../arm-none-eabi/lib/libc.a(lib_a-stdio.o)
                0x000000000800ec3c                __seofread
 .text.__swrite
                0x000000000800ec44       0x58 /usr/lib/gcc/arm-none-eabi/5.2.0/../../../../arm-none-eabi/lib/libc.a(lib_a-stdio.o)
                0x000000000800ec44                __swrite
 .text.__sseek  0x000000000800ec9c       0x30 /usr/lib/gcc/arm-none-eabi/5.2.0/../../../../arm-none-eabi/lib/libc.a(lib_a-stdio.o)
                0x000000000800ec9c                __sseek
 .text.__sclose
                0x000000000800eccc       0x14 /usr/lib/gcc/arm-none-eabi/5.2.0/../../../../arm-none-eabi/lib/libc.a(lib_a-stdio.o)
                0x000000000800eccc                __sclose
 .text          0x000000000800ece0        0x0 /usr/lib/gcc/arm-none-eabi/5.2.0/../../../../arm-none-eabi/lib/libc.a(lib_a-svfiprintf.o)
 .text.__ssprint_r
                0x000000000800ece0      0x1b0 /usr/lib/gcc/arm-none-eabi/5.2.0/../../../../arm-none-eabi/lib/libc.a(lib_a-svfiprintf.o)
                0x000000000800ece0                __ssprint_r
 .text._svfiprintf_r
                0x000000000800ee90     0x12b0 /usr/lib/gcc/arm-none-eabi/5.2.0/../../../../arm-none-eabi/lib/libc.a(lib_a-svfiprintf.o)
                0x000000000800ee90                _svfiprintf_r
 .text          0x0000000008010140        0x0 /usr/lib/gcc/arm-none-eabi/5.2.0/../../../../arm-none-eabi/lib/libc.a(lib_a-callocr.o)
 .text._calloc_r
                0x0000000008010140       0x98 /usr/lib/gcc/arm-none-eabi/5.2.0/../../../../arm-none-eabi/lib/libc.a(lib_a-callocr.o)
                0x0000000008010140                _calloc_r
 .text          0x00000000080101d8        0x0 /usr/lib/gcc/arm-none-eabi/5.2.0/../../../../arm-none-eabi/lib/libc.a(lib_a-closer.o)
 .text._close_r
                0x00000000080101d8       0x3c /usr/lib/gcc/arm-none-eabi/5.2.0/../../../../arm-none-eabi/lib/libc.a(lib_a-closer.o)
                0x00000000080101d8                _close_r
 .text          0x0000000008010214        0x0 /usr/lib/gcc/arm-none-eabi/5.2.0/../../../../arm-none-eabi/lib/libc.a(lib_a-fclose.o)
 .text._fclose_r
                0x0000000008010214       0xfc /usr/lib/gcc/arm-none-eabi/5.2.0/../../../../arm-none-eabi/lib/libc.a(lib_a-fclose.o)
                0x0000000008010214                _fclose_r
 .text.fclose   0x0000000008010310       0x14 /usr/lib/gcc/arm-none-eabi/5.2.0/../../../../arm-none-eabi/lib/libc.a(lib_a-fclose.o)
                0x0000000008010310                fclose
 .text          0x0000000008010324        0x0 /usr/lib/gcc/arm-none-eabi/5.2.0/../../../../arm-none-eabi/lib/libc.a(lib_a-fstatr.o)
 .text._fstat_r
                0x0000000008010324       0x44 /usr/lib/gcc/arm-none-eabi/5.2.0/../../../../arm-none-eabi/lib/libc.a(lib_a-fstatr.o)
                0x0000000008010324                _fstat_r
 .text          0x0000000008010368        0x0 /usr/lib/gcc/arm-none-eabi/5.2.0/../../../../arm-none-eabi/lib/libc.a(lib_a-isattyr.o)
 .text._isatty_r
                0x0000000008010368       0x3c /usr/lib/gcc/arm-none-eabi/5.2.0/../../../../arm-none-eabi/lib/libc.a(lib_a-isattyr.o)
                0x0000000008010368                _isatty_r
 .text          0x00000000080103a4        0x0 /usr/lib/gcc/arm-none-eabi/5.2.0/../../../../arm-none-eabi/lib/libc.a(lib_a-lseekr.o)
 .text._lseek_r
                0x00000000080103a4       0x48 /usr/lib/gcc/arm-none-eabi/5.2.0/../../../../arm-none-eabi/lib/libc.a(lib_a-lseekr.o)
                0x00000000080103a4                _lseek_r
 .text          0x00000000080103ec        0x0 /usr/lib/gcc/arm-none-eabi/5.2.0/../../../../arm-none-eabi/lib/libc.a(lib_a-readr.o)
 .text._read_r  0x00000000080103ec       0x48 /usr/lib/gcc/arm-none-eabi/5.2.0/../../../../arm-none-eabi/lib/libc.a(lib_a-readr.o)
                0x00000000080103ec                _read_r
 .text          0x0000000008010434      0x140 ./maxmod/lib/libmm.a(mm_main.o)
                0x0000000008010434                mpp_call_r7
                0x0000000008010436                mpp_call_r1
                0x0000000008010438                mpp_call_r2
                0x000000000801043a                mpp_call_r3
                0x000000000801043c                mmSetEventHandler
                0x0000000008010444                mmInit
                0x0000000008010498                mmSetVBlankHandler
                0x000000000801049e                mmFrame
 .text          0x0000000008010574     0x155c ./maxmod/lib/libmm.a(mm_mas.o)
                0x00000000080105e8                mmStart
                0x0000000008010608                mmJingle
                0x000000000801060e                mmPlayModule
                0x00000000080106d8                mmPause
                0x00000000080106f4                mmResume
                0x0000000008010704                mmActive
                0x000000000801070a                mmActiveSub
                0x0000000008010710                mmSetModuleVolume
                0x0000000008010720                mmSetJingleVolume
                0x000000000801075c                mmPosition
                0x0000000008010776                mmSetModuleTempo
                0x00000000080107a8                mmSetModulePitch
                0x00000000080107e8                mmStop
                0x00000000080108ae                mppUpdateSub
                0x0000000008010a0a                mpp_Process_VolumeCommand
                0x0000000008010c42                mpp_Process_Effect
                0x0000000008011390                ST3_FREQTABLE
                0x00000000080117b0                IT_PitchTable
 .text          0x0000000008011ad0       0x54 ./maxmod/lib/libmm.a(mm_init_default.o)
                0x0000000008011ad0                mmInitDefault
 .text          0x0000000008011b24      0x1e0 ./maxmod/lib/libmm.a(mm_mixer_gba.o)
                0x0000000008011b24                mmMixerSetSource
                0x0000000008011b38                mmMixerSetRead
                0x0000000008011b46                mmMixerSetFreq
                0x0000000008011b56                mmMixerMulFreq
                0x0000000008011b6a                mmMixerStopChannel
                0x0000000008011b7c                mmMixerChannelActive
                0x0000000008011b8e                mmMixerSetVolume
                0x0000000008011b9c                mmMixerSetPan
                0x0000000008011baa                mmMixerInit
 .text          0x0000000008011d04      0x300 ./maxmod/lib/libmm.a(mm_effect.o)
                0x0000000008011d04                mmResetEffects
                0x0000000008011d30                mmEffect
                0x0000000008011d46                mmEffectEx
                0x0000000008011e64                mmEffectVolume
                0x0000000008011e80                mmEffectPanning
                0x0000000008011e94                mmEffectRate
                0x0000000008011ea8                mmEffectCancel
                0x0000000008011ee2                mmEffectRelease
                0x0000000008011f08                mmEffectScaleRate
                0x0000000008011f1c                mmSetEffectsVolume
                0x0000000008011f2a                mmEffectCancelAll
                0x0000000008011f6a                mmUpdateEffects
 .text          0x0000000008012004        0x0 ./maxmod/lib/libmm.a(mm_mas_arm.o)
 .text          0x0000000008012004      0x114 /usr/lib/gcc/arm-none-eabi/5.2.0/libgcc.a(_udivsi3.o)
                0x0000000008012004                __udivsi3
                0x0000000008012004                __aeabi_uidiv
                0x00000000080120f8                __aeabi_uidivmod
 .text          0x0000000008012118      0x148 /usr/lib/gcc/arm-none-eabi/5.2.0/libgcc.a(_divsi3.o)
                0x0000000008012118                __aeabi_idiv
                0x0000000008012118                __divsi3
                0x0000000008012240                __aeabi_idivmod
 .text          0x0000000008012260        0x4 /usr/lib/gcc/arm-none-eabi/5.2.0/libgcc.a(_dvmd_tls.o)
                0x0000000008012260                __aeabi_ldiv0
                0x0000000008012260                __aeabi_idiv0
 .text          0x0000000008012264       0x3c /usr/lib/gcc/arm-none-eabi/5.2.0/libgcc.a(_call_via_rX.o)
                0x0000000008012264                _call_via_r0
                0x0000000008012268                _call_via_r1
                0x000000000801226c                _call_via_r2
                0x0000000008012270                _call_via_r3
                0x0000000008012274                _call_via_r4
                0x0000000008012278                _call_via_r5
                0x000000000801227c                _call_via_r6
                0x0000000008012280                _call_via_r7
                0x0000000008012284                _call_via_r8
                0x0000000008012288                _call_via_r9
                0x000000000801228c                _call_via_sl
                0x0000000008012290                _call_via_fp
                0x0000000008012294                _call_via_ip
                0x0000000008012298                _call_via_sp
                0x000000000801229c                _call_via_lr
 .text          0x00000000080122a0      0x41c /usr/lib/gcc/arm-none-eabi/5.2.0/libgcc.a(_arm_addsubdf3.o)
                0x00000000080122a0                __aeabi_drsub
                0x00000000080122a8                __aeabi_dsub
                0x00000000080122a8                __subdf3
                0x00000000080122ac                __adddf3
                0x00000000080122ac                __aeabi_dadd
                0x00000000080125bc                __aeabi_ui2d
                0x00000000080125bc                __floatunsidf
                0x00000000080125e0                __floatsidf
                0x00000000080125e0                __aeabi_i2d
                0x0000000008012608                __extendsfdf2
                0x0000000008012608                __aeabi_f2d
                0x0000000008012648                __aeabi_ul2d
                0x0000000008012648                __floatundidf
                0x000000000801265c                __floatdidf
                0x000000000801265c                __aeabi_l2d
 .text          0x00000000080126bc      0x49c /usr/lib/gcc/arm-none-eabi/5.2.0/libgcc.a(_arm_muldivdf3.o)
                0x00000000080126bc                __aeabi_dmul
                0x00000000080126bc                __muldf3
                0x000000000801294c                __aeabi_ddiv
                0x000000000801294c                __divdf3
 .text          0x0000000008012b58      0x144 /usr/lib/gcc/arm-none-eabi/5.2.0/libgcc.a(_arm_cmpdf2.o)
                0x0000000008012b58                __gtdf2
                0x0000000008012b58                __gedf2
                0x0000000008012b60                __ltdf2
                0x0000000008012b60                __ledf2
                0x0000000008012b68                __cmpdf2
                0x0000000008012b68                __eqdf2
                0x0000000008012b68                __nedf2
                0x0000000008012bf0                __aeabi_cdrcmple
                0x0000000008012c0c                __aeabi_cdcmple
                0x0000000008012c0c                __aeabi_cdcmpeq
                0x0000000008012c24                __aeabi_dcmpeq
                0x0000000008012c3c                __aeabi_dcmplt
                0x0000000008012c54                __aeabi_dcmple
                0x0000000008012c6c                __aeabi_dcmpge
                0x0000000008012c84                __aeabi_dcmpgt
 .text          0x0000000008012c9c       0x5c /usr/lib/gcc/arm-none-eabi/5.2.0/libgcc.a(_arm_fixdfsi.o)
                0x0000000008012c9c                __fixdfsi
                0x0000000008012c9c                __aeabi_d2iz
 .text          0x0000000008012cf8       0x3c /usr/lib/gcc/arm-none-eabi/5.2.0/libgcc.a(_aeabi_uldivmod.o)
                0x0000000008012cf8                __aeabi_uldivmod
 .text          0x0000000008012d34        0x0 /usr/lib/gcc/arm-none-eabi/5.2.0/libgcc.a(_udivmoddi4.o)
 .text.__udivmoddi4
                0x0000000008012d34      0x11c /usr/lib/gcc/arm-none-eabi/5.2.0/libgcc.a(_udivmoddi4.o)
                0x0000000008012d34                __udivmoddi4
 .text          0x0000000008012e50       0x1c /usr/lib/gcc/arm-none-eabi/5.2.0/libgcc.a(_lshrdi3.o)
                0x0000000008012e50                __aeabi_llsr
                0x0000000008012e50                __lshrdi3
 .text          0x0000000008012e6c       0x1c /usr/lib/gcc/arm-none-eabi/5.2.0/libgcc.a(_ashldi3.o)
                0x0000000008012e6c                __ashldi3
                0x0000000008012e6c                __aeabi_llsl
 .text          0x0000000008012e88       0x28 /usr/lib/gcc/arm-none-eabi/5.2.0/libgcc.a(_clzdi2.o)
                0x0000000008012e88                __clzdi2
 .text          0x0000000008012eb0       0x48 /usr/lib/gcc/arm-none-eabi/5.2.0/libgcc.a(_clzsi2.o)
                0x0000000008012eb0                __clzsi2
 .text          0x0000000008012ef8        0x0 /usr/lib/gcc/arm-none-eabi/5.2.0/../../../../arm-none-eabi/lib/libnosys.a(close.o)
 .text._close   0x0000000008012ef8       0x18 /usr/lib/gcc/arm-none-eabi/5.2.0/../../../../arm-none-eabi/lib/libnosys.a(close.o)
                0x0000000008012ef8                _close
 .text          0x0000000008012f10        0x0 /usr/lib/gcc/arm-none-eabi/5.2.0/../../../../arm-none-eabi/lib/libnosys.a(fstat.o)
 .text._fstat   0x0000000008012f10       0x18 /usr/lib/gcc/arm-none-eabi/5.2.0/../../../../arm-none-eabi/lib/libnosys.a(fstat.o)
                0x0000000008012f10                _fstat
 .text          0x0000000008012f28        0x0 /usr/lib/gcc/arm-none-eabi/5.2.0/../../../../arm-none-eabi/lib/libnosys.a(getpid.o)
 .text._getpid  0x0000000008012f28       0x18 /usr/lib/gcc/arm-none-eabi/5.2.0/../../../../arm-none-eabi/lib/libnosys.a(getpid.o)
                0x0000000008012f28                _getpid
 .text          0x0000000008012f40        0x0 /usr/lib/gcc/arm-none-eabi/5.2.0/../../../../arm-none-eabi/lib/libnosys.a(isatty.o)
 .text._isatty  0x0000000008012f40       0x18 /usr/lib/gcc/arm-none-eabi/5.2.0/../../../../arm-none-eabi/lib/libnosys.a(isatty.o)
                0x0000000008012f40                _isatty
 .text          0x0000000008012f58        0x0 /usr/lib/gcc/arm-none-eabi/5.2.0/../../../../arm-none-eabi/lib/libnosys.a(kill.o)
 .text._kill    0x0000000008012f58       0x18 /usr/lib/gcc/arm-none-eabi/5.2.0/../../../../arm-none-eabi/lib/libnosys.a(kill.o)
                0x0000000008012f58                _kill
 .text          0x0000000008012f70        0x0 /usr/lib/gcc/arm-none-eabi/5.2.0/../../../../arm-none-eabi/lib/libnosys.a(lseek.o)
 .text._lseek   0x0000000008012f70       0x18 /usr/lib/gcc/arm-none-eabi/5.2.0/../../../../arm-none-eabi/lib/libnosys.a(lseek.o)
                0x0000000008012f70                _lseek
 .text          0x0000000008012f88        0x0 /usr/lib/gcc/arm-none-eabi/5.2.0/../../../../arm-none-eabi/lib/libnosys.a(read.o)
 .text._read    0x0000000008012f88       0x18 /usr/lib/gcc/arm-none-eabi/5.2.0/../../../../arm-none-eabi/lib/libnosys.a(read.o)
                0x0000000008012f88                _read
 .text          0x0000000008012fa0        0x0 /usr/lib/gcc/arm-none-eabi/5.2.0/../../../../arm-none-eabi/lib/libnosys.a(sbrk.o)
 .text._sbrk    0x0000000008012fa0       0x2c /usr/lib/gcc/arm-none-eabi/5.2.0/../../../../arm-none-eabi/lib/libnosys.a(sbrk.o)
                0x0000000008012fa0                _sbrk
 .text          0x0000000008012fcc        0x0 /usr/lib/gcc/arm-none-eabi/5.2.0/../../../../arm-none-eabi/lib/libnosys.a(write.o)
 .text._write   0x0000000008012fcc       0x18 /usr/lib/gcc/arm-none-eabi/5.2.0/../../../../arm-none-eabi/lib/libnosys.a(write.o)
                0x0000000008012fcc                _write
 .text          0x0000000008012fe4        0x0 /usr/lib/gcc/arm-none-eabi/5.2.0/../../../../arm-none-eabi/lib/libnosys.a(_exit.o)
 .text._exit    0x0000000008012fe4        0x4 /usr/lib/gcc/arm-none-eabi/5.2.0/../../../../arm-none-eabi/lib/libnosys.a(_exit.o)
                0x0000000008012fe4                _exit
 .text          0x0000000008012fe8        0x0 /usr/lib/gcc/arm-none-eabi/5.2.0/crtend.o
 .text          0x0000000008012fe8        0x0 /usr/lib/gcc/arm-none-eabi/5.2.0/crtn.o
 *(.plt)
 *(.gnu_warning)
 *(.glue_7t)
 .glue_7t       0x0000000008012fe8        0x0 linker stubs
 *(.glue_7)
 .glue_7        0x0000000008012fe8        0x0 linker stubs
                0x0000000008012fe8                . = ALIGN (0x4)
 *crtbegin.o(.ctors)
 *(EXCLUDE_FILE(*crtend.o) .ctors)
 *(SORT(.ctors.*))
 *crtend.o(.ctors)
 *ctrbegin.o(.dtors)
 *(EXCLUDE_FILE(*crtend.o) .dtors)
 *(SORT(.dtors.*))
 *ctrend.o(.dtors)
 *(.rodata .rodata.* .gnu.linkonce.r.*)
 .rodata        0x0000000008012fe8       0x38 objs/air_block_stuff_class.thumb.o
                0x0000000008012fe8                typeinfo name for air_block_stuff
                0x0000000008012ffc                typeinfo for air_block_stuff
                0x0000000008013008                vtable for air_block_stuff
 .rodata        0x0000000008013020    0x403f8 objs/asm_init.o
                0x0000000008013020                div_table
                0x0000000008053018                sin_table
 .rodata        0x0000000008053418       0x34 objs/block_base_stuff_class.thumb.o
                0x0000000008053418                typeinfo name for block_base_stuff
                0x000000000805342c                typeinfo for block_base_stuff
                0x0000000008053434                vtable for block_base_stuff
 .rodata._ZTS24grass_single_block_stuff
                0x000000000805344c       0x1c objs/block_stuff.thumb.o
                0x000000000805344c                typeinfo name for grass_single_block_stuff
 .rodata._ZTI24grass_single_block_stuff
                0x0000000008053468        0xc objs/block_stuff.thumb.o
                0x0000000008053468                typeinfo for grass_single_block_stuff
 .rodata._ZTS26grass_top_left_block_stuff
                0x0000000008053474       0x20 objs/block_stuff.thumb.o
                0x0000000008053474                typeinfo name for grass_top_left_block_stuff
 .rodata._ZTI26grass_top_left_block_stuff
                0x0000000008053494        0xc objs/block_stuff.thumb.o
                0x0000000008053494                typeinfo for grass_top_left_block_stuff
 .rodata._ZTS28grass_top_middle_block_stuff
                0x00000000080534a0       0x20 objs/block_stuff.thumb.o
                0x00000000080534a0                typeinfo name for grass_top_middle_block_stuff
 .rodata._ZTI28grass_top_middle_block_stuff
                0x00000000080534c0        0xc objs/block_stuff.thumb.o
                0x00000000080534c0                typeinfo for grass_top_middle_block_stuff
 .rodata._ZTS27grass_top_right_block_stuff
                0x00000000080534cc       0x20 objs/block_stuff.thumb.o
                0x00000000080534cc                typeinfo name for grass_top_right_block_stuff
 .rodata._ZTI27grass_top_right_block_stuff
                0x00000000080534ec        0xc objs/block_stuff.thumb.o
                0x00000000080534ec                typeinfo for grass_top_right_block_stuff
 .rodata._ZTS28dirt_middle_left_block_stuff
                0x00000000080534f8       0x20 objs/block_stuff.thumb.o
                0x00000000080534f8                typeinfo name for dirt_middle_left_block_stuff
 .rodata._ZTI28dirt_middle_left_block_stuff
                0x0000000008053518        0xc objs/block_stuff.thumb.o
                0x0000000008053518                typeinfo for dirt_middle_left_block_stuff
 .rodata._ZTS30dirt_middle_middle_block_stuff
                0x0000000008053524       0x24 objs/block_stuff.thumb.o
                0x0000000008053524                typeinfo name for dirt_middle_middle_block_stuff
 .rodata._ZTI30dirt_middle_middle_block_stuff
                0x0000000008053548        0xc objs/block_stuff.thumb.o
                0x0000000008053548                typeinfo for dirt_middle_middle_block_stuff
 .rodata._ZTS29dirt_middle_right_block_stuff
                0x0000000008053554       0x20 objs/block_stuff.thumb.o
                0x0000000008053554                typeinfo name for dirt_middle_right_block_stuff
 .rodata._ZTI29dirt_middle_right_block_stuff
                0x0000000008053574        0xc objs/block_stuff.thumb.o
                0x0000000008053574                typeinfo for dirt_middle_right_block_stuff
 .rodata._ZTS28dirt_bottom_left_block_stuff
                0x0000000008053580       0x20 objs/block_stuff.thumb.o
                0x0000000008053580                typeinfo name for dirt_bottom_left_block_stuff
 .rodata._ZTI28dirt_bottom_left_block_stuff
                0x00000000080535a0        0xc objs/block_stuff.thumb.o
                0x00000000080535a0                typeinfo for dirt_bottom_left_block_stuff
 .rodata._ZTS30dirt_bottom_middle_block_stuff
                0x00000000080535ac       0x24 objs/block_stuff.thumb.o
                0x00000000080535ac                typeinfo name for dirt_bottom_middle_block_stuff
 .rodata._ZTI30dirt_bottom_middle_block_stuff
                0x00000000080535d0        0xc objs/block_stuff.thumb.o
                0x00000000080535d0                typeinfo for dirt_bottom_middle_block_stuff
 .rodata._ZTS29dirt_bottom_right_block_stuff
                0x00000000080535dc       0x20 objs/block_stuff.thumb.o
                0x00000000080535dc                typeinfo name for dirt_bottom_right_block_stuff
 .rodata._ZTI29dirt_bottom_right_block_stuff
                0x00000000080535fc        0xc objs/block_stuff.thumb.o
                0x00000000080535fc                typeinfo for dirt_bottom_right_block_stuff
 .rodata._ZTS31grass_slope_p16_p16_block_stuff
                0x0000000008053608       0x24 objs/block_stuff.thumb.o
                0x0000000008053608                typeinfo name for grass_slope_p16_p16_block_stuff
 .rodata._ZTI31grass_slope_p16_p16_block_stuff
                0x000000000805362c        0xc objs/block_stuff.thumb.o
                0x000000000805362c                typeinfo for grass_slope_p16_p16_block_stuff
 .rodata._ZTS31grass_slope_n16_p16_block_stuff
                0x0000000008053638       0x24 objs/block_stuff.thumb.o
                0x0000000008053638                typeinfo name for grass_slope_n16_p16_block_stuff
 .rodata._ZTI31grass_slope_n16_p16_block_stuff
                0x000000000805365c        0xc objs/block_stuff.thumb.o
                0x000000000805365c                typeinfo for grass_slope_n16_p16_block_stuff
 .rodata._ZTS37grass_slope_p32_p16_short_block_stuff
                0x0000000008053668       0x28 objs/block_stuff.thumb.o
                0x0000000008053668                typeinfo name for grass_slope_p32_p16_short_block_stuff
 .rodata._ZTI37grass_slope_p32_p16_short_block_stuff
                0x0000000008053690        0xc objs/block_stuff.thumb.o
                0x0000000008053690                typeinfo for grass_slope_p32_p16_short_block_stuff
 .rodata._ZTS36grass_slope_p32_p16_tall_block_stuff
                0x000000000805369c       0x28 objs/block_stuff.thumb.o
                0x000000000805369c                typeinfo name for grass_slope_p32_p16_tall_block_stuff
 .rodata._ZTI36grass_slope_p32_p16_tall_block_stuff
                0x00000000080536c4        0xc objs/block_stuff.thumb.o
                0x00000000080536c4                typeinfo for grass_slope_p32_p16_tall_block_stuff
 .rodata._ZTS36grass_slope_n32_p16_tall_block_stuff
                0x00000000080536d0       0x28 objs/block_stuff.thumb.o
                0x00000000080536d0                typeinfo name for grass_slope_n32_p16_tall_block_stuff
 .rodata._ZTI36grass_slope_n32_p16_tall_block_stuff
                0x00000000080536f8        0xc objs/block_stuff.thumb.o
                0x00000000080536f8                typeinfo for grass_slope_n32_p16_tall_block_stuff
 .rodata._ZTS37grass_slope_n32_p16_short_block_stuff
                0x0000000008053704       0x28 objs/block_stuff.thumb.o
                0x0000000008053704                typeinfo name for grass_slope_n32_p16_short_block_stuff
 .rodata._ZTI37grass_slope_n32_p16_short_block_stuff
                0x000000000805372c        0xc objs/block_stuff.thumb.o
                0x000000000805372c                typeinfo for grass_slope_n32_p16_short_block_stuff
 .rodata._ZTS31grass_in_slope_left_block_stuff
                0x0000000008053738       0x24 objs/block_stuff.thumb.o
                0x0000000008053738                typeinfo name for grass_in_slope_left_block_stuff
 .rodata._ZTI31grass_in_slope_left_block_stuff
                0x000000000805375c        0xc objs/block_stuff.thumb.o
                0x000000000805375c                typeinfo for grass_in_slope_left_block_stuff
 .rodata._ZTS32grass_in_slope_right_block_stuff
                0x0000000008053768       0x24 objs/block_stuff.thumb.o
                0x0000000008053768                typeinfo name for grass_in_slope_right_block_stuff
 .rodata._ZTI32grass_in_slope_right_block_stuff
                0x000000000805378c        0xc objs/block_stuff.thumb.o
                0x000000000805378c                typeinfo for grass_in_slope_right_block_stuff
 .rodata._ZTV24grass_single_block_stuff
                0x0000000008053798       0x18 objs/block_stuff.thumb.o
                0x0000000008053798                vtable for grass_single_block_stuff
 .rodata._ZTV26grass_top_left_block_stuff
                0x00000000080537b0       0x18 objs/block_stuff.thumb.o
                0x00000000080537b0                vtable for grass_top_left_block_stuff
 .rodata._ZTV28grass_top_middle_block_stuff
                0x00000000080537c8       0x18 objs/block_stuff.thumb.o
                0x00000000080537c8                vtable for grass_top_middle_block_stuff
 .rodata._ZTV27grass_top_right_block_stuff
                0x00000000080537e0       0x18 objs/block_stuff.thumb.o
                0x00000000080537e0                vtable for grass_top_right_block_stuff
 .rodata._ZTV28dirt_middle_left_block_stuff
                0x00000000080537f8       0x18 objs/block_stuff.thumb.o
                0x00000000080537f8                vtable for dirt_middle_left_block_stuff
 .rodata._ZTV30dirt_middle_middle_block_stuff
                0x0000000008053810       0x18 objs/block_stuff.thumb.o
                0x0000000008053810                vtable for dirt_middle_middle_block_stuff
 .rodata._ZTV29dirt_middle_right_block_stuff
                0x0000000008053828       0x18 objs/block_stuff.thumb.o
                0x0000000008053828                vtable for dirt_middle_right_block_stuff
 .rodata._ZTV28dirt_bottom_left_block_stuff
                0x0000000008053840       0x18 objs/block_stuff.thumb.o
                0x0000000008053840                vtable for dirt_bottom_left_block_stuff
 .rodata._ZTV30dirt_bottom_middle_block_stuff
                0x0000000008053858       0x18 objs/block_stuff.thumb.o
                0x0000000008053858                vtable for dirt_bottom_middle_block_stuff
 .rodata._ZTV29dirt_bottom_right_block_stuff
                0x0000000008053870       0x18 objs/block_stuff.thumb.o
                0x0000000008053870                vtable for dirt_bottom_right_block_stuff
 .rodata._ZTV31grass_slope_p16_p16_block_stuff
                0x0000000008053888       0x18 objs/block_stuff.thumb.o
                0x0000000008053888                vtable for grass_slope_p16_p16_block_stuff
 .rodata._ZTV31grass_slope_n16_p16_block_stuff
                0x00000000080538a0       0x18 objs/block_stuff.thumb.o
                0x00000000080538a0                vtable for grass_slope_n16_p16_block_stuff
 .rodata._ZTV37grass_slope_p32_p16_short_block_stuff
                0x00000000080538b8       0x18 objs/block_stuff.thumb.o
                0x00000000080538b8                vtable for grass_slope_p32_p16_short_block_stuff
 .rodata._ZTV36grass_slope_p32_p16_tall_block_stuff
                0x00000000080538d0       0x18 objs/block_stuff.thumb.o
                0x00000000080538d0                vtable for grass_slope_p32_p16_tall_block_stuff
 .rodata._ZTV36grass_slope_n32_p16_tall_block_stuff
                0x00000000080538e8       0x18 objs/block_stuff.thumb.o
                0x00000000080538e8                vtable for grass_slope_n32_p16_tall_block_stuff
 .rodata._ZTV37grass_slope_n32_p16_short_block_stuff
                0x0000000008053900       0x18 objs/block_stuff.thumb.o
                0x0000000008053900                vtable for grass_slope_n32_p16_short_block_stuff
 .rodata._ZTV31grass_in_slope_left_block_stuff
                0x0000000008053918       0x18 objs/block_stuff.thumb.o
                0x0000000008053918                vtable for grass_in_slope_left_block_stuff
 .rodata._ZTV32grass_in_slope_right_block_stuff
                0x0000000008053930       0x18 objs/block_stuff.thumb.o
                0x0000000008053930                vtable for grass_in_slope_right_block_stuff
 .rodata        0x0000000008053948        0x8 objs/dma_stuff.thumb.o
 .rodata        0x0000000008053950       0x38 objs/dud_block_stuff_class.thumb.o
                0x0000000008053950                typeinfo name for dud_block_stuff
                0x0000000008053964                typeinfo for dud_block_stuff
                0x0000000008053970                vtable for dud_block_stuff
 .rodata        0x0000000008053988       0x3c objs/exclam_block_stuff_classes.thumb.o
                0x0000000008053988                typeinfo name for exclam_block_stuff
                0x00000000080539a0                typeinfo for exclam_block_stuff
                0x00000000080539ac                vtable for exclam_block_stuff
 .rodata        0x00000000080539c4      0x1b0 objs/eyes_block_stuff_classes.thumb.o
                0x00000000080539c4                typeinfo name for eyes_block_stuff
                0x00000000080539d8                typeinfo for eyes_block_stuff
                0x00000000080539e4                typeinfo name for eyes_block_with_st_waffle_stuff
                0x0000000008053a08                typeinfo for eyes_block_with_st_waffle_stuff
                0x0000000008053a14                typeinfo name for eyes_block_with_st_muffin_stuff
                0x0000000008053a38                typeinfo for eyes_block_with_st_muffin_stuff
                0x0000000008053a44                typeinfo name for eyes_block_with_st_fire_muffin_stuff
                0x0000000008053a6c                typeinfo for eyes_block_with_st_fire_muffin_stuff
                0x0000000008053a78                typeinfo name for eyes_block_with_st_ice_muffin_stuff
                0x0000000008053aa0                typeinfo for eyes_block_with_st_ice_muffin_stuff
                0x0000000008053aac                typeinfo name for eyes_block_with_st_chocolate_muffin_stuff
                0x0000000008053ad8                typeinfo for eyes_block_with_st_chocolate_muffin_stuff
                0x0000000008053ae4                vtable for eyes_block_stuff
                0x0000000008053afc                vtable for eyes_block_with_st_waffle_stuff
                0x0000000008053b14                vtable for eyes_block_with_st_muffin_stuff
                0x0000000008053b2c                vtable for eyes_block_with_st_fire_muffin_stuff
                0x0000000008053b44                vtable for eyes_block_with_st_ice_muffin_stuff
                0x0000000008053b5c                vtable for eyes_block_with_st_chocolate_muffin_stuff
 .rodata        0x0000000008053b74      0x180 objs/grass_and_dirt_block_stuff_classes.thumb.o
                0x0000000008053b74                grass_slope_n32_p16_short_block_stuff::height_mask
                0x0000000008053bb4                grass_slope_n32_p16_tall_block_stuff::height_mask
                0x0000000008053bf4                grass_slope_p32_p16_tall_block_stuff::height_mask
                0x0000000008053c34                grass_slope_p32_p16_short_block_stuff::height_mask
                0x0000000008053c74                grass_slope_n16_p16_block_stuff::height_mask
                0x0000000008053cb4                grass_slope_p16_p16_block_stuff::height_mask
 .rodata        0x0000000008053cf4       0x38 objs/log_block_stuff_class.thumb.o
                0x0000000008053cf4                typeinfo name for log_block_stuff
                0x0000000008053d08                typeinfo for log_block_stuff
                0x0000000008053d14                vtable for log_block_stuff
 .rodata        0x0000000008053d2c       0x18 objs/main.thumb.o
 .rodata        0x0000000008053d44       0x30 objs/oam_entry_classes.thumb.o
 .rodata        0x0000000008053d74       0xc0 objs/player_sprite_stuff_class.thumb.o
                0x0000000008053d74                player_sprite_stuff::frame_slot_to_frame_arr
                0x0000000008053d7c                typeinfo name for player_sprite_stuff
                0x0000000008053d94                typeinfo for player_sprite_stuff
                0x0000000008053da0                vtable for player_sprite_stuff
                0x0000000008053e20                player_sprite_stuff::the_relative_metatile_slot_arr_size
                0x0000000008053e24                player_sprite_stuff::the_relative_metatile_slot_arr
 .rodata        0x0000000008053e34     0x2cb8 objs/practice_17.bin.o
                0x0000000008053e34                practice_17_bin
                0x0000000008056ae8                practice_17_bin_end
                0x0000000008056ae8                practice_17_bin_size
 .rodata        0x0000000008056aec     0x1020 objs/sherwin_gfx.o
                0x0000000008056aec                sherwin_gfxTiles
                0x0000000008057aec                sherwin_gfxPal
 .rodata        0x0000000008057b0c       0x9c objs/sprite_base_stuff_class.thumb.o
                0x0000000008057b0c                typeinfo name for sprite_base_stuff
                0x0000000008057b20                typeinfo for sprite_base_stuff
                0x0000000008057b28                vtable for sprite_base_stuff
 .rodata        0x0000000008057ba8       0x60 objs/sprite_class.thumb.o
 .rodata._ZTS19muffin_sprite_stuff
                0x0000000008057c08       0x18 objs/sprite_type_stuff.thumb.o
                0x0000000008057c08                typeinfo name for muffin_sprite_stuff
 .rodata._ZTI19muffin_sprite_stuff
                0x0000000008057c20        0xc objs/sprite_type_stuff.thumb.o
                0x0000000008057c20                typeinfo for muffin_sprite_stuff
 .rodata._ZTS24fire_muffin_sprite_stuff
                0x0000000008057c2c       0x1c objs/sprite_type_stuff.thumb.o
                0x0000000008057c2c                typeinfo name for fire_muffin_sprite_stuff
 .rodata._ZTI24fire_muffin_sprite_stuff
                0x0000000008057c48        0xc objs/sprite_type_stuff.thumb.o
                0x0000000008057c48                typeinfo for fire_muffin_sprite_stuff
 .rodata._ZTS23ice_muffin_sprite_stuff
                0x0000000008057c54       0x1c objs/sprite_type_stuff.thumb.o
                0x0000000008057c54                typeinfo name for ice_muffin_sprite_stuff
 .rodata._ZTI23ice_muffin_sprite_stuff
                0x0000000008057c70        0xc objs/sprite_type_stuff.thumb.o
                0x0000000008057c70                typeinfo for ice_muffin_sprite_stuff
 .rodata._ZTS29chocolate_muffin_sprite_stuff
                0x0000000008057c7c       0x20 objs/sprite_type_stuff.thumb.o
                0x0000000008057c7c                typeinfo name for chocolate_muffin_sprite_stuff
 .rodata._ZTI29chocolate_muffin_sprite_stuff
                0x0000000008057c9c        0xc objs/sprite_type_stuff.thumb.o
                0x0000000008057c9c                typeinfo for chocolate_muffin_sprite_stuff
 .rodata._ZTS23warp_block_sprite_stuff
                0x0000000008057ca8       0x1c objs/sprite_type_stuff.thumb.o
                0x0000000008057ca8                typeinfo name for warp_block_sprite_stuff
 .rodata._ZTI23warp_block_sprite_stuff
                0x0000000008057cc4        0xc objs/sprite_type_stuff.thumb.o
                0x0000000008057cc4                typeinfo for warp_block_sprite_stuff
 .rodata._ZTV19muffin_sprite_stuff
                0x0000000008057cd0       0x80 objs/sprite_type_stuff.thumb.o
                0x0000000008057cd0                vtable for muffin_sprite_stuff
 .rodata._ZTV24fire_muffin_sprite_stuff
                0x0000000008057d50       0x80 objs/sprite_type_stuff.thumb.o
                0x0000000008057d50                vtable for fire_muffin_sprite_stuff
 .rodata._ZTV23ice_muffin_sprite_stuff
                0x0000000008057dd0       0x80 objs/sprite_type_stuff.thumb.o
                0x0000000008057dd0                vtable for ice_muffin_sprite_stuff
 .rodata._ZTV29chocolate_muffin_sprite_stuff
                0x0000000008057e50       0x80 objs/sprite_type_stuff.thumb.o
                0x0000000008057e50                vtable for chocolate_muffin_sprite_stuff
 .rodata._ZTV23warp_block_sprite_stuff
                0x0000000008057ed0       0x80 objs/sprite_type_stuff.thumb.o
                0x0000000008057ed0                vtable for warp_block_sprite_stuff
 .rodata        0x0000000008057f50     0x21c0 objs/test_level.thumb.o
                0x0000000008057f50                test_level
 .rodata        0x000000000805a110     0x3020 objs/the_block_gfx.o
                0x000000000805a110                the_block_gfxTiles
                0x000000000805d110                the_block_gfxPal
 .rodata        0x000000000805d130      0x440 objs/the_block_like_sprites_gfx.o
                0x000000000805d130                the_block_like_sprites_gfxTiles
                0x000000000805d530                the_block_like_sprites_gfxPal
 .rodata        0x000000000805d570     0x1060 objs/the_golem_enemy_gfx.o
                0x000000000805d570                the_golem_enemy_gfxTiles
                0x000000000805e570                the_golem_enemy_gfxPal
 .rodata        0x000000000805e5d0      0x2a0 objs/the_powerup_gfx.o
                0x000000000805e5d0                the_powerup_gfxTiles
                0x000000000805e850                the_powerup_gfxPal
 .rodata        0x000000000805e870      0x658 objs/title_screen.o
                0x000000000805e870                title_screenTiles
                0x000000000805ec60                title_screenMap
                0x000000000805eea8                title_screenPal
 .rodata        0x000000000805eec8       0xa4 objs/waffle_sprite_stuff_class.thumb.o
                0x000000000805eec8                typeinfo name for waffle_sprite_stuff
                0x000000000805eee0                typeinfo for waffle_sprite_stuff
                0x000000000805eeec                vtable for waffle_sprite_stuff
 .rodata        0x000000000805ef6c      0x1f4 objs/wood_block_stuff_classes.thumb.o
                0x000000000805ef6c                typeinfo name for wood_block_stuff
                0x000000000805ef80                typeinfo for wood_block_stuff
                0x000000000805ef8c                typeinfo name for wood_block_with_bt_dud_stuff
                0x000000000805efac                typeinfo for wood_block_with_bt_dud_stuff
                0x000000000805efb8                typeinfo name for wood_block_with_st_waffle_stuff
                0x000000000805efdc                typeinfo for wood_block_with_st_waffle_stuff
                0x000000000805efe8                typeinfo name for wood_block_with_st_muffin_stuff
                0x000000000805f00c                typeinfo for wood_block_with_st_muffin_stuff
                0x000000000805f018                typeinfo name for wood_block_with_st_fire_muffin_stuff
                0x000000000805f040                typeinfo for wood_block_with_st_fire_muffin_stuff
                0x000000000805f04c                typeinfo name for wood_block_with_st_ice_muffin_stuff
                0x000000000805f074                typeinfo for wood_block_with_st_ice_muffin_stuff
                0x000000000805f080                typeinfo name for wood_block_with_st_chocolate_muffin_stuff
                0x000000000805f0ac                typeinfo for wood_block_with_st_chocolate_muffin_stuff
                0x000000000805f0b8                vtable for wood_block_stuff
                0x000000000805f0d0                vtable for wood_block_with_bt_dud_stuff
                0x000000000805f0e8                vtable for wood_block_with_st_waffle_stuff
                0x000000000805f100                vtable for wood_block_with_st_muffin_stuff
                0x000000000805f118                vtable for wood_block_with_st_fire_muffin_stuff
                0x000000000805f130                vtable for wood_block_with_st_ice_muffin_stuff
                0x000000000805f148                vtable for wood_block_with_st_chocolate_muffin_stuff
 .rodata.str1.4
                0x000000000805f160        0x2 /usr/lib/gcc/arm-none-eabi/5.2.0/../../../../arm-none-eabi/lib/thumb/libc.a(lib_a-impure.o)
                                          0x4 (size before relaxing)
 *fill*         0x000000000805f162        0x2 
 .rodata._global_impure_ptr
                0x000000000805f164        0x4 /usr/lib/gcc/arm-none-eabi/5.2.0/../../../../arm-none-eabi/lib/thumb/libc.a(lib_a-impure.o)
                0x000000000805f164                _global_impure_ptr
 .rodata._ZTVSt9bad_alloc
                0x000000000805f168       0x14 /usr/lib/gcc/arm-none-eabi/5.2.0/../../../../arm-none-eabi/lib/thumb/libstdc++.a(bad_alloc.o)
                0x000000000805f168                vtable for std::bad_alloc
 .rodata.str1.1
                0x000000000805f17c        0xf /usr/lib/gcc/arm-none-eabi/5.2.0/../../../../arm-none-eabi/lib/thumb/libstdc++.a(bad_alloc.o)
 *fill*         0x000000000805f18b        0x1 
 .rodata._ZTISt9bad_alloc
                0x000000000805f18c        0xc /usr/lib/gcc/arm-none-eabi/5.2.0/../../../../arm-none-eabi/lib/thumb/libstdc++.a(bad_alloc.o)
                0x000000000805f18c                typeinfo for std::bad_alloc
 .rodata._ZTSSt9bad_alloc
                0x000000000805f198        0xd /usr/lib/gcc/arm-none-eabi/5.2.0/../../../../arm-none-eabi/lib/thumb/libstdc++.a(bad_alloc.o)
                0x000000000805f198                typeinfo name for std::bad_alloc
 *fill*         0x000000000805f1a5        0x3 
 .rodata._ZTVN10__cxxabiv120__si_class_type_infoE
                0x000000000805f1a8       0x2c /usr/lib/gcc/arm-none-eabi/5.2.0/../../../../arm-none-eabi/lib/thumb/libstdc++.a(si_class_type_info.o)
                0x000000000805f1a8                vtable for __cxxabiv1::__si_class_type_info
 .rodata._ZTIN10__cxxabiv120__si_class_type_infoE
                0x000000000805f1d4        0xc /usr/lib/gcc/arm-none-eabi/5.2.0/../../../../arm-none-eabi/lib/thumb/libstdc++.a(si_class_type_info.o)
                0x000000000805f1d4                typeinfo for __cxxabiv1::__si_class_type_info
 .rodata._ZTSN10__cxxabiv120__si_class_type_infoE
                0x000000000805f1e0       0x25 /usr/lib/gcc/arm-none-eabi/5.2.0/../../../../arm-none-eabi/lib/thumb/libstdc++.a(si_class_type_info.o)
                0x000000000805f1e0                typeinfo name for __cxxabiv1::__si_class_type_info
 .rodata._ZSt7nothrow
                0x000000000805f205        0x1 /usr/lib/gcc/arm-none-eabi/5.2.0/../../../../arm-none-eabi/lib/thumb/libstdc++.a(new_handler.o)
                0x000000000805f205                std::nothrow
 *fill*         0x000000000805f206        0x2 
 .rodata._ZTVN10__cxxabiv117__class_type_infoE
                0x000000000805f208       0x2c /usr/lib/gcc/arm-none-eabi/5.2.0/../../../../arm-none-eabi/lib/thumb/libstdc++.a(class_type_info.o)
                0x000000000805f208                vtable for __cxxabiv1::__class_type_info
 .rodata._ZTIN10__cxxabiv117__class_type_infoE
                0x000000000805f234        0xc /usr/lib/gcc/arm-none-eabi/5.2.0/../../../../arm-none-eabi/lib/thumb/libstdc++.a(class_type_info.o)
                0x000000000805f234                typeinfo for __cxxabiv1::__class_type_info
 .rodata._ZTSN10__cxxabiv117__class_type_infoE
                0x000000000805f240       0x22 /usr/lib/gcc/arm-none-eabi/5.2.0/../../../../arm-none-eabi/lib/thumb/libstdc++.a(class_type_info.o)
                0x000000000805f240                typeinfo name for __cxxabiv1::__class_type_info
 *fill*         0x000000000805f262        0x2 
 .rodata._ZTVN10__cxxabiv115__forced_unwindE
                0x000000000805f264       0x14 /usr/lib/gcc/arm-none-eabi/5.2.0/../../../../arm-none-eabi/lib/thumb/libstdc++.a(eh_exception.o)
                0x000000000805f264                vtable for __cxxabiv1::__forced_unwind
 .rodata._ZTVN10__cxxabiv119__foreign_exceptionE
                0x000000000805f278       0x14 /usr/lib/gcc/arm-none-eabi/5.2.0/../../../../arm-none-eabi/lib/thumb/libstdc++.a(eh_exception.o)
                0x000000000805f278                vtable for __cxxabiv1::__foreign_exception
 .rodata._ZTSN10__cxxabiv115__forced_unwindE
                0x000000000805f28c       0x20 /usr/lib/gcc/arm-none-eabi/5.2.0/../../../../arm-none-eabi/lib/thumb/libstdc++.a(eh_exception.o)
                0x000000000805f28c                typeinfo name for __cxxabiv1::__forced_unwind
 .rodata._ZTIN10__cxxabiv115__forced_unwindE
                0x000000000805f2ac        0x8 /usr/lib/gcc/arm-none-eabi/5.2.0/../../../../arm-none-eabi/lib/thumb/libstdc++.a(eh_exception.o)
                0x000000000805f2ac                typeinfo for __cxxabiv1::__forced_unwind
 .rodata._ZTSN10__cxxabiv119__foreign_exceptionE
                0x000000000805f2b4       0x24 /usr/lib/gcc/arm-none-eabi/5.2.0/../../../../arm-none-eabi/lib/thumb/libstdc++.a(eh_exception.o)
                0x000000000805f2b4                typeinfo name for __cxxabiv1::__foreign_exception
 .rodata.str1.1
                0x000000000805f2d8       0x22 /usr/lib/gcc/arm-none-eabi/5.2.0/../../../../arm-none-eabi/lib/thumb/libstdc++.a(eh_exception.o)
 *fill*         0x000000000805f2fa        0x2 
 .rodata._ZTISt9exception
                0x000000000805f2fc        0x8 /usr/lib/gcc/arm-none-eabi/5.2.0/../../../../arm-none-eabi/lib/thumb/libstdc++.a(eh_exception.o)
                0x000000000805f2fc                typeinfo for std::exception
 .rodata._ZTIN10__cxxabiv119__foreign_exceptionE
                0x000000000805f304        0x8 /usr/lib/gcc/arm-none-eabi/5.2.0/../../../../arm-none-eabi/lib/thumb/libstdc++.a(eh_exception.o)
                0x000000000805f304                typeinfo for __cxxabiv1::__foreign_exception
 .rodata._ZTVSt9exception
                0x000000000805f30c       0x14 /usr/lib/gcc/arm-none-eabi/5.2.0/../../../../arm-none-eabi/lib/thumb/libstdc++.a(eh_exception.o)
                0x000000000805f30c                vtable for std::exception
 .rodata._ZTVSt13bad_exception
                0x000000000805f320       0x14 /usr/lib/gcc/arm-none-eabi/5.2.0/../../../../arm-none-eabi/lib/thumb/libstdc++.a(eh_exception.o)
                0x000000000805f320                vtable for std::bad_exception
 .rodata._ZTSSt9exception
                0x000000000805f334        0xd /usr/lib/gcc/arm-none-eabi/5.2.0/../../../../arm-none-eabi/lib/thumb/libstdc++.a(eh_exception.o)
                0x000000000805f334                typeinfo name for std::exception
 .rodata._ZTSSt13bad_exception
                0x000000000805f341       0x12 /usr/lib/gcc/arm-none-eabi/5.2.0/../../../../arm-none-eabi/lib/thumb/libstdc++.a(eh_exception.o)
                0x000000000805f341                typeinfo name for std::bad_exception
 *fill*         0x000000000805f353        0x1 
 .rodata._ZTISt13bad_exception
                0x000000000805f354        0xc /usr/lib/gcc/arm-none-eabi/5.2.0/../../../../arm-none-eabi/lib/thumb/libstdc++.a(eh_exception.o)
                0x000000000805f354                typeinfo for std::bad_exception
 .rodata._ZTISt9type_info
                0x000000000805f360        0x8 /usr/lib/gcc/arm-none-eabi/5.2.0/../../../../arm-none-eabi/lib/thumb/libstdc++.a(tinfo.o)
                0x000000000805f360                typeinfo for std::type_info
 .rodata._ZTSSt9type_info
                0x000000000805f368        0xd /usr/lib/gcc/arm-none-eabi/5.2.0/../../../../arm-none-eabi/lib/thumb/libstdc++.a(tinfo.o)
                0x000000000805f368                typeinfo name for std::type_info
 *fill*         0x000000000805f375        0x3 
 .rodata._ZTVSt9type_info
                0x000000000805f378       0x20 /usr/lib/gcc/arm-none-eabi/5.2.0/../../../../arm-none-eabi/lib/thumb/libstdc++.a(tinfo.o)
                0x000000000805f378                vtable for std::type_info
 .rodata.str1.1
                0x000000000805f398       0x3b /usr/lib/gcc/arm-none-eabi/5.2.0/../../../../arm-none-eabi/lib/thumb/libstdc++.a(pure.o)
 .rodata.str1.1
                0x000000000805f3d3       0x8c /usr/lib/gcc/arm-none-eabi/5.2.0/../../../../arm-none-eabi/lib/thumb/libstdc++.a(vterminate.o)
 *fill*         0x000000000805f45f        0x1 
 .rodata.cplus_demangle_operators
                0x000000000805f460      0x3e0 /usr/lib/gcc/arm-none-eabi/5.2.0/../../../../arm-none-eabi/lib/thumb/libstdc++.a(cp-demangle.o)
 .rodata.str1.1
                0x000000000805f840      0x643 /usr/lib/gcc/arm-none-eabi/5.2.0/../../../../arm-none-eabi/lib/thumb/libstdc++.a(cp-demangle.o)
                                        0x708 (size before relaxing)
 *fill*         0x000000000805fe83        0x1 
 .rodata.cplus_demangle_builtin_types
                0x000000000805fe84      0x294 /usr/lib/gcc/arm-none-eabi/5.2.0/../../../../arm-none-eabi/lib/thumb/libstdc++.a(cp-demangle.o)
 .rodata.standard_subs
                0x0000000008060118       0xc4 /usr/lib/gcc/arm-none-eabi/5.2.0/../../../../arm-none-eabi/lib/thumb/libstdc++.a(cp-demangle.o)
 .rodata.blanks.6970
                0x00000000080601dc       0x10 /usr/lib/gcc/arm-none-eabi/5.2.0/../../../../arm-none-eabi/lib/libc.a(lib_a-svfprintf.o)
 .rodata.str1.4
                0x00000000080601ec       0x42 /usr/lib/gcc/arm-none-eabi/5.2.0/../../../../arm-none-eabi/lib/libc.a(lib_a-svfprintf.o)
                                         0x44 (size before relaxing)
 *fill*         0x000000000806022e        0x2 
 .rodata.zeroes.6971
                0x0000000008060230       0x10 /usr/lib/gcc/arm-none-eabi/5.2.0/../../../../arm-none-eabi/lib/libc.a(lib_a-svfprintf.o)
 .rodata.str1.4
                0x0000000008060240       0x10 /usr/lib/gcc/arm-none-eabi/5.2.0/../../../../arm-none-eabi/lib/libc.a(lib_a-dtoa.o)
                                         0x14 (size before relaxing)
 .rodata.str1.4
                0x0000000008060250        0xc /usr/lib/gcc/arm-none-eabi/5.2.0/../../../../arm-none-eabi/lib/libc.a(lib_a-locale.o)
                                         0x14 (size before relaxing)
 *fill*         0x000000000806025c        0x4 
 .rodata.__mprec_tens
                0x0000000008060260       0xc8 /usr/lib/gcc/arm-none-eabi/5.2.0/../../../../arm-none-eabi/lib/libc.a(lib_a-mprec.o)
                0x0000000008060260                __mprec_tens
 .rodata.p05.5362
                0x0000000008060328        0xc /usr/lib/gcc/arm-none-eabi/5.2.0/../../../../arm-none-eabi/lib/libc.a(lib_a-mprec.o)
 *fill*         0x0000000008060334        0x4 
 .rodata.__mprec_bigtens
                0x0000000008060338       0x28 /usr/lib/gcc/arm-none-eabi/5.2.0/../../../../arm-none-eabi/lib/libc.a(lib_a-mprec.o)
                0x0000000008060338                __mprec_bigtens
 .rodata.__mprec_tinytens
                0x0000000008060360       0x28 /usr/lib/gcc/arm-none-eabi/5.2.0/../../../../arm-none-eabi/lib/libc.a(lib_a-mprec.o)
                0x0000000008060360                __mprec_tinytens
 .rodata.zeroes.6915
                0x0000000008060388       0x10 /usr/lib/gcc/arm-none-eabi/5.2.0/../../../../arm-none-eabi/lib/libc.a(lib_a-svfiprintf.o)
 .rodata.blanks.6914
                0x0000000008060398       0x10 /usr/lib/gcc/arm-none-eabi/5.2.0/../../../../arm-none-eabi/lib/libc.a(lib_a-svfiprintf.o)
 .rodata.str1.4
                0x00000000080603a8       0x30 /usr/lib/gcc/arm-none-eabi/5.2.0/../../../../arm-none-eabi/lib/libc.a(lib_a-svfiprintf.o)
 *(.init)
 .init          0x00000000080603a8        0xc /usr/lib/gcc/arm-none-eabi/5.2.0/crti.o
                0x00000000080603a8                _init
 .init          0x00000000080603b4        0xc /usr/lib/gcc/arm-none-eabi/5.2.0/crtn.o
 *(.fini)
 .fini          0x00000000080603c0        0xc /usr/lib/gcc/arm-none-eabi/5.2.0/crti.o
                0x00000000080603c0                _fini
 .fini          0x00000000080603cc        0xc /usr/lib/gcc/arm-none-eabi/5.2.0/crtn.o
 .fini.__stub   0x00000000080603d8      0x260 linker stubs

.vfp11_veneer   0x0000000008060688        0x0
 .vfp11_veneer  0x0000000008060688        0x0 linker stubs

.v4_bx          0x0000000008060688        0x0
 .v4_bx         0x0000000008060688        0x0 linker stubs

.iplt           0x0000000008060688        0x0
 .iplt          0x0000000008060688        0x0 /usr/lib/gcc/arm-none-eabi/5.2.0/crtbegin.o

.ARM.extab      0x0000000008060688      0x108
 *(.ARM.extab* .gnu.linkonce.armextab.*)
 .ARM.extab     0x0000000008060688        0x0 /usr/lib/gcc/arm-none-eabi/5.2.0/../../../../arm-none-eabi/lib/crt0.o
 .ARM.extab.text._ZNSt5arrayISt12forward_listI23sprite_init_param_groupSaIS1_EELj512EED2Ev
                0x0000000008060688        0x0 objs/active_level_class.thumb.o
 .ARM.extab.text.startup
                0x0000000008060688        0x0 objs/active_level_class.thumb.o
 .ARM.extab.iwram_code
                0x0000000008060688        0x0 objs/active_level_manager_class.arm.o
 .ARM.extab.iwram_code
                0x0000000008060688        0x0 objs/air_block_stuff_class.thumb.o
 .ARM.extab.iwram_code
                0x0000000008060688        0x0 objs/block_base_stuff_class.thumb.o
 .ARM.extab.text._ZN24grass_single_block_stuff19get_metatile_numberEv
                0x0000000008060688        0x0 objs/block_stuff.thumb.o
 .ARM.extab.text._ZN24grass_single_block_stuff18get_palette_numberEv
                0x0000000008060688        0x0 objs/block_stuff.thumb.o
 .ARM.extab.text._ZN24grass_single_block_stuff26get_metatile_graphics_slotEv
                0x0000000008060688        0x0 objs/block_stuff.thumb.o
 .ARM.extab.text._ZN26grass_top_left_block_stuff19get_metatile_numberEv
                0x0000000008060688        0x0 objs/block_stuff.thumb.o
 .ARM.extab.text._ZN26grass_top_left_block_stuff18get_palette_numberEv
                0x0000000008060688        0x0 objs/block_stuff.thumb.o
 .ARM.extab.text._ZN26grass_top_left_block_stuff26get_metatile_graphics_slotEv
                0x0000000008060688        0x0 objs/block_stuff.thumb.o
 .ARM.extab.text._ZN28grass_top_middle_block_stuff19get_metatile_numberEv
                0x0000000008060688        0x0 objs/block_stuff.thumb.o
 .ARM.extab.text._ZN28grass_top_middle_block_stuff18get_palette_numberEv
                0x0000000008060688        0x0 objs/block_stuff.thumb.o
 .ARM.extab.text._ZN28grass_top_middle_block_stuff26get_metatile_graphics_slotEv
                0x0000000008060688        0x0 objs/block_stuff.thumb.o
 .ARM.extab.text._ZN27grass_top_right_block_stuff19get_metatile_numberEv
                0x0000000008060688        0x0 objs/block_stuff.thumb.o
 .ARM.extab.text._ZN27grass_top_right_block_stuff18get_palette_numberEv
                0x0000000008060688        0x0 objs/block_stuff.thumb.o
 .ARM.extab.text._ZN27grass_top_right_block_stuff26get_metatile_graphics_slotEv
                0x0000000008060688        0x0 objs/block_stuff.thumb.o
 .ARM.extab.text._ZN28dirt_middle_left_block_stuff19get_metatile_numberEv
                0x0000000008060688        0x0 objs/block_stuff.thumb.o
 .ARM.extab.text._ZN28dirt_middle_left_block_stuff18get_palette_numberEv
                0x0000000008060688        0x0 objs/block_stuff.thumb.o
 .ARM.extab.text._ZN28dirt_middle_left_block_stuff26get_metatile_graphics_slotEv
                0x0000000008060688        0x0 objs/block_stuff.thumb.o
 .ARM.extab.text._ZN30dirt_middle_middle_block_stuff19get_metatile_numberEv
                0x0000000008060688        0x0 objs/block_stuff.thumb.o
 .ARM.extab.text._ZN30dirt_middle_middle_block_stuff18get_palette_numberEv
                0x0000000008060688        0x0 objs/block_stuff.thumb.o
 .ARM.extab.text._ZN30dirt_middle_middle_block_stuff26get_metatile_graphics_slotEv
                0x0000000008060688        0x0 objs/block_stuff.thumb.o
 .ARM.extab.text._ZN29dirt_middle_right_block_stuff19get_metatile_numberEv
                0x0000000008060688        0x0 objs/block_stuff.thumb.o
 .ARM.extab.text._ZN29dirt_middle_right_block_stuff18get_palette_numberEv
                0x0000000008060688        0x0 objs/block_stuff.thumb.o
 .ARM.extab.text._ZN29dirt_middle_right_block_stuff26get_metatile_graphics_slotEv
                0x0000000008060688        0x0 objs/block_stuff.thumb.o
 .ARM.extab.text._ZN28dirt_bottom_left_block_stuff19get_metatile_numberEv
                0x0000000008060688        0x0 objs/block_stuff.thumb.o
 .ARM.extab.text._ZN28dirt_bottom_left_block_stuff18get_palette_numberEv
                0x0000000008060688        0x0 objs/block_stuff.thumb.o
 .ARM.extab.text._ZN28dirt_bottom_left_block_stuff26get_metatile_graphics_slotEv
                0x0000000008060688        0x0 objs/block_stuff.thumb.o
 .ARM.extab.text._ZN30dirt_bottom_middle_block_stuff19get_metatile_numberEv
                0x0000000008060688        0x0 objs/block_stuff.thumb.o
 .ARM.extab.text._ZN30dirt_bottom_middle_block_stuff18get_palette_numberEv
                0x0000000008060688        0x0 objs/block_stuff.thumb.o
 .ARM.extab.text._ZN30dirt_bottom_middle_block_stuff26get_metatile_graphics_slotEv
                0x0000000008060688        0x0 objs/block_stuff.thumb.o
 .ARM.extab.text._ZN29dirt_bottom_right_block_stuff19get_metatile_numberEv
                0x0000000008060688        0x0 objs/block_stuff.thumb.o
 .ARM.extab.text._ZN29dirt_bottom_right_block_stuff18get_palette_numberEv
                0x0000000008060688        0x0 objs/block_stuff.thumb.o
 .ARM.extab.text._ZN29dirt_bottom_right_block_stuff26get_metatile_graphics_slotEv
                0x0000000008060688        0x0 objs/block_stuff.thumb.o
 .ARM.extab.text._ZN31grass_slope_p16_p16_block_stuff19get_metatile_numberEv
                0x0000000008060688        0x0 objs/block_stuff.thumb.o
 .ARM.extab.text._ZN31grass_slope_p16_p16_block_stuff18get_palette_numberEv
                0x0000000008060688        0x0 objs/block_stuff.thumb.o
 .ARM.extab.text._ZN31grass_slope_p16_p16_block_stuff26get_metatile_graphics_slotEv
                0x0000000008060688        0x0 objs/block_stuff.thumb.o
 .ARM.extab.text._ZN31grass_slope_n16_p16_block_stuff19get_metatile_numberEv
                0x0000000008060688        0x0 objs/block_stuff.thumb.o
 .ARM.extab.text._ZN31grass_slope_n16_p16_block_stuff18get_palette_numberEv
                0x0000000008060688        0x0 objs/block_stuff.thumb.o
 .ARM.extab.text._ZN31grass_slope_n16_p16_block_stuff26get_metatile_graphics_slotEv
                0x0000000008060688        0x0 objs/block_stuff.thumb.o
 .ARM.extab.text._ZN37grass_slope_p32_p16_short_block_stuff19get_metatile_numberEv
                0x0000000008060688        0x0 objs/block_stuff.thumb.o
 .ARM.extab.text._ZN37grass_slope_p32_p16_short_block_stuff18get_palette_numberEv
                0x0000000008060688        0x0 objs/block_stuff.thumb.o
 .ARM.extab.text._ZN37grass_slope_p32_p16_short_block_stuff26get_metatile_graphics_slotEv
                0x0000000008060688        0x0 objs/block_stuff.thumb.o
 .ARM.extab.text._ZN36grass_slope_p32_p16_tall_block_stuff19get_metatile_numberEv
                0x0000000008060688        0x0 objs/block_stuff.thumb.o
 .ARM.extab.text._ZN36grass_slope_p32_p16_tall_block_stuff18get_palette_numberEv
                0x0000000008060688        0x0 objs/block_stuff.thumb.o
 .ARM.extab.text._ZN36grass_slope_p32_p16_tall_block_stuff26get_metatile_graphics_slotEv
                0x0000000008060688        0x0 objs/block_stuff.thumb.o
 .ARM.extab.text._ZN36grass_slope_n32_p16_tall_block_stuff19get_metatile_numberEv
                0x0000000008060688        0x0 objs/block_stuff.thumb.o
 .ARM.extab.text._ZN36grass_slope_n32_p16_tall_block_stuff18get_palette_numberEv
                0x0000000008060688        0x0 objs/block_stuff.thumb.o
 .ARM.extab.text._ZN36grass_slope_n32_p16_tall_block_stuff26get_metatile_graphics_slotEv
                0x0000000008060688        0x0 objs/block_stuff.thumb.o
 .ARM.extab.text._ZN37grass_slope_n32_p16_short_block_stuff19get_metatile_numberEv
                0x0000000008060688        0x0 objs/block_stuff.thumb.o
 .ARM.extab.text._ZN37grass_slope_n32_p16_short_block_stuff18get_palette_numberEv
                0x0000000008060688        0x0 objs/block_stuff.thumb.o
 .ARM.extab.text._ZN37grass_slope_n32_p16_short_block_stuff26get_metatile_graphics_slotEv
                0x0000000008060688        0x0 objs/block_stuff.thumb.o
 .ARM.extab.text._ZN31grass_in_slope_left_block_stuff19get_metatile_numberEv
                0x0000000008060688        0x0 objs/block_stuff.thumb.o
 .ARM.extab.text._ZN31grass_in_slope_left_block_stuff18get_palette_numberEv
                0x0000000008060688        0x0 objs/block_stuff.thumb.o
 .ARM.extab.text._ZN31grass_in_slope_left_block_stuff26get_metatile_graphics_slotEv
                0x0000000008060688        0x0 objs/block_stuff.thumb.o
 .ARM.extab.text._ZN32grass_in_slope_right_block_stuff19get_metatile_numberEv
                0x0000000008060688        0x0 objs/block_stuff.thumb.o
 .ARM.extab.text._ZN32grass_in_slope_right_block_stuff18get_palette_numberEv
                0x0000000008060688        0x0 objs/block_stuff.thumb.o
 .ARM.extab.text._ZN32grass_in_slope_right_block_stuff26get_metatile_graphics_slotEv
                0x0000000008060688        0x0 objs/block_stuff.thumb.o
 .ARM.extab.iwram_code
                0x0000000008060688        0x0 objs/block_stuff.thumb.o
 .ARM.extab.text.startup
                0x0000000008060688        0x0 objs/block_stuff.thumb.o
 .ARM.extab     0x0000000008060688        0x0 objs/button_stuff.thumb.o
 .ARM.extab.iwram_code
                0x0000000008060688        0x0 objs/coll_box_class.arm.o
 .ARM.extab.iwram_code
                0x0000000008060688        0x0 objs/coll_box_class.thumb.o
 .ARM.extab     0x0000000008060688        0x0 objs/coll_box_class.thumb.o
 .ARM.extab.iwram_code
                0x0000000008060688        0x0 objs/coll_point_group_class.thumb.o
 .ARM.extab.iwram_code
                0x0000000008060688        0x0 objs/debug_vars.thumb.o
 .ARM.extab.iwram_code
                0x0000000008060688        0x0 objs/division_funcs.o
 .ARM.extab     0x0000000008060688        0x0 objs/dma_stuff.thumb.o
 .ARM.extab.iwram_code
                0x0000000008060688        0x0 objs/dud_block_stuff_class.thumb.o
 .ARM.extab.iwram_code
                0x0000000008060688        0x0 objs/exclam_block_stuff_classes.thumb.o
 .ARM.extab.iwram_code
                0x0000000008060688        0x0 objs/eyes_block_stuff_classes.thumb.o
 .ARM.extab.iwram_code
                0x0000000008060688        0x0 objs/fixed_classes.thumb.o
 .ARM.extab.iwram_code
                0x0000000008060688        0x0 objs/interrupt_stuff.arm.o
 .ARM.extab.iwram_code
                0x0000000008060688        0x0 objs/interrupt_stuff.thumb.o
 .ARM.extab     0x0000000008060688        0x0 objs/interrupt_stuff.thumb.o
 .ARM.extab.iwram_code
                0x0000000008060688        0x0 objs/log_block_stuff_class.thumb.o
 .ARM.extab     0x0000000008060688        0x0 objs/main.thumb.o
 .ARM.extab.text.startup
                0x0000000008060688        0xc objs/main.thumb.o
 .ARM.extab.iwram_code
                0x0000000008060694        0x0 objs/memory_funcs_8bit.o
 .ARM.extab     0x0000000008060694        0x0 objs/oam_entry_classes.thumb.o
 .ARM.extab.iwram_code
                0x0000000008060694        0xc objs/player_sprite_stuff_class.thumb.o
 .ARM.extab.text._ZNK19player_sprite_stuff15get_sprite_typeEv
                0x00000000080606a0        0x0 objs/player_sprite_stuff_class.thumb.o
 .ARM.extab.text._ZN19player_sprite_stuff16get_gfx_categoryER6sprite
                0x00000000080606a0        0x0 objs/player_sprite_stuff_class.thumb.o
 .ARM.extab.text._ZN19player_sprite_stuff24get_num_active_gfx_tilesEv
                0x00000000080606a0        0x0 objs/player_sprite_stuff_class.thumb.o
 .ARM.extab.text._ZNK19player_sprite_stuff12get_tile_arrEv
                0x00000000080606a0        0x0 objs/player_sprite_stuff_class.thumb.o
 .ARM.extab     0x00000000080606a0        0x0 objs/player_sprite_stuff_class.thumb.o
 .ARM.extab.iwram_code
                0x00000000080606a0        0x0 objs/sprite_base_stuff_class.arm.o
 .ARM.extab.iwram_code
                0x00000000080606a0        0x0 objs/sprite_base_stuff_class.thumb.o
 .ARM.extab.text._ZNK17sprite_base_stuff12get_tile_arrEv
                0x00000000080606a0        0x0 objs/sprite_base_stuff_class.thumb.o
 .ARM.extab.text._ZN17sprite_base_stuff24get_num_active_gfx_tilesEv
                0x00000000080606a0        0x0 objs/sprite_base_stuff_class.thumb.o
 .ARM.extab     0x00000000080606a0        0x0 objs/sprite_base_stuff_class.thumb.o
 .ARM.extab.iwram_code
                0x00000000080606a0        0x0 objs/sprite_class.thumb.o
 .ARM.extab     0x00000000080606a0        0x0 objs/sprite_class.thumb.o
 .ARM.extab.iwram_code
                0x00000000080606a0        0x0 objs/sprite_gfx_stuff.thumb.o
 .ARM.extab     0x00000000080606a0        0x0 objs/sprite_gfx_stuff.thumb.o
 .ARM.extab.iwram_code
                0x00000000080606a0        0x0 objs/sprite_manager_class.arm.o
 .ARM.extab     0x00000000080606a0       0x30 objs/sprite_manager_class.thumb.o
 .ARM.extab.text._ZNSt12forward_listI23sprite_init_param_groupSaIS0_EE4sortISt4lessIS0_EEEvT_
                0x00000000080606d0        0x0 objs/sprite_manager_class.thumb.o
 .ARM.extab.text.startup
                0x00000000080606d0        0x0 objs/sprite_manager_class.thumb.o
 .ARM.extab.text._ZNK19muffin_sprite_stuff15get_sprite_typeEv
                0x00000000080606d0        0x0 objs/sprite_type_stuff.thumb.o
 .ARM.extab.text._ZN19muffin_sprite_stuff16get_gfx_categoryER6sprite
                0x00000000080606d0        0x0 objs/sprite_type_stuff.thumb.o
 .ARM.extab.text._ZN19muffin_sprite_stuff27get_curr_relative_tile_slotER6sprite
                0x00000000080606d0        0x0 objs/sprite_type_stuff.thumb.o
 .ARM.extab.text._ZN19muffin_sprite_stuff24get_num_active_gfx_tilesEv
                0x00000000080606d0        0x0 objs/sprite_type_stuff.thumb.o
 .ARM.extab.text._ZNK19muffin_sprite_stuff12get_tile_arrEv
                0x00000000080606d0        0x0 objs/sprite_type_stuff.thumb.o
 .ARM.extab.text._ZNK24fire_muffin_sprite_stuff15get_sprite_typeEv
                0x00000000080606d0        0x0 objs/sprite_type_stuff.thumb.o
 .ARM.extab.text._ZN24fire_muffin_sprite_stuff16get_gfx_categoryER6sprite
                0x00000000080606d0        0x0 objs/sprite_type_stuff.thumb.o
 .ARM.extab.text._ZN24fire_muffin_sprite_stuff27get_curr_relative_tile_slotER6sprite
                0x00000000080606d0        0x0 objs/sprite_type_stuff.thumb.o
 .ARM.extab.text._ZN24fire_muffin_sprite_stuff24get_num_active_gfx_tilesEv
                0x00000000080606d0        0x0 objs/sprite_type_stuff.thumb.o
 .ARM.extab.text._ZNK24fire_muffin_sprite_stuff12get_tile_arrEv
                0x00000000080606d0        0x0 objs/sprite_type_stuff.thumb.o
 .ARM.extab.text._ZNK23ice_muffin_sprite_stuff15get_sprite_typeEv
                0x00000000080606d0        0x0 objs/sprite_type_stuff.thumb.o
 .ARM.extab.text._ZN23ice_muffin_sprite_stuff16get_gfx_categoryER6sprite
                0x00000000080606d0        0x0 objs/sprite_type_stuff.thumb.o
 .ARM.extab.text._ZN23ice_muffin_sprite_stuff27get_curr_relative_tile_slotER6sprite
                0x00000000080606d0        0x0 objs/sprite_type_stuff.thumb.o
 .ARM.extab.text._ZN23ice_muffin_sprite_stuff24get_num_active_gfx_tilesEv
                0x00000000080606d0        0x0 objs/sprite_type_stuff.thumb.o
 .ARM.extab.text._ZNK23ice_muffin_sprite_stuff12get_tile_arrEv
                0x00000000080606d0        0x0 objs/sprite_type_stuff.thumb.o
 .ARM.extab.text._ZNK29chocolate_muffin_sprite_stuff15get_sprite_typeEv
                0x00000000080606d0        0x0 objs/sprite_type_stuff.thumb.o
 .ARM.extab.text._ZN29chocolate_muffin_sprite_stuff16get_gfx_categoryER6sprite
                0x00000000080606d0        0x0 objs/sprite_type_stuff.thumb.o
 .ARM.extab.text._ZN29chocolate_muffin_sprite_stuff27get_curr_relative_tile_slotER6sprite
                0x00000000080606d0        0x0 objs/sprite_type_stuff.thumb.o
 .ARM.extab.text._ZN29chocolate_muffin_sprite_stuff24get_num_active_gfx_tilesEv
                0x00000000080606d0        0x0 objs/sprite_type_stuff.thumb.o
 .ARM.extab.text._ZNK29chocolate_muffin_sprite_stuff12get_tile_arrEv
                0x00000000080606d0        0x0 objs/sprite_type_stuff.thumb.o
 .ARM.extab.text._ZNK23warp_block_sprite_stuff15get_sprite_typeEv
                0x00000000080606d0        0x0 objs/sprite_type_stuff.thumb.o
 .ARM.extab.text._ZN23warp_block_sprite_stuff16get_gfx_categoryER6sprite
                0x00000000080606d0        0x0 objs/sprite_type_stuff.thumb.o
 .ARM.extab.text._ZN23warp_block_sprite_stuff27get_curr_relative_tile_slotER6sprite
                0x00000000080606d0        0x0 objs/sprite_type_stuff.thumb.o
 .ARM.extab.text._ZN23warp_block_sprite_stuff24get_num_active_gfx_tilesEv
                0x00000000080606d0        0x0 objs/sprite_type_stuff.thumb.o
 .ARM.extab.text._ZNK23warp_block_sprite_stuff12get_tile_arrEv
                0x00000000080606d0        0x0 objs/sprite_type_stuff.thumb.o
 .ARM.extab.iwram_code
                0x00000000080606d0        0x0 objs/waffle_sprite_stuff_class.thumb.o
 .ARM.extab.text._ZNK19waffle_sprite_stuff15get_sprite_typeEv
                0x00000000080606d0        0x0 objs/waffle_sprite_stuff_class.thumb.o
 .ARM.extab.text._ZN19waffle_sprite_stuff16get_gfx_categoryER6sprite
                0x00000000080606d0        0x0 objs/waffle_sprite_stuff_class.thumb.o
 .ARM.extab.text._ZN19waffle_sprite_stuff27get_curr_relative_tile_slotER6sprite
                0x00000000080606d0        0x0 objs/waffle_sprite_stuff_class.thumb.o
 .ARM.extab.text._ZN19waffle_sprite_stuff24get_num_active_gfx_tilesEv
                0x00000000080606d0        0x0 objs/waffle_sprite_stuff_class.thumb.o
 .ARM.extab.text._ZNK19waffle_sprite_stuff12get_tile_arrEv
                0x00000000080606d0        0x0 objs/waffle_sprite_stuff_class.thumb.o
 .ARM.extab.text._ZN19waffle_sprite_stuff21block_collision_stuffER6sprite
                0x00000000080606d0        0x0 objs/waffle_sprite_stuff_class.thumb.o
 .ARM.extab.iwram_code
                0x00000000080606d0        0x0 objs/wood_block_stuff_classes.thumb.o
 .ARM.extab.text.selfrel_offset31
                0x00000000080606d0        0x0 /usr/lib/gcc/arm-none-eabi/5.2.0/thumb/libgcc.a(unwind-arm.o)
 .ARM.extab.text.search_EIT_table
                0x00000000080606d0        0x0 /usr/lib/gcc/arm-none-eabi/5.2.0/thumb/libgcc.a(unwind-arm.o)
 .ARM.extab.text.__gnu_unwind_get_pr_addr
                0x00000000080606d0        0x0 /usr/lib/gcc/arm-none-eabi/5.2.0/thumb/libgcc.a(unwind-arm.o)
 .ARM.extab.text.get_eit_entry
                0x00000000080606d0        0x0 /usr/lib/gcc/arm-none-eabi/5.2.0/thumb/libgcc.a(unwind-arm.o)
 .ARM.extab.text.restore_non_core_regs
                0x00000000080606d0        0x0 /usr/lib/gcc/arm-none-eabi/5.2.0/thumb/libgcc.a(unwind-arm.o)
 .ARM.extab.text._Unwind_decode_typeinfo_ptr.isra.0
                0x00000000080606d0        0x0 /usr/lib/gcc/arm-none-eabi/5.2.0/thumb/libgcc.a(unwind-arm.o)
 .ARM.extab.text.__gnu_unwind_24bit.isra.1
                0x00000000080606d0        0x0 /usr/lib/gcc/arm-none-eabi/5.2.0/thumb/libgcc.a(unwind-arm.o)
 .ARM.extab.text._Unwind_DebugHook
                0x00000000080606d0        0x0 /usr/lib/gcc/arm-none-eabi/5.2.0/thumb/libgcc.a(unwind-arm.o)
 .ARM.extab.text.unwind_phase2
                0x00000000080606d0        0x0 /usr/lib/gcc/arm-none-eabi/5.2.0/thumb/libgcc.a(unwind-arm.o)
 .ARM.extab.text.unwind_phase2_forced
                0x00000000080606d0        0x0 /usr/lib/gcc/arm-none-eabi/5.2.0/thumb/libgcc.a(unwind-arm.o)
 .ARM.extab.text._Unwind_GetCFA
                0x00000000080606d0        0x0 /usr/lib/gcc/arm-none-eabi/5.2.0/thumb/libgcc.a(unwind-arm.o)
 .ARM.extab.text.__gnu_Unwind_RaiseException
                0x00000000080606d0        0x0 /usr/lib/gcc/arm-none-eabi/5.2.0/thumb/libgcc.a(unwind-arm.o)
 .ARM.extab.text.__gnu_Unwind_ForcedUnwind
                0x00000000080606d0        0x0 /usr/lib/gcc/arm-none-eabi/5.2.0/thumb/libgcc.a(unwind-arm.o)
 .ARM.extab.text.__gnu_Unwind_Resume
                0x00000000080606d0        0x0 /usr/lib/gcc/arm-none-eabi/5.2.0/thumb/libgcc.a(unwind-arm.o)
 .ARM.extab.text.__gnu_Unwind_Resume_or_Rethrow
                0x00000000080606d0        0x0 /usr/lib/gcc/arm-none-eabi/5.2.0/thumb/libgcc.a(unwind-arm.o)
 .ARM.extab.text._Unwind_Complete
                0x00000000080606d0        0x0 /usr/lib/gcc/arm-none-eabi/5.2.0/thumb/libgcc.a(unwind-arm.o)
 .ARM.extab.text._Unwind_DeleteException
                0x00000000080606d0        0x0 /usr/lib/gcc/arm-none-eabi/5.2.0/thumb/libgcc.a(unwind-arm.o)
 .ARM.extab.text._Unwind_VRS_Get
                0x00000000080606d0        0x0 /usr/lib/gcc/arm-none-eabi/5.2.0/thumb/libgcc.a(unwind-arm.o)
 .ARM.extab.text._Unwind_GetGR
                0x00000000080606d0        0x0 /usr/lib/gcc/arm-none-eabi/5.2.0/thumb/libgcc.a(unwind-arm.o)
 .ARM.extab.text._Unwind_VRS_Set
                0x00000000080606d0        0x0 /usr/lib/gcc/arm-none-eabi/5.2.0/thumb/libgcc.a(unwind-arm.o)
 .ARM.extab.text._Unwind_SetGR
                0x00000000080606d0        0x0 /usr/lib/gcc/arm-none-eabi/5.2.0/thumb/libgcc.a(unwind-arm.o)
 .ARM.extab.text.__gnu_Unwind_Backtrace
                0x00000000080606d0        0x0 /usr/lib/gcc/arm-none-eabi/5.2.0/thumb/libgcc.a(unwind-arm.o)
 .ARM.extab.text.__gnu_unwind_pr_common
                0x00000000080606d0        0x0 /usr/lib/gcc/arm-none-eabi/5.2.0/thumb/libgcc.a(unwind-arm.o)
 .ARM.extab.text.__aeabi_unwind_cpp_pr0
                0x00000000080606d0        0x0 /usr/lib/gcc/arm-none-eabi/5.2.0/thumb/libgcc.a(unwind-arm.o)
 .ARM.extab.text.__aeabi_unwind_cpp_pr1
                0x00000000080606d0        0x0 /usr/lib/gcc/arm-none-eabi/5.2.0/thumb/libgcc.a(unwind-arm.o)
 .ARM.extab.text.__aeabi_unwind_cpp_pr2
                0x00000000080606d0        0x0 /usr/lib/gcc/arm-none-eabi/5.2.0/thumb/libgcc.a(unwind-arm.o)
 .ARM.extab.text._Unwind_VRS_Pop
                0x00000000080606d0        0x0 /usr/lib/gcc/arm-none-eabi/5.2.0/thumb/libgcc.a(unwind-arm.o)
 .ARM.extab.text.next_unwind_byte
                0x00000000080606d0        0x0 /usr/lib/gcc/arm-none-eabi/5.2.0/thumb/libgcc.a(pr-support.o)
 .ARM.extab.text._Unwind_GetGR.constprop.0
                0x00000000080606d0        0x0 /usr/lib/gcc/arm-none-eabi/5.2.0/thumb/libgcc.a(pr-support.o)
 .ARM.extab.text.unwind_UCB_from_context
                0x00000000080606d0        0x0 /usr/lib/gcc/arm-none-eabi/5.2.0/thumb/libgcc.a(pr-support.o)
 .ARM.extab.text.__gnu_unwind_execute
                0x00000000080606d0        0x0 /usr/lib/gcc/arm-none-eabi/5.2.0/thumb/libgcc.a(pr-support.o)
 .ARM.extab.text.__gnu_unwind_frame
                0x00000000080606d0        0x0 /usr/lib/gcc/arm-none-eabi/5.2.0/thumb/libgcc.a(pr-support.o)
 .ARM.extab.text._Unwind_GetRegionStart
                0x00000000080606d0        0x0 /usr/lib/gcc/arm-none-eabi/5.2.0/thumb/libgcc.a(pr-support.o)
 .ARM.extab.text._Unwind_GetLanguageSpecificData
                0x00000000080606d0        0x0 /usr/lib/gcc/arm-none-eabi/5.2.0/thumb/libgcc.a(pr-support.o)
 .ARM.extab.text._Unwind_GetTextRelBase
                0x00000000080606d0        0x0 /usr/lib/gcc/arm-none-eabi/5.2.0/thumb/libgcc.a(pr-support.o)
 .ARM.extab.text._Unwind_GetDataRelBase
                0x00000000080606d0        0x0 /usr/lib/gcc/arm-none-eabi/5.2.0/thumb/libgcc.a(pr-support.o)
 .ARM.extab.text._Znwj
                0x00000000080606d0        0x0 /usr/lib/gcc/arm-none-eabi/5.2.0/../../../../arm-none-eabi/lib/thumb/libstdc++.a(new_op.o)
 .ARM.extab.text._ZL23__gxx_exception_cleanup19_Unwind_Reason_CodeP21_Unwind_Control_Block
                0x00000000080606d0        0x0 /usr/lib/gcc/arm-none-eabi/5.2.0/../../../../arm-none-eabi/lib/thumb/libstdc++.a(eh_throw.o)
 .ARM.extab.text.__cxa_throw
                0x00000000080606d0        0x0 /usr/lib/gcc/arm-none-eabi/5.2.0/../../../../arm-none-eabi/lib/thumb/libstdc++.a(eh_throw.o)
 .ARM.extab.text.__cxa_rethrow
                0x00000000080606d0        0x0 /usr/lib/gcc/arm-none-eabi/5.2.0/../../../../arm-none-eabi/lib/thumb/libstdc++.a(eh_throw.o)
 .ARM.extab.text._ZNKSt9bad_alloc4whatEv
                0x00000000080606d0        0x0 /usr/lib/gcc/arm-none-eabi/5.2.0/../../../../arm-none-eabi/lib/thumb/libstdc++.a(bad_alloc.o)
 .ARM.extab.text._ZNSt9bad_allocD2Ev
                0x00000000080606d0        0x0 /usr/lib/gcc/arm-none-eabi/5.2.0/../../../../arm-none-eabi/lib/thumb/libstdc++.a(bad_alloc.o)
 .ARM.extab.text._ZNSt9bad_allocD0Ev
                0x00000000080606d0        0x0 /usr/lib/gcc/arm-none-eabi/5.2.0/../../../../arm-none-eabi/lib/thumb/libstdc++.a(bad_alloc.o)
 .ARM.extab.text._ZN10__cxxabiv120__si_class_type_infoD2Ev
                0x00000000080606d0        0x0 /usr/lib/gcc/arm-none-eabi/5.2.0/../../../../arm-none-eabi/lib/thumb/libstdc++.a(si_class_type_info.o)
 .ARM.extab.text._ZN10__cxxabiv120__si_class_type_infoD0Ev
                0x00000000080606d0        0x0 /usr/lib/gcc/arm-none-eabi/5.2.0/../../../../arm-none-eabi/lib/thumb/libstdc++.a(si_class_type_info.o)
 .ARM.extab.text._ZNK10__cxxabiv120__si_class_type_info12__do_dyncastEiNS_17__class_type_info10__sub_kindEPKS1_PKvS4_S6_RNS1_16__dyncast_resultE
                0x00000000080606d0        0x0 /usr/lib/gcc/arm-none-eabi/5.2.0/../../../../arm-none-eabi/lib/thumb/libstdc++.a(si_class_type_info.o)
 .ARM.extab.text._ZNK10__cxxabiv120__si_class_type_info20__do_find_public_srcEiPKvPKNS_17__class_type_infoES2_
                0x00000000080606d0        0x0 /usr/lib/gcc/arm-none-eabi/5.2.0/../../../../arm-none-eabi/lib/thumb/libstdc++.a(si_class_type_info.o)
 .ARM.extab.text._ZNK10__cxxabiv120__si_class_type_info11__do_upcastEPKNS_17__class_type_infoEPKvRNS1_15__upcast_resultE
                0x00000000080606d0        0x0 /usr/lib/gcc/arm-none-eabi/5.2.0/../../../../arm-none-eabi/lib/thumb/libstdc++.a(si_class_type_info.o)
 .ARM.extab.text.__cxa_get_globals_fast
                0x00000000080606d0        0x0 /usr/lib/gcc/arm-none-eabi/5.2.0/../../../../arm-none-eabi/lib/thumb/libstdc++.a(eh_globals.o)
 .ARM.extab.text.__cxa_get_globals
                0x00000000080606d0        0x0 /usr/lib/gcc/arm-none-eabi/5.2.0/../../../../arm-none-eabi/lib/thumb/libstdc++.a(eh_globals.o)
 .ARM.extab.text._ZdlPv
                0x00000000080606d0        0x0 /usr/lib/gcc/arm-none-eabi/5.2.0/../../../../arm-none-eabi/lib/thumb/libstdc++.a(del_op.o)
 .ARM.extab.text._ZSt15set_new_handlerPFvvE
                0x00000000080606d0        0x0 /usr/lib/gcc/arm-none-eabi/5.2.0/../../../../arm-none-eabi/lib/thumb/libstdc++.a(new_handler.o)
 .ARM.extab.text._ZSt15get_new_handlerv
                0x00000000080606d0        0x0 /usr/lib/gcc/arm-none-eabi/5.2.0/../../../../arm-none-eabi/lib/thumb/libstdc++.a(new_handler.o)
 .ARM.extab.text._ZNK10__cxxabiv117__class_type_info11__do_upcastEPKS0_PPv
                0x00000000080606d0        0x0 /usr/lib/gcc/arm-none-eabi/5.2.0/../../../../arm-none-eabi/lib/thumb/libstdc++.a(class_type_info.o)
 .ARM.extab.text._ZNK10__cxxabiv117__class_type_info20__do_find_public_srcEiPKvPKS0_S2_
                0x00000000080606d0        0x0 /usr/lib/gcc/arm-none-eabi/5.2.0/../../../../arm-none-eabi/lib/thumb/libstdc++.a(class_type_info.o)
 .ARM.extab.text._ZN10__cxxabiv117__class_type_infoD2Ev
                0x00000000080606d0        0x0 /usr/lib/gcc/arm-none-eabi/5.2.0/../../../../arm-none-eabi/lib/thumb/libstdc++.a(class_type_info.o)
 .ARM.extab.text._ZN10__cxxabiv117__class_type_infoD0Ev
                0x00000000080606d0        0x0 /usr/lib/gcc/arm-none-eabi/5.2.0/../../../../arm-none-eabi/lib/thumb/libstdc++.a(class_type_info.o)
 .ARM.extab.text._ZNK10__cxxabiv117__class_type_info11__do_upcastEPKS0_PKvRNS0_15__upcast_resultE
                0x00000000080606d0        0x0 /usr/lib/gcc/arm-none-eabi/5.2.0/../../../../arm-none-eabi/lib/thumb/libstdc++.a(class_type_info.o)
 .ARM.extab.text._ZNK10__cxxabiv117__class_type_info12__do_dyncastEiNS0_10__sub_kindEPKS0_PKvS3_S5_RNS0_16__dyncast_resultE
                0x00000000080606d0        0x0 /usr/lib/gcc/arm-none-eabi/5.2.0/../../../../arm-none-eabi/lib/thumb/libstdc++.a(class_type_info.o)
 .ARM.extab.text._ZNK10__cxxabiv117__class_type_info10__do_catchEPKSt9type_infoPPvj
                0x00000000080606d0        0x0 /usr/lib/gcc/arm-none-eabi/5.2.0/../../../../arm-none-eabi/lib/thumb/libstdc++.a(class_type_info.o)
 .ARM.extab.text._ZN10__cxxabiv1L24__is_gxx_exception_classEPc
                0x00000000080606d0        0x0 /usr/lib/gcc/arm-none-eabi/5.2.0/../../../../arm-none-eabi/lib/thumb/libstdc++.a(eh_catch.o)
 .ARM.extab.text.__cxa_get_exception_ptr
                0x00000000080606d0        0x0 /usr/lib/gcc/arm-none-eabi/5.2.0/../../../../arm-none-eabi/lib/thumb/libstdc++.a(eh_catch.o)
 .ARM.extab.text.__cxa_begin_catch
                0x00000000080606d0       0x1c /usr/lib/gcc/arm-none-eabi/5.2.0/../../../../arm-none-eabi/lib/thumb/libstdc++.a(eh_catch.o)
 .ARM.extab.text.__cxa_end_catch
                0x00000000080606ec        0x0 /usr/lib/gcc/arm-none-eabi/5.2.0/../../../../arm-none-eabi/lib/thumb/libstdc++.a(eh_catch.o)
 .ARM.extab.text._ZSt18uncaught_exceptionv
                0x00000000080606ec        0x0 /usr/lib/gcc/arm-none-eabi/5.2.0/../../../../arm-none-eabi/lib/thumb/libstdc++.a(eh_catch.o)
 .ARM.extab.text._ZN10__cxxabiv1L24__is_gxx_exception_classEPc
                0x00000000080606ec        0x0 /usr/lib/gcc/arm-none-eabi/5.2.0/../../../../arm-none-eabi/lib/thumb/libstdc++.a(eh_call.o)
 .ARM.extab.text.__cxa_call_terminate
                0x00000000080606ec        0x0 /usr/lib/gcc/arm-none-eabi/5.2.0/../../../../arm-none-eabi/lib/thumb/libstdc++.a(eh_call.o)
 .ARM.extab.text.__cxa_call_unexpected
                0x00000000080606ec       0x24 /usr/lib/gcc/arm-none-eabi/5.2.0/../../../../arm-none-eabi/lib/thumb/libstdc++.a(eh_call.o)
 .ARM.extab.text._ZN10__cxxabiv111__terminateEPFvvE
                0x0000000008060710       0x28 /usr/lib/gcc/arm-none-eabi/5.2.0/../../../../arm-none-eabi/lib/thumb/libstdc++.a(eh_terminate.o)
 .ARM.extab.text._ZSt9terminatev
                0x0000000008060738        0x0 /usr/lib/gcc/arm-none-eabi/5.2.0/../../../../arm-none-eabi/lib/thumb/libstdc++.a(eh_terminate.o)
 .ARM.extab.text._ZN10__cxxabiv112__unexpectedEPFvvE
                0x0000000008060738        0x0 /usr/lib/gcc/arm-none-eabi/5.2.0/../../../../arm-none-eabi/lib/thumb/libstdc++.a(eh_terminate.o)
 .ARM.extab.text._ZSt10unexpectedv
                0x0000000008060738        0x0 /usr/lib/gcc/arm-none-eabi/5.2.0/../../../../arm-none-eabi/lib/thumb/libstdc++.a(eh_terminate.o)
 .ARM.extab.text._ZSt13set_terminatePFvvE
                0x0000000008060738        0x0 /usr/lib/gcc/arm-none-eabi/5.2.0/../../../../arm-none-eabi/lib/thumb/libstdc++.a(eh_terminate.o)
 .ARM.extab.text._ZSt13get_terminatev
                0x0000000008060738        0x0 /usr/lib/gcc/arm-none-eabi/5.2.0/../../../../arm-none-eabi/lib/thumb/libstdc++.a(eh_terminate.o)
 .ARM.extab.text._ZSt14set_unexpectedPFvvE
                0x0000000008060738        0x0 /usr/lib/gcc/arm-none-eabi/5.2.0/../../../../arm-none-eabi/lib/thumb/libstdc++.a(eh_terminate.o)
 .ARM.extab.text._ZSt14get_unexpectedv
                0x0000000008060738        0x0 /usr/lib/gcc/arm-none-eabi/5.2.0/../../../../arm-none-eabi/lib/thumb/libstdc++.a(eh_terminate.o)
 .ARM.extab.text._ZL12read_uleb128PKhPm
                0x0000000008060738        0x0 /usr/lib/gcc/arm-none-eabi/5.2.0/../../../../arm-none-eabi/lib/thumb/libstdc++.a(eh_personality.o)
 .ARM.extab.text._ZL12read_sleb128PKhPl
                0x0000000008060738        0x0 /usr/lib/gcc/arm-none-eabi/5.2.0/../../../../arm-none-eabi/lib/thumb/libstdc++.a(eh_personality.o)
 .ARM.extab.text._ZL28read_encoded_value_with_basehjPKhPj
                0x0000000008060738        0x0 /usr/lib/gcc/arm-none-eabi/5.2.0/../../../../arm-none-eabi/lib/thumb/libstdc++.a(eh_personality.o)
 .ARM.extab.text._ZL21base_of_encoded_valuehP15_Unwind_Context
                0x0000000008060738        0x0 /usr/lib/gcc/arm-none-eabi/5.2.0/../../../../arm-none-eabi/lib/thumb/libstdc++.a(eh_personality.o)
 .ARM.extab.text._ZL18read_encoded_valueP15_Unwind_ContexthPKhPj
                0x0000000008060738        0x0 /usr/lib/gcc/arm-none-eabi/5.2.0/../../../../arm-none-eabi/lib/thumb/libstdc++.a(eh_personality.o)
 .ARM.extab.text._ZL17parse_lsda_headerP15_Unwind_ContextPKhP16lsda_header_info
                0x0000000008060738        0x0 /usr/lib/gcc/arm-none-eabi/5.2.0/../../../../arm-none-eabi/lib/thumb/libstdc++.a(eh_personality.o)
 .ARM.extab.text._Unwind_GetGR
                0x0000000008060738        0x0 /usr/lib/gcc/arm-none-eabi/5.2.0/../../../../arm-none-eabi/lib/thumb/libstdc++.a(eh_personality.o)
 .ARM.extab.text.__gxx_personality_v0
                0x0000000008060738       0x24 /usr/lib/gcc/arm-none-eabi/5.2.0/../../../../arm-none-eabi/lib/thumb/libstdc++.a(eh_personality.o)
 .ARM.extab.text._ZNSt9exceptionD2Ev
                0x000000000806075c        0x0 /usr/lib/gcc/arm-none-eabi/5.2.0/../../../../arm-none-eabi/lib/thumb/libstdc++.a(eh_exception.o)
 .ARM.extab.text._ZNSt13bad_exceptionD2Ev
                0x000000000806075c        0x0 /usr/lib/gcc/arm-none-eabi/5.2.0/../../../../arm-none-eabi/lib/thumb/libstdc++.a(eh_exception.o)
 .ARM.extab.text._ZNKSt9exception4whatEv
                0x000000000806075c        0x0 /usr/lib/gcc/arm-none-eabi/5.2.0/../../../../arm-none-eabi/lib/thumb/libstdc++.a(eh_exception.o)
 .ARM.extab.text._ZNKSt13bad_exception4whatEv
                0x000000000806075c        0x0 /usr/lib/gcc/arm-none-eabi/5.2.0/../../../../arm-none-eabi/lib/thumb/libstdc++.a(eh_exception.o)
 .ARM.extab.text._ZNSt9exceptionD0Ev
                0x000000000806075c        0x0 /usr/lib/gcc/arm-none-eabi/5.2.0/../../../../arm-none-eabi/lib/thumb/libstdc++.a(eh_exception.o)
 .ARM.extab.text._ZNSt13bad_exceptionD0Ev
                0x000000000806075c        0x0 /usr/lib/gcc/arm-none-eabi/5.2.0/../../../../arm-none-eabi/lib/thumb/libstdc++.a(eh_exception.o)
 .ARM.extab.text._ZN10__cxxabiv115__forced_unwindD2Ev
                0x000000000806075c        0x0 /usr/lib/gcc/arm-none-eabi/5.2.0/../../../../arm-none-eabi/lib/thumb/libstdc++.a(eh_exception.o)
 .ARM.extab.text._ZN10__cxxabiv115__forced_unwindD0Ev
                0x000000000806075c        0x0 /usr/lib/gcc/arm-none-eabi/5.2.0/../../../../arm-none-eabi/lib/thumb/libstdc++.a(eh_exception.o)
 .ARM.extab.text._ZN10__cxxabiv119__foreign_exceptionD2Ev
                0x000000000806075c        0x0 /usr/lib/gcc/arm-none-eabi/5.2.0/../../../../arm-none-eabi/lib/thumb/libstdc++.a(eh_exception.o)
 .ARM.extab.text._ZN10__cxxabiv119__foreign_exceptionD0Ev
                0x000000000806075c        0x0 /usr/lib/gcc/arm-none-eabi/5.2.0/../../../../arm-none-eabi/lib/thumb/libstdc++.a(eh_exception.o)
 .ARM.extab.text._ZN12_GLOBAL__N_14pool4freeEPv.constprop.4
                0x000000000806075c        0x0 /usr/lib/gcc/arm-none-eabi/5.2.0/../../../../arm-none-eabi/lib/thumb/libstdc++.a(eh_alloc.o)
 .ARM.extab.text._ZN12_GLOBAL__N_14pool8allocateEj.constprop.5
                0x000000000806075c        0x0 /usr/lib/gcc/arm-none-eabi/5.2.0/../../../../arm-none-eabi/lib/thumb/libstdc++.a(eh_alloc.o)
 .ARM.extab.text.__cxa_allocate_exception
                0x000000000806075c        0x0 /usr/lib/gcc/arm-none-eabi/5.2.0/../../../../arm-none-eabi/lib/thumb/libstdc++.a(eh_alloc.o)
 .ARM.extab.text.__cxa_free_exception
                0x000000000806075c        0x0 /usr/lib/gcc/arm-none-eabi/5.2.0/../../../../arm-none-eabi/lib/thumb/libstdc++.a(eh_alloc.o)
 .ARM.extab.text.__cxa_allocate_dependent_exception
                0x000000000806075c        0x0 /usr/lib/gcc/arm-none-eabi/5.2.0/../../../../arm-none-eabi/lib/thumb/libstdc++.a(eh_alloc.o)
 .ARM.extab.text.__cxa_free_dependent_exception
                0x000000000806075c        0x0 /usr/lib/gcc/arm-none-eabi/5.2.0/../../../../arm-none-eabi/lib/thumb/libstdc++.a(eh_alloc.o)
 .ARM.extab.text.startup._GLOBAL__sub_I___cxa_allocate_exception
                0x000000000806075c        0x0 /usr/lib/gcc/arm-none-eabi/5.2.0/../../../../arm-none-eabi/lib/thumb/libstdc++.a(eh_alloc.o)
 .ARM.extab.text._ZNSt9type_infoD2Ev
                0x000000000806075c        0x0 /usr/lib/gcc/arm-none-eabi/5.2.0/../../../../arm-none-eabi/lib/thumb/libstdc++.a(tinfo.o)
 .ARM.extab.text._ZNKSt9type_info15__is_function_pEv
                0x000000000806075c        0x0 /usr/lib/gcc/arm-none-eabi/5.2.0/../../../../arm-none-eabi/lib/thumb/libstdc++.a(tinfo.o)
 .ARM.extab.text._ZNKSt9type_info11__do_upcastEPKN10__cxxabiv117__class_type_infoEPPv
                0x000000000806075c        0x0 /usr/lib/gcc/arm-none-eabi/5.2.0/../../../../arm-none-eabi/lib/thumb/libstdc++.a(tinfo.o)
 .ARM.extab.text._ZNSt9type_infoD0Ev
                0x000000000806075c        0x0 /usr/lib/gcc/arm-none-eabi/5.2.0/../../../../arm-none-eabi/lib/thumb/libstdc++.a(tinfo.o)
 .ARM.extab.text._ZNKSt9type_infoeqERKS_
                0x000000000806075c        0x0 /usr/lib/gcc/arm-none-eabi/5.2.0/../../../../arm-none-eabi/lib/thumb/libstdc++.a(tinfo.o)
 .ARM.extab.text._ZNKSt9type_info10__do_catchEPKS_PPvj
                0x000000000806075c        0x0 /usr/lib/gcc/arm-none-eabi/5.2.0/../../../../arm-none-eabi/lib/thumb/libstdc++.a(tinfo.o)
 .ARM.extab.text._ZN10__cxxabiv1L24__is_gxx_exception_classEPc
                0x000000000806075c        0x0 /usr/lib/gcc/arm-none-eabi/5.2.0/../../../../arm-none-eabi/lib/thumb/libstdc++.a(eh_arm.o)
 .ARM.extab.text.__cxa_type_match
                0x000000000806075c        0x0 /usr/lib/gcc/arm-none-eabi/5.2.0/../../../../arm-none-eabi/lib/thumb/libstdc++.a(eh_arm.o)
 .ARM.extab.text.__cxa_begin_cleanup
                0x000000000806075c        0x0 /usr/lib/gcc/arm-none-eabi/5.2.0/../../../../arm-none-eabi/lib/thumb/libstdc++.a(eh_arm.o)
 .ARM.extab.text.__gnu_end_cleanup
                0x000000000806075c        0x0 /usr/lib/gcc/arm-none-eabi/5.2.0/../../../../arm-none-eabi/lib/thumb/libstdc++.a(eh_arm.o)
 .ARM.extab.text.__cxa_pure_virtual
                0x000000000806075c        0x0 /usr/lib/gcc/arm-none-eabi/5.2.0/../../../../arm-none-eabi/lib/thumb/libstdc++.a(pure.o)
 .ARM.extab.text.__cxa_deleted_virtual
                0x000000000806075c        0x0 /usr/lib/gcc/arm-none-eabi/5.2.0/../../../../arm-none-eabi/lib/thumb/libstdc++.a(pure.o)
 .ARM.extab.text._ZN9__gnu_cxx27__verbose_terminate_handlerEv
                0x000000000806075c       0x34 /usr/lib/gcc/arm-none-eabi/5.2.0/../../../../arm-none-eabi/lib/thumb/libstdc++.a(vterminate.o)
 .ARM.extab.text.__cxa_current_exception_type
                0x0000000008060790        0x0 /usr/lib/gcc/arm-none-eabi/5.2.0/../../../../arm-none-eabi/lib/thumb/libstdc++.a(eh_type.o)
 .ARM.extab.text.__udivmoddi4
                0x0000000008060790        0x0 /usr/lib/gcc/arm-none-eabi/5.2.0/libgcc.a(_udivmoddi4.o)
                0x0000000008060790                __exidx_start = .

.eh_frame       0x0000000008060790       0x48
 .eh_frame      0x0000000008060790        0x0 /usr/lib/gcc/arm-none-eabi/5.2.0/crtbegin.o
 .eh_frame      0x0000000008060790       0x44 /usr/lib/gcc/arm-none-eabi/5.2.0/../../../../arm-none-eabi/lib/libc.a(lib_a-strcmp.o)
 .eh_frame      0x00000000080607d4        0x4 /usr/lib/gcc/arm-none-eabi/5.2.0/crtend.o

.ARM.exidx      0x00000000080607d8      0x3b8
 *(.ARM.exidx* .gnu.linkonce.armexidx.*)
 .ARM.exidx     0x0000000008060908        0x0 /usr/lib/gcc/arm-none-eabi/5.2.0/../../../../arm-none-eabi/lib/crt0.o
                                          0x8 (size before relaxing)
 .ARM.exidx.text._ZNSt5arrayISt12forward_listI23sprite_init_param_groupSaIS1_EELj512EED2Ev
                0x0000000008060908        0x0 objs/active_level_class.thumb.o
                                          0x8 (size before relaxing)
 .ARM.exidx.text.startup
                0x0000000008060908        0x0 objs/active_level_class.thumb.o
                                          0x8 (size before relaxing)
 .ARM.exidx.iwram_code
                0x00000000080607d8       0x20 objs/active_level_manager_class.arm.o
                                         0x28 (size before relaxing)
 .ARM.exidx.iwram_code
                0x00000000080607f8        0x8 objs/air_block_stuff_class.thumb.o
                                         0x10 (size before relaxing)
 .ARM.exidx.iwram_code
                0x0000000008060800        0x0 objs/block_base_stuff_class.thumb.o
                                         0x10 (size before relaxing)
 .ARM.exidx.text._ZN24grass_single_block_stuff19get_metatile_numberEv
                0x0000000008060908        0x0 objs/block_stuff.thumb.o
                                          0x8 (size before relaxing)
 .ARM.exidx.text._ZN24grass_single_block_stuff18get_palette_numberEv
                0x0000000008060908        0x0 objs/block_stuff.thumb.o
                                          0x8 (size before relaxing)
 .ARM.exidx.text._ZN24grass_single_block_stuff26get_metatile_graphics_slotEv
                0x0000000008060908        0x0 objs/block_stuff.thumb.o
                                          0x8 (size before relaxing)
 .ARM.exidx.text._ZN26grass_top_left_block_stuff19get_metatile_numberEv
                0x0000000008060908        0x0 objs/block_stuff.thumb.o
                                          0x8 (size before relaxing)
 .ARM.exidx.text._ZN26grass_top_left_block_stuff18get_palette_numberEv
                0x0000000008060908        0x0 objs/block_stuff.thumb.o
                                          0x8 (size before relaxing)
 .ARM.exidx.text._ZN26grass_top_left_block_stuff26get_metatile_graphics_slotEv
                0x0000000008060908        0x0 objs/block_stuff.thumb.o
                                          0x8 (size before relaxing)
 .ARM.exidx.text._ZN28grass_top_middle_block_stuff19get_metatile_numberEv
                0x0000000008060908        0x0 objs/block_stuff.thumb.o
                                          0x8 (size before relaxing)
 .ARM.exidx.text._ZN28grass_top_middle_block_stuff18get_palette_numberEv
                0x0000000008060908        0x0 objs/block_stuff.thumb.o
                                          0x8 (size before relaxing)
 .ARM.exidx.text._ZN28grass_top_middle_block_stuff26get_metatile_graphics_slotEv
                0x0000000008060908        0x0 objs/block_stuff.thumb.o
                                          0x8 (size before relaxing)
 .ARM.exidx.text._ZN27grass_top_right_block_stuff19get_metatile_numberEv
                0x0000000008060908        0x0 objs/block_stuff.thumb.o
                                          0x8 (size before relaxing)
 .ARM.exidx.text._ZN27grass_top_right_block_stuff18get_palette_numberEv
                0x0000000008060908        0x0 objs/block_stuff.thumb.o
                                          0x8 (size before relaxing)
 .ARM.exidx.text._ZN27grass_top_right_block_stuff26get_metatile_graphics_slotEv
                0x0000000008060908        0x0 objs/block_stuff.thumb.o
                                          0x8 (size before relaxing)
 .ARM.exidx.text._ZN28dirt_middle_left_block_stuff19get_metatile_numberEv
                0x0000000008060908        0x0 objs/block_stuff.thumb.o
                                          0x8 (size before relaxing)
 .ARM.exidx.text._ZN28dirt_middle_left_block_stuff18get_palette_numberEv
                0x0000000008060908        0x0 objs/block_stuff.thumb.o
                                          0x8 (size before relaxing)
 .ARM.exidx.text._ZN28dirt_middle_left_block_stuff26get_metatile_graphics_slotEv
                0x0000000008060908        0x0 objs/block_stuff.thumb.o
                                          0x8 (size before relaxing)
 .ARM.exidx.text._ZN30dirt_middle_middle_block_stuff19get_metatile_numberEv
                0x0000000008060908        0x0 objs/block_stuff.thumb.o
                                          0x8 (size before relaxing)
 .ARM.exidx.text._ZN30dirt_middle_middle_block_stuff18get_palette_numberEv
                0x0000000008060908        0x0 objs/block_stuff.thumb.o
                                          0x8 (size before relaxing)
 .ARM.exidx.text._ZN30dirt_middle_middle_block_stuff26get_metatile_graphics_slotEv
                0x0000000008060908        0x0 objs/block_stuff.thumb.o
                                          0x8 (size before relaxing)
 .ARM.exidx.text._ZN29dirt_middle_right_block_stuff19get_metatile_numberEv
                0x0000000008060908        0x0 objs/block_stuff.thumb.o
                                          0x8 (size before relaxing)
 .ARM.exidx.text._ZN29dirt_middle_right_block_stuff18get_palette_numberEv
                0x0000000008060908        0x0 objs/block_stuff.thumb.o
                                          0x8 (size before relaxing)
 .ARM.exidx.text._ZN29dirt_middle_right_block_stuff26get_metatile_graphics_slotEv
                0x0000000008060908        0x0 objs/block_stuff.thumb.o
                                          0x8 (size before relaxing)
 .ARM.exidx.text._ZN28dirt_bottom_left_block_stuff19get_metatile_numberEv
                0x0000000008060908        0x0 objs/block_stuff.thumb.o
                                          0x8 (size before relaxing)
 .ARM.exidx.text._ZN28dirt_bottom_left_block_stuff18get_palette_numberEv
                0x0000000008060908        0x0 objs/block_stuff.thumb.o
                                          0x8 (size before relaxing)
 .ARM.exidx.text._ZN28dirt_bottom_left_block_stuff26get_metatile_graphics_slotEv
                0x0000000008060908        0x0 objs/block_stuff.thumb.o
                                          0x8 (size before relaxing)
 .ARM.exidx.text._ZN30dirt_bottom_middle_block_stuff19get_metatile_numberEv
                0x0000000008060908        0x0 objs/block_stuff.thumb.o
                                          0x8 (size before relaxing)
 .ARM.exidx.text._ZN30dirt_bottom_middle_block_stuff18get_palette_numberEv
                0x0000000008060908        0x0 objs/block_stuff.thumb.o
                                          0x8 (size before relaxing)
 .ARM.exidx.text._ZN30dirt_bottom_middle_block_stuff26get_metatile_graphics_slotEv
                0x0000000008060908        0x0 objs/block_stuff.thumb.o
                                          0x8 (size before relaxing)
 .ARM.exidx.text._ZN29dirt_bottom_right_block_stuff19get_metatile_numberEv
                0x0000000008060908        0x0 objs/block_stuff.thumb.o
                                          0x8 (size before relaxing)
 .ARM.exidx.text._ZN29dirt_bottom_right_block_stuff18get_palette_numberEv
                0x0000000008060908        0x0 objs/block_stuff.thumb.o
                                          0x8 (size before relaxing)
 .ARM.exidx.text._ZN29dirt_bottom_right_block_stuff26get_metatile_graphics_slotEv
                0x0000000008060908        0x0 objs/block_stuff.thumb.o
                                          0x8 (size before relaxing)
 .ARM.exidx.text._ZN31grass_slope_p16_p16_block_stuff19get_metatile_numberEv
                0x0000000008060908        0x0 objs/block_stuff.thumb.o
                                          0x8 (size before relaxing)
 .ARM.exidx.text._ZN31grass_slope_p16_p16_block_stuff18get_palette_numberEv
                0x0000000008060908        0x0 objs/block_stuff.thumb.o
                                          0x8 (size before relaxing)
 .ARM.exidx.text._ZN31grass_slope_p16_p16_block_stuff26get_metatile_graphics_slotEv
                0x0000000008060908        0x0 objs/block_stuff.thumb.o
                                          0x8 (size before relaxing)
 .ARM.exidx.text._ZN31grass_slope_n16_p16_block_stuff19get_metatile_numberEv
                0x0000000008060908        0x0 objs/block_stuff.thumb.o
                                          0x8 (size before relaxing)
 .ARM.exidx.text._ZN31grass_slope_n16_p16_block_stuff18get_palette_numberEv
                0x0000000008060908        0x0 objs/block_stuff.thumb.o
                                          0x8 (size before relaxing)
 .ARM.exidx.text._ZN31grass_slope_n16_p16_block_stuff26get_metatile_graphics_slotEv
                0x0000000008060908        0x0 objs/block_stuff.thumb.o
                                          0x8 (size before relaxing)
 .ARM.exidx.text._ZN37grass_slope_p32_p16_short_block_stuff19get_metatile_numberEv
                0x0000000008060908        0x0 objs/block_stuff.thumb.o
                                          0x8 (size before relaxing)
 .ARM.exidx.text._ZN37grass_slope_p32_p16_short_block_stuff18get_palette_numberEv
                0x0000000008060908        0x0 objs/block_stuff.thumb.o
                                          0x8 (size before relaxing)
 .ARM.exidx.text._ZN37grass_slope_p32_p16_short_block_stuff26get_metatile_graphics_slotEv
                0x0000000008060908        0x0 objs/block_stuff.thumb.o
                                          0x8 (size before relaxing)
 .ARM.exidx.text._ZN36grass_slope_p32_p16_tall_block_stuff19get_metatile_numberEv
                0x0000000008060908        0x0 objs/block_stuff.thumb.o
                                          0x8 (size before relaxing)
 .ARM.exidx.text._ZN36grass_slope_p32_p16_tall_block_stuff18get_palette_numberEv
                0x0000000008060908        0x0 objs/block_stuff.thumb.o
                                          0x8 (size before relaxing)
 .ARM.exidx.text._ZN36grass_slope_p32_p16_tall_block_stuff26get_metatile_graphics_slotEv
                0x0000000008060908        0x0 objs/block_stuff.thumb.o
                                          0x8 (size before relaxing)
 .ARM.exidx.text._ZN36grass_slope_n32_p16_tall_block_stuff19get_metatile_numberEv
                0x0000000008060908        0x0 objs/block_stuff.thumb.o
                                          0x8 (size before relaxing)
 .ARM.exidx.text._ZN36grass_slope_n32_p16_tall_block_stuff18get_palette_numberEv
                0x0000000008060908        0x0 objs/block_stuff.thumb.o
                                          0x8 (size before relaxing)
 .ARM.exidx.text._ZN36grass_slope_n32_p16_tall_block_stuff26get_metatile_graphics_slotEv
                0x0000000008060908        0x0 objs/block_stuff.thumb.o
                                          0x8 (size before relaxing)
 .ARM.exidx.text._ZN37grass_slope_n32_p16_short_block_stuff19get_metatile_numberEv
                0x0000000008060908        0x0 objs/block_stuff.thumb.o
                                          0x8 (size before relaxing)
 .ARM.exidx.text._ZN37grass_slope_n32_p16_short_block_stuff18get_palette_numberEv
                0x0000000008060908        0x0 objs/block_stuff.thumb.o
                                          0x8 (size before relaxing)
 .ARM.exidx.text._ZN37grass_slope_n32_p16_short_block_stuff26get_metatile_graphics_slotEv
                0x0000000008060908        0x0 objs/block_stuff.thumb.o
                                          0x8 (size before relaxing)
 .ARM.exidx.text._ZN31grass_in_slope_left_block_stuff19get_metatile_numberEv
                0x0000000008060908        0x0 objs/block_stuff.thumb.o
                                          0x8 (size before relaxing)
 .ARM.exidx.text._ZN31grass_in_slope_left_block_stuff18get_palette_numberEv
                0x0000000008060908        0x0 objs/block_stuff.thumb.o
                                          0x8 (size before relaxing)
 .ARM.exidx.text._ZN31grass_in_slope_left_block_stuff26get_metatile_graphics_slotEv
                0x0000000008060908        0x0 objs/block_stuff.thumb.o
                                          0x8 (size before relaxing)
 .ARM.exidx.text._ZN32grass_in_slope_right_block_stuff19get_metatile_numberEv
                0x0000000008060908        0x0 objs/block_stuff.thumb.o
                                          0x8 (size before relaxing)
 .ARM.exidx.text._ZN32grass_in_slope_right_block_stuff18get_palette_numberEv
                0x0000000008060908        0x0 objs/block_stuff.thumb.o
                                          0x8 (size before relaxing)
 .ARM.exidx.text._ZN32grass_in_slope_right_block_stuff26get_metatile_graphics_slotEv
                0x0000000008060908        0x0 objs/block_stuff.thumb.o
                                          0x8 (size before relaxing)
 .ARM.exidx.iwram_code
                0x0000000008060800        0x8 objs/block_stuff.thumb.o
 .ARM.exidx.text.startup
                0x0000000008060908        0x0 objs/block_stuff.thumb.o
                                          0x8 (size before relaxing)
 .ARM.exidx     0x0000000008060908        0x0 objs/button_stuff.thumb.o
                                          0x8 (size before relaxing)
 .ARM.exidx.iwram_code
                0x0000000008060808        0x8 objs/coll_box_class.arm.o
                                         0x10 (size before relaxing)
 .ARM.exidx.iwram_code
                0x0000000008060810        0x0 objs/coll_box_class.thumb.o
                                          0x8 (size before relaxing)
 .ARM.exidx     0x0000000008060908        0x0 objs/coll_box_class.thumb.o
                                         0x18 (size before relaxing)
 .ARM.exidx.iwram_code
                0x0000000008060810        0x0 objs/coll_point_group_class.thumb.o
                                         0x18 (size before relaxing)
 .ARM.exidx.iwram_code
                0x0000000008060810        0x8 objs/debug_vars.thumb.o
 .ARM.exidx.iwram_code
                0x0000000008060818        0x8 objs/division_funcs.o
 .ARM.exidx     0x0000000008060908        0x0 objs/dma_stuff.thumb.o
                                         0x18 (size before relaxing)
 .ARM.exidx.iwram_code
                0x0000000008060820        0x8 objs/dud_block_stuff_class.thumb.o
                                         0x18 (size before relaxing)
 .ARM.exidx.iwram_code
                0x0000000008060828        0x0 objs/exclam_block_stuff_classes.thumb.o
                                         0x18 (size before relaxing)
 .ARM.exidx.iwram_code
                0x0000000008060828        0x8 objs/eyes_block_stuff_classes.thumb.o
                                         0x40 (size before relaxing)
 .ARM.exidx.iwram_code
                0x0000000008060830        0x8 objs/fixed_classes.thumb.o
 .ARM.exidx.iwram_code
                0x0000000008060838        0x0 objs/interrupt_stuff.arm.o
                                          0x8 (size before relaxing)
 .ARM.exidx.iwram_code
                0x0000000008060838        0x8 objs/interrupt_stuff.thumb.o
 .ARM.exidx     0x0000000008060908        0x0 objs/interrupt_stuff.thumb.o
                                         0x18 (size before relaxing)
 .ARM.exidx.iwram_code
                0x0000000008060840        0x0 objs/log_block_stuff_class.thumb.o
                                         0x18 (size before relaxing)
 .ARM.exidx     0x0000000008060908        0x8 objs/main.thumb.o
                                         0x10 (size before relaxing)
 .ARM.exidx.text.startup
                0x0000000008060910       0x10 objs/main.thumb.o
 .ARM.exidx.iwram_code
                0x0000000008060840        0x8 objs/memory_funcs_8bit.o
                                         0x10 (size before relaxing)
 .ARM.exidx     0x0000000008060920        0x0 objs/oam_entry_classes.thumb.o
                                         0x20 (size before relaxing)
 .ARM.exidx.iwram_code
                0x0000000008060848       0x28 objs/player_sprite_stuff_class.thumb.o
 .ARM.exidx.text._ZNK19player_sprite_stuff15get_sprite_typeEv
                0x0000000008060940        0x8 objs/player_sprite_stuff_class.thumb.o
 .ARM.exidx.text._ZN19player_sprite_stuff16get_gfx_categoryER6sprite
                0x0000000008060948        0x0 objs/player_sprite_stuff_class.thumb.o
                                          0x8 (size before relaxing)
 .ARM.exidx.text._ZN19player_sprite_stuff24get_num_active_gfx_tilesEv
                0x0000000008060948        0x0 objs/player_sprite_stuff_class.thumb.o
                                          0x8 (size before relaxing)
 .ARM.exidx.text._ZNK19player_sprite_stuff12get_tile_arrEv
                0x0000000008060948        0x0 objs/player_sprite_stuff_class.thumb.o
                                          0x8 (size before relaxing)
 .ARM.exidx     0x0000000008060920       0x20 objs/player_sprite_stuff_class.thumb.o
                                         0x28 (size before relaxing)
 .ARM.exidx.iwram_code
                0x0000000008060870       0x18 objs/sprite_base_stuff_class.arm.o
                                         0xb0 (size before relaxing)
 .ARM.exidx.iwram_code
                0x0000000008060888       0x18 objs/sprite_base_stuff_class.thumb.o
                                         0x48 (size before relaxing)
 .ARM.exidx.text._ZNK17sprite_base_stuff12get_tile_arrEv
                0x0000000008060960        0x8 objs/sprite_base_stuff_class.thumb.o
 .ARM.exidx.text._ZN17sprite_base_stuff24get_num_active_gfx_tilesEv
                0x0000000008060968        0x0 objs/sprite_base_stuff_class.thumb.o
                                          0x8 (size before relaxing)
 .ARM.exidx     0x0000000008060948       0x18 objs/sprite_base_stuff_class.thumb.o
                                         0x20 (size before relaxing)
 .ARM.exidx.iwram_code
                0x00000000080608a0       0x18 objs/sprite_class.thumb.o
                                         0x28 (size before relaxing)
 .ARM.exidx     0x0000000008060968        0x8 objs/sprite_class.thumb.o
                                         0x18 (size before relaxing)
 .ARM.exidx.iwram_code
                0x00000000080608b8        0x8 objs/sprite_gfx_stuff.thumb.o
 .ARM.exidx     0x0000000008060970        0x8 objs/sprite_gfx_stuff.thumb.o
 .ARM.exidx.iwram_code
                0x00000000080608c0       0x20 objs/sprite_manager_class.arm.o
 .ARM.exidx     0x0000000008060978       0x28 objs/sprite_manager_class.thumb.o
 .ARM.exidx.text._ZNSt12forward_listI23sprite_init_param_groupSaIS0_EE4sortISt4lessIS0_EEEvT_
                0x00000000080609a0        0x8 objs/sprite_manager_class.thumb.o
 .ARM.exidx.text.startup
                0x00000000080609a8        0x0 objs/sprite_manager_class.thumb.o
                                          0x8 (size before relaxing)
 .ARM.exidx.text._ZNK19muffin_sprite_stuff15get_sprite_typeEv
                0x00000000080609a8        0x0 objs/sprite_type_stuff.thumb.o
                                          0x8 (size before relaxing)
 .ARM.exidx.text._ZN19muffin_sprite_stuff16get_gfx_categoryER6sprite
                0x00000000080609a8        0x0 objs/sprite_type_stuff.thumb.o
                                          0x8 (size before relaxing)
 .ARM.exidx.text._ZN19muffin_sprite_stuff27get_curr_relative_tile_slotER6sprite
                0x00000000080609a8        0x0 objs/sprite_type_stuff.thumb.o
                                          0x8 (size before relaxing)
 .ARM.exidx.text._ZN19muffin_sprite_stuff24get_num_active_gfx_tilesEv
                0x00000000080609a8        0x0 objs/sprite_type_stuff.thumb.o
                                          0x8 (size before relaxing)
 .ARM.exidx.text._ZNK19muffin_sprite_stuff12get_tile_arrEv
                0x00000000080609a8        0x0 objs/sprite_type_stuff.thumb.o
                                          0x8 (size before relaxing)
 .ARM.exidx.text._ZNK24fire_muffin_sprite_stuff15get_sprite_typeEv
                0x00000000080609a8        0x0 objs/sprite_type_stuff.thumb.o
                                          0x8 (size before relaxing)
 .ARM.exidx.text._ZN24fire_muffin_sprite_stuff16get_gfx_categoryER6sprite
                0x00000000080609a8        0x0 objs/sprite_type_stuff.thumb.o
                                          0x8 (size before relaxing)
 .ARM.exidx.text._ZN24fire_muffin_sprite_stuff27get_curr_relative_tile_slotER6sprite
                0x00000000080609a8        0x0 objs/sprite_type_stuff.thumb.o
                                          0x8 (size before relaxing)
 .ARM.exidx.text._ZN24fire_muffin_sprite_stuff24get_num_active_gfx_tilesEv
                0x00000000080609a8        0x0 objs/sprite_type_stuff.thumb.o
                                          0x8 (size before relaxing)
 .ARM.exidx.text._ZNK24fire_muffin_sprite_stuff12get_tile_arrEv
                0x00000000080609a8        0x0 objs/sprite_type_stuff.thumb.o
                                          0x8 (size before relaxing)
 .ARM.exidx.text._ZNK23ice_muffin_sprite_stuff15get_sprite_typeEv
                0x00000000080609a8        0x0 objs/sprite_type_stuff.thumb.o
                                          0x8 (size before relaxing)
 .ARM.exidx.text._ZN23ice_muffin_sprite_stuff16get_gfx_categoryER6sprite
                0x00000000080609a8        0x0 objs/sprite_type_stuff.thumb.o
                                          0x8 (size before relaxing)
 .ARM.exidx.text._ZN23ice_muffin_sprite_stuff27get_curr_relative_tile_slotER6sprite
                0x00000000080609a8        0x0 objs/sprite_type_stuff.thumb.o
                                          0x8 (size before relaxing)
 .ARM.exidx.text._ZN23ice_muffin_sprite_stuff24get_num_active_gfx_tilesEv
                0x00000000080609a8        0x0 objs/sprite_type_stuff.thumb.o
                                          0x8 (size before relaxing)
 .ARM.exidx.text._ZNK23ice_muffin_sprite_stuff12get_tile_arrEv
                0x00000000080609a8        0x0 objs/sprite_type_stuff.thumb.o
                                          0x8 (size before relaxing)
 .ARM.exidx.text._ZNK29chocolate_muffin_sprite_stuff15get_sprite_typeEv
                0x00000000080609a8        0x0 objs/sprite_type_stuff.thumb.o
                                          0x8 (size before relaxing)
 .ARM.exidx.text._ZN29chocolate_muffin_sprite_stuff16get_gfx_categoryER6sprite
                0x00000000080609a8        0x0 objs/sprite_type_stuff.thumb.o
                                          0x8 (size before relaxing)
 .ARM.exidx.text._ZN29chocolate_muffin_sprite_stuff27get_curr_relative_tile_slotER6sprite
                0x00000000080609a8        0x0 objs/sprite_type_stuff.thumb.o
                                          0x8 (size before relaxing)
 .ARM.exidx.text._ZN29chocolate_muffin_sprite_stuff24get_num_active_gfx_tilesEv
                0x00000000080609a8        0x0 objs/sprite_type_stuff.thumb.o
                                          0x8 (size before relaxing)
 .ARM.exidx.text._ZNK29chocolate_muffin_sprite_stuff12get_tile_arrEv
                0x00000000080609a8        0x0 objs/sprite_type_stuff.thumb.o
                                          0x8 (size before relaxing)
 .ARM.exidx.text._ZNK23warp_block_sprite_stuff15get_sprite_typeEv
                0x00000000080609a8        0x0 objs/sprite_type_stuff.thumb.o
                                          0x8 (size before relaxing)
 .ARM.exidx.text._ZN23warp_block_sprite_stuff16get_gfx_categoryER6sprite
                0x00000000080609a8        0x0 objs/sprite_type_stuff.thumb.o
                                          0x8 (size before relaxing)
 .ARM.exidx.text._ZN23warp_block_sprite_stuff27get_curr_relative_tile_slotER6sprite
                0x00000000080609a8        0x0 objs/sprite_type_stuff.thumb.o
                                          0x8 (size before relaxing)
 .ARM.exidx.text._ZN23warp_block_sprite_stuff24get_num_active_gfx_tilesEv
                0x00000000080609a8        0x0 objs/sprite_type_stuff.thumb.o
                                          0x8 (size before relaxing)
 .ARM.exidx.text._ZNK23warp_block_sprite_stuff12get_tile_arrEv
                0x00000000080609a8        0x0 objs/sprite_type_stuff.thumb.o
                                          0x8 (size before relaxing)
 .ARM.exidx.iwram_code
                0x00000000080608e0       0x10 objs/waffle_sprite_stuff_class.thumb.o
                                         0x18 (size before relaxing)
 .ARM.exidx.text._ZNK19waffle_sprite_stuff15get_sprite_typeEv
                0x00000000080609a8        0x0 objs/waffle_sprite_stuff_class.thumb.o
                                          0x8 (size before relaxing)
 .ARM.exidx.text._ZN19waffle_sprite_stuff16get_gfx_categoryER6sprite
                0x00000000080609a8        0x0 objs/waffle_sprite_stuff_class.thumb.o
                                          0x8 (size before relaxing)
 .ARM.exidx.text._ZN19waffle_sprite_stuff27get_curr_relative_tile_slotER6sprite
                0x00000000080609a8        0x0 objs/waffle_sprite_stuff_class.thumb.o
                                          0x8 (size before relaxing)
 .ARM.exidx.text._ZN19waffle_sprite_stuff24get_num_active_gfx_tilesEv
                0x00000000080609a8        0x0 objs/waffle_sprite_stuff_class.thumb.o
                                          0x8 (size before relaxing)
 .ARM.exidx.text._ZNK19waffle_sprite_stuff12get_tile_arrEv
                0x00000000080609a8        0x0 objs/waffle_sprite_stuff_class.thumb.o
                                          0x8 (size before relaxing)
 .ARM.exidx.text._ZN19waffle_sprite_stuff21block_collision_stuffER6sprite
                0x00000000080609a8        0x8 objs/waffle_sprite_stuff_class.thumb.o
 .ARM.exidx.iwram_code
                0x00000000080608f0       0x18 objs/wood_block_stuff_classes.thumb.o
                                         0x48 (size before relaxing)
 .ARM.exidx.text.selfrel_offset31
                0x00000000080609b0        0x8 /usr/lib/gcc/arm-none-eabi/5.2.0/thumb/libgcc.a(unwind-arm.o)
 .ARM.exidx.text.search_EIT_table
                0x00000000080609b8        0x0 /usr/lib/gcc/arm-none-eabi/5.2.0/thumb/libgcc.a(unwind-arm.o)
                                          0x8 (size before relaxing)
 .ARM.exidx.text.__gnu_unwind_get_pr_addr
                0x00000000080609b8        0x0 /usr/lib/gcc/arm-none-eabi/5.2.0/thumb/libgcc.a(unwind-arm.o)
                                          0x8 (size before relaxing)
 .ARM.exidx.text.get_eit_entry
                0x00000000080609b8        0x8 /usr/lib/gcc/arm-none-eabi/5.2.0/thumb/libgcc.a(unwind-arm.o)
 .ARM.exidx.text.restore_non_core_regs
                0x00000000080609c0        0x8 /usr/lib/gcc/arm-none-eabi/5.2.0/thumb/libgcc.a(unwind-arm.o)
 .ARM.exidx.text._Unwind_decode_typeinfo_ptr.isra.0
                0x00000000080609c8        0x8 /usr/lib/gcc/arm-none-eabi/5.2.0/thumb/libgcc.a(unwind-arm.o)
 .ARM.exidx.text.__gnu_unwind_24bit.isra.1
                0x00000000080609d0        0x0 /usr/lib/gcc/arm-none-eabi/5.2.0/thumb/libgcc.a(unwind-arm.o)
                                          0x8 (size before relaxing)
 .ARM.exidx.text._Unwind_DebugHook
                0x00000000080609d0        0x0 /usr/lib/gcc/arm-none-eabi/5.2.0/thumb/libgcc.a(unwind-arm.o)
                                          0x8 (size before relaxing)
 .ARM.exidx.text.unwind_phase2
                0x00000000080609d0        0x8 /usr/lib/gcc/arm-none-eabi/5.2.0/thumb/libgcc.a(unwind-arm.o)
 .ARM.exidx.text.unwind_phase2_forced
                0x00000000080609d8        0x8 /usr/lib/gcc/arm-none-eabi/5.2.0/thumb/libgcc.a(unwind-arm.o)
 .ARM.exidx.text._Unwind_GetCFA
                0x00000000080609e0        0x8 /usr/lib/gcc/arm-none-eabi/5.2.0/thumb/libgcc.a(unwind-arm.o)
 .ARM.exidx.text.__gnu_Unwind_RaiseException
                0x00000000080609e8        0x8 /usr/lib/gcc/arm-none-eabi/5.2.0/thumb/libgcc.a(unwind-arm.o)
 .ARM.exidx.text.__gnu_Unwind_ForcedUnwind
                0x00000000080609f0        0x8 /usr/lib/gcc/arm-none-eabi/5.2.0/thumb/libgcc.a(unwind-arm.o)
 .ARM.exidx.text.__gnu_Unwind_Resume
                0x00000000080609f8        0x8 /usr/lib/gcc/arm-none-eabi/5.2.0/thumb/libgcc.a(unwind-arm.o)
 .ARM.exidx.text.__gnu_Unwind_Resume_or_Rethrow
                0x0000000008060a00        0x8 /usr/lib/gcc/arm-none-eabi/5.2.0/thumb/libgcc.a(unwind-arm.o)
 .ARM.exidx.text._Unwind_Complete
                0x0000000008060a08        0x8 /usr/lib/gcc/arm-none-eabi/5.2.0/thumb/libgcc.a(unwind-arm.o)
 .ARM.exidx.text._Unwind_DeleteException
                0x0000000008060a10        0x8 /usr/lib/gcc/arm-none-eabi/5.2.0/thumb/libgcc.a(unwind-arm.o)
 .ARM.exidx.text._Unwind_VRS_Get
                0x0000000008060a18        0x8 /usr/lib/gcc/arm-none-eabi/5.2.0/thumb/libgcc.a(unwind-arm.o)
 .ARM.exidx.text._Unwind_GetGR
                0x0000000008060a20        0x0 /usr/lib/gcc/arm-none-eabi/5.2.0/thumb/libgcc.a(unwind-arm.o)
                                          0x8 (size before relaxing)
 .ARM.exidx.text._Unwind_VRS_Set
                0x0000000008060a20        0x0 /usr/lib/gcc/arm-none-eabi/5.2.0/thumb/libgcc.a(unwind-arm.o)
                                          0x8 (size before relaxing)
 .ARM.exidx.text._Unwind_SetGR
                0x0000000008060a20        0x0 /usr/lib/gcc/arm-none-eabi/5.2.0/thumb/libgcc.a(unwind-arm.o)
                                          0x8 (size before relaxing)
 .ARM.exidx.text.__gnu_Unwind_Backtrace
                0x0000000008060a20        0x8 /usr/lib/gcc/arm-none-eabi/5.2.0/thumb/libgcc.a(unwind-arm.o)
 .ARM.exidx.text.__gnu_unwind_pr_common
                0x0000000008060a28        0x8 /usr/lib/gcc/arm-none-eabi/5.2.0/thumb/libgcc.a(unwind-arm.o)
 .ARM.exidx.text.__aeabi_unwind_cpp_pr0
                0x0000000008060a30        0x8 /usr/lib/gcc/arm-none-eabi/5.2.0/thumb/libgcc.a(unwind-arm.o)
 .ARM.exidx.text.__aeabi_unwind_cpp_pr1
                0x0000000008060a38        0x0 /usr/lib/gcc/arm-none-eabi/5.2.0/thumb/libgcc.a(unwind-arm.o)
                                          0x8 (size before relaxing)
 .ARM.exidx.text.__aeabi_unwind_cpp_pr2
                0x0000000008060a38        0x0 /usr/lib/gcc/arm-none-eabi/5.2.0/thumb/libgcc.a(unwind-arm.o)
                                          0x8 (size before relaxing)
 .ARM.exidx.text._Unwind_VRS_Pop
                0x0000000008060a38       0x10 /usr/lib/gcc/arm-none-eabi/5.2.0/thumb/libgcc.a(unwind-arm.o)
                                          0x8 (size before relaxing)
 .ARM.exidx.text.next_unwind_byte
                0x0000000008060a48        0x0 /usr/lib/gcc/arm-none-eabi/5.2.0/thumb/libgcc.a(pr-support.o)
                                          0x8 (size before relaxing)
 .ARM.exidx.text._Unwind_GetGR.constprop.0
                0x0000000008060a48        0x8 /usr/lib/gcc/arm-none-eabi/5.2.0/thumb/libgcc.a(pr-support.o)
 .ARM.exidx.text.unwind_UCB_from_context
                0x0000000008060a50        0x8 /usr/lib/gcc/arm-none-eabi/5.2.0/thumb/libgcc.a(pr-support.o)
 .ARM.exidx.text.__gnu_unwind_execute
                0x0000000008060a58        0x8 /usr/lib/gcc/arm-none-eabi/5.2.0/thumb/libgcc.a(pr-support.o)
 .ARM.exidx.text.__gnu_unwind_frame
                0x0000000008060a60        0x8 /usr/lib/gcc/arm-none-eabi/5.2.0/thumb/libgcc.a(pr-support.o)
 .ARM.exidx.text._Unwind_GetRegionStart
                0x0000000008060a68        0x8 /usr/lib/gcc/arm-none-eabi/5.2.0/thumb/libgcc.a(pr-support.o)
 .ARM.exidx.text._Unwind_GetLanguageSpecificData
                0x0000000008060a70        0x0 /usr/lib/gcc/arm-none-eabi/5.2.0/thumb/libgcc.a(pr-support.o)
                                          0x8 (size before relaxing)
 .ARM.exidx.text._Unwind_GetTextRelBase
                0x0000000008060a70        0x8 /usr/lib/gcc/arm-none-eabi/5.2.0/thumb/libgcc.a(pr-support.o)
 .ARM.exidx.text._Unwind_GetDataRelBase
                0x0000000008060a78        0x0 /usr/lib/gcc/arm-none-eabi/5.2.0/thumb/libgcc.a(pr-support.o)
                                          0x8 (size before relaxing)
 .ARM.exidx.text._Znwj
                0x0000000008060a78        0x8 /usr/lib/gcc/arm-none-eabi/5.2.0/../../../../arm-none-eabi/lib/thumb/libstdc++.a(new_op.o)
 .ARM.exidx.text._ZL23__gxx_exception_cleanup19_Unwind_Reason_CodeP21_Unwind_Control_Block
                0x0000000008060a80        0x0 /usr/lib/gcc/arm-none-eabi/5.2.0/../../../../arm-none-eabi/lib/thumb/libstdc++.a(eh_throw.o)
                                          0x8 (size before relaxing)
 .ARM.exidx.text.__cxa_throw
                0x0000000008060a80        0x8 /usr/lib/gcc/arm-none-eabi/5.2.0/../../../../arm-none-eabi/lib/thumb/libstdc++.a(eh_throw.o)
 .ARM.exidx.text.__cxa_rethrow
                0x0000000008060a88        0x8 /usr/lib/gcc/arm-none-eabi/5.2.0/../../../../arm-none-eabi/lib/thumb/libstdc++.a(eh_throw.o)
 .ARM.exidx.text._ZNKSt9bad_alloc4whatEv
                0x0000000008060a90        0x8 /usr/lib/gcc/arm-none-eabi/5.2.0/../../../../arm-none-eabi/lib/thumb/libstdc++.a(bad_alloc.o)
 .ARM.exidx.text._ZNSt9bad_allocD2Ev
                0x0000000008060a98        0x0 /usr/lib/gcc/arm-none-eabi/5.2.0/../../../../arm-none-eabi/lib/thumb/libstdc++.a(bad_alloc.o)
                                          0x8 (size before relaxing)
 .ARM.exidx.text._ZNSt9bad_allocD0Ev
                0x0000000008060a98        0x0 /usr/lib/gcc/arm-none-eabi/5.2.0/../../../../arm-none-eabi/lib/thumb/libstdc++.a(bad_alloc.o)
                                          0x8 (size before relaxing)
 .ARM.exidx.text._ZN10__cxxabiv120__si_class_type_infoD2Ev
                0x0000000008060a98        0x8 /usr/lib/gcc/arm-none-eabi/5.2.0/../../../../arm-none-eabi/lib/thumb/libstdc++.a(si_class_type_info.o)
 .ARM.exidx.text._ZN10__cxxabiv120__si_class_type_infoD0Ev
                0x0000000008060aa0        0x0 /usr/lib/gcc/arm-none-eabi/5.2.0/../../../../arm-none-eabi/lib/thumb/libstdc++.a(si_class_type_info.o)
                                          0x8 (size before relaxing)
 .ARM.exidx.text._ZNK10__cxxabiv120__si_class_type_info12__do_dyncastEiNS_17__class_type_info10__sub_kindEPKS1_PKvS4_S6_RNS1_16__dyncast_resultE
                0x0000000008060aa0        0x8 /usr/lib/gcc/arm-none-eabi/5.2.0/../../../../arm-none-eabi/lib/thumb/libstdc++.a(si_class_type_info.o)
 .ARM.exidx.text._ZNK10__cxxabiv120__si_class_type_info20__do_find_public_srcEiPKvPKNS_17__class_type_infoES2_
                0x0000000008060aa8        0x8 /usr/lib/gcc/arm-none-eabi/5.2.0/../../../../arm-none-eabi/lib/thumb/libstdc++.a(si_class_type_info.o)
 .ARM.exidx.text._ZNK10__cxxabiv120__si_class_type_info11__do_upcastEPKNS_17__class_type_infoEPKvRNS1_15__upcast_resultE
                0x0000000008060ab0        0x8 /usr/lib/gcc/arm-none-eabi/5.2.0/../../../../arm-none-eabi/lib/thumb/libstdc++.a(si_class_type_info.o)
 .ARM.exidx.text.__cxa_get_globals_fast
                0x0000000008060ab8        0x8 /usr/lib/gcc/arm-none-eabi/5.2.0/../../../../arm-none-eabi/lib/thumb/libstdc++.a(eh_globals.o)
 .ARM.exidx.text.__cxa_get_globals
                0x0000000008060ac0        0x0 /usr/lib/gcc/arm-none-eabi/5.2.0/../../../../arm-none-eabi/lib/thumb/libstdc++.a(eh_globals.o)
                                          0x8 (size before relaxing)
 .ARM.exidx.text._ZdlPv
                0x0000000008060ac0        0x0 /usr/lib/gcc/arm-none-eabi/5.2.0/../../../../arm-none-eabi/lib/thumb/libstdc++.a(del_op.o)
                                          0x8 (size before relaxing)
 .ARM.exidx.text._ZSt15set_new_handlerPFvvE
                0x0000000008060ac0        0x0 /usr/lib/gcc/arm-none-eabi/5.2.0/../../../../arm-none-eabi/lib/thumb/libstdc++.a(new_handler.o)
                                          0x8 (size before relaxing)
 .ARM.exidx.text._ZSt15get_new_handlerv
                0x0000000008060ac0        0x0 /usr/lib/gcc/arm-none-eabi/5.2.0/../../../../arm-none-eabi/lib/thumb/libstdc++.a(new_handler.o)
                                          0x8 (size before relaxing)
 .ARM.exidx.text._ZNK10__cxxabiv117__class_type_info11__do_upcastEPKS0_PPv
                0x0000000008060ac0        0x8 /usr/lib/gcc/arm-none-eabi/5.2.0/../../../../arm-none-eabi/lib/thumb/libstdc++.a(class_type_info.o)
 .ARM.exidx.text._ZNK10__cxxabiv117__class_type_info20__do_find_public_srcEiPKvPKS0_S2_
                0x0000000008060ac8        0x8 /usr/lib/gcc/arm-none-eabi/5.2.0/../../../../arm-none-eabi/lib/thumb/libstdc++.a(class_type_info.o)
 .ARM.exidx.text._ZN10__cxxabiv117__class_type_infoD2Ev
                0x0000000008060ad0        0x8 /usr/lib/gcc/arm-none-eabi/5.2.0/../../../../arm-none-eabi/lib/thumb/libstdc++.a(class_type_info.o)
 .ARM.exidx.text._ZN10__cxxabiv117__class_type_infoD0Ev
                0x0000000008060ad8        0x0 /usr/lib/gcc/arm-none-eabi/5.2.0/../../../../arm-none-eabi/lib/thumb/libstdc++.a(class_type_info.o)
                                          0x8 (size before relaxing)
 .ARM.exidx.text._ZNK10__cxxabiv117__class_type_info11__do_upcastEPKS0_PKvRNS0_15__upcast_resultE
                0x0000000008060ad8        0x8 /usr/lib/gcc/arm-none-eabi/5.2.0/../../../../arm-none-eabi/lib/thumb/libstdc++.a(class_type_info.o)
 .ARM.exidx.text._ZNK10__cxxabiv117__class_type_info12__do_dyncastEiNS0_10__sub_kindEPKS0_PKvS3_S5_RNS0_16__dyncast_resultE
                0x0000000008060ae0        0x8 /usr/lib/gcc/arm-none-eabi/5.2.0/../../../../arm-none-eabi/lib/thumb/libstdc++.a(class_type_info.o)
 .ARM.exidx.text._ZNK10__cxxabiv117__class_type_info10__do_catchEPKSt9type_infoPPvj
                0x0000000008060ae8        0x0 /usr/lib/gcc/arm-none-eabi/5.2.0/../../../../arm-none-eabi/lib/thumb/libstdc++.a(class_type_info.o)
                                          0x8 (size before relaxing)
 .ARM.exidx.text._ZN10__cxxabiv1L24__is_gxx_exception_classEPc
                0x0000000008060ae8        0x8 /usr/lib/gcc/arm-none-eabi/5.2.0/../../../../arm-none-eabi/lib/thumb/libstdc++.a(eh_catch.o)
 .ARM.exidx.text.__cxa_get_exception_ptr
                0x0000000008060af0        0x0 /usr/lib/gcc/arm-none-eabi/5.2.0/../../../../arm-none-eabi/lib/thumb/libstdc++.a(eh_catch.o)
                                          0x8 (size before relaxing)
 .ARM.exidx.text.__cxa_begin_catch
                0x0000000008060af0        0x8 /usr/lib/gcc/arm-none-eabi/5.2.0/../../../../arm-none-eabi/lib/thumb/libstdc++.a(eh_catch.o)
 .ARM.exidx.text.__cxa_end_catch
                0x0000000008060af8        0x8 /usr/lib/gcc/arm-none-eabi/5.2.0/../../../../arm-none-eabi/lib/thumb/libstdc++.a(eh_catch.o)
 .ARM.exidx.text._ZSt18uncaught_exceptionv
                0x0000000008060b00        0x8 /usr/lib/gcc/arm-none-eabi/5.2.0/../../../../arm-none-eabi/lib/thumb/libstdc++.a(eh_catch.o)
 .ARM.exidx.text._ZN10__cxxabiv1L24__is_gxx_exception_classEPc
                0x0000000008060b08        0x0 /usr/lib/gcc/arm-none-eabi/5.2.0/../../../../arm-none-eabi/lib/thumb/libstdc++.a(eh_call.o)
                                          0x8 (size before relaxing)
 .ARM.exidx.text.__cxa_call_terminate
                0x0000000008060b08        0x0 /usr/lib/gcc/arm-none-eabi/5.2.0/../../../../arm-none-eabi/lib/thumb/libstdc++.a(eh_call.o)
                                          0x8 (size before relaxing)
 .ARM.exidx.text.__cxa_call_unexpected
                0x0000000008060b08        0x8 /usr/lib/gcc/arm-none-eabi/5.2.0/../../../../arm-none-eabi/lib/thumb/libstdc++.a(eh_call.o)
 .ARM.exidx.text._ZN10__cxxabiv111__terminateEPFvvE
                0x0000000008060b10        0x8 /usr/lib/gcc/arm-none-eabi/5.2.0/../../../../arm-none-eabi/lib/thumb/libstdc++.a(eh_terminate.o)
 .ARM.exidx.text._ZSt9terminatev
                0x0000000008060b18        0x8 /usr/lib/gcc/arm-none-eabi/5.2.0/../../../../arm-none-eabi/lib/thumb/libstdc++.a(eh_terminate.o)
 .ARM.exidx.text._ZN10__cxxabiv112__unexpectedEPFvvE
                0x0000000008060b20        0x8 /usr/lib/gcc/arm-none-eabi/5.2.0/../../../../arm-none-eabi/lib/thumb/libstdc++.a(eh_terminate.o)
 .ARM.exidx.text._ZSt10unexpectedv
                0x0000000008060b28        0x0 /usr/lib/gcc/arm-none-eabi/5.2.0/../../../../arm-none-eabi/lib/thumb/libstdc++.a(eh_terminate.o)
                                          0x8 (size before relaxing)
 .ARM.exidx.text._ZSt13set_terminatePFvvE
                0x0000000008060b28        0x8 /usr/lib/gcc/arm-none-eabi/5.2.0/../../../../arm-none-eabi/lib/thumb/libstdc++.a(eh_terminate.o)
 .ARM.exidx.text._ZSt13get_terminatev
                0x0000000008060b30        0x0 /usr/lib/gcc/arm-none-eabi/5.2.0/../../../../arm-none-eabi/lib/thumb/libstdc++.a(eh_terminate.o)
                                          0x8 (size before relaxing)
 .ARM.exidx.text._ZSt14set_unexpectedPFvvE
                0x0000000008060b30        0x0 /usr/lib/gcc/arm-none-eabi/5.2.0/../../../../arm-none-eabi/lib/thumb/libstdc++.a(eh_terminate.o)
                                          0x8 (size before relaxing)
 .ARM.exidx.text._ZSt14get_unexpectedv
                0x0000000008060b30        0x0 /usr/lib/gcc/arm-none-eabi/5.2.0/../../../../arm-none-eabi/lib/thumb/libstdc++.a(eh_terminate.o)
                                          0x8 (size before relaxing)
 .ARM.exidx.text._ZL12read_uleb128PKhPm
                0x0000000008060b30        0x0 /usr/lib/gcc/arm-none-eabi/5.2.0/../../../../arm-none-eabi/lib/thumb/libstdc++.a(eh_personality.o)
                                          0x8 (size before relaxing)
 .ARM.exidx.text._ZL12read_sleb128PKhPl
                0x0000000008060b30        0x0 /usr/lib/gcc/arm-none-eabi/5.2.0/../../../../arm-none-eabi/lib/thumb/libstdc++.a(eh_personality.o)
                                          0x8 (size before relaxing)
 .ARM.exidx.text._ZL28read_encoded_value_with_basehjPKhPj
                0x0000000008060b30        0x8 /usr/lib/gcc/arm-none-eabi/5.2.0/../../../../arm-none-eabi/lib/thumb/libstdc++.a(eh_personality.o)
 .ARM.exidx.text._ZL21base_of_encoded_valuehP15_Unwind_Context
                0x0000000008060b38        0x8 /usr/lib/gcc/arm-none-eabi/5.2.0/../../../../arm-none-eabi/lib/thumb/libstdc++.a(eh_personality.o)
 .ARM.exidx.text._ZL18read_encoded_valueP15_Unwind_ContexthPKhPj
                0x0000000008060b40        0x8 /usr/lib/gcc/arm-none-eabi/5.2.0/../../../../arm-none-eabi/lib/thumb/libstdc++.a(eh_personality.o)
 .ARM.exidx.text._ZL17parse_lsda_headerP15_Unwind_ContextPKhP16lsda_header_info
                0x0000000008060b48        0x8 /usr/lib/gcc/arm-none-eabi/5.2.0/../../../../arm-none-eabi/lib/thumb/libstdc++.a(eh_personality.o)
 .ARM.exidx.text._Unwind_GetGR
                0x0000000008060b50        0x8 /usr/lib/gcc/arm-none-eabi/5.2.0/../../../../arm-none-eabi/lib/thumb/libstdc++.a(eh_personality.o)
 .ARM.exidx.text.__gxx_personality_v0
                0x0000000008060b58        0x8 /usr/lib/gcc/arm-none-eabi/5.2.0/../../../../arm-none-eabi/lib/thumb/libstdc++.a(eh_personality.o)
 .ARM.exidx.text._ZNSt9exceptionD2Ev
                0x0000000008060b60        0x8 /usr/lib/gcc/arm-none-eabi/5.2.0/../../../../arm-none-eabi/lib/thumb/libstdc++.a(eh_exception.o)
 .ARM.exidx.text._ZNSt13bad_exceptionD2Ev
                0x0000000008060b68        0x0 /usr/lib/gcc/arm-none-eabi/5.2.0/../../../../arm-none-eabi/lib/thumb/libstdc++.a(eh_exception.o)
                                          0x8 (size before relaxing)
 .ARM.exidx.text._ZNKSt9exception4whatEv
                0x0000000008060b68        0x0 /usr/lib/gcc/arm-none-eabi/5.2.0/../../../../arm-none-eabi/lib/thumb/libstdc++.a(eh_exception.o)
                                          0x8 (size before relaxing)
 .ARM.exidx.text._ZNKSt13bad_exception4whatEv
                0x0000000008060b68        0x0 /usr/lib/gcc/arm-none-eabi/5.2.0/../../../../arm-none-eabi/lib/thumb/libstdc++.a(eh_exception.o)
                                          0x8 (size before relaxing)
 .ARM.exidx.text._ZNSt9exceptionD0Ev
                0x0000000008060b68        0x0 /usr/lib/gcc/arm-none-eabi/5.2.0/../../../../arm-none-eabi/lib/thumb/libstdc++.a(eh_exception.o)
                                          0x8 (size before relaxing)
 .ARM.exidx.text._ZNSt13bad_exceptionD0Ev
                0x0000000008060b68        0x0 /usr/lib/gcc/arm-none-eabi/5.2.0/../../../../arm-none-eabi/lib/thumb/libstdc++.a(eh_exception.o)
                                          0x8 (size before relaxing)
 .ARM.exidx.text._ZN10__cxxabiv115__forced_unwindD2Ev
                0x0000000008060b68        0x0 /usr/lib/gcc/arm-none-eabi/5.2.0/../../../../arm-none-eabi/lib/thumb/libstdc++.a(eh_exception.o)
                                          0x8 (size before relaxing)
 .ARM.exidx.text._ZN10__cxxabiv115__forced_unwindD0Ev
                0x0000000008060b68        0x0 /usr/lib/gcc/arm-none-eabi/5.2.0/../../../../arm-none-eabi/lib/thumb/libstdc++.a(eh_exception.o)
                                          0x8 (size before relaxing)
 .ARM.exidx.text._ZN10__cxxabiv119__foreign_exceptionD2Ev
                0x0000000008060b68        0x0 /usr/lib/gcc/arm-none-eabi/5.2.0/../../../../arm-none-eabi/lib/thumb/libstdc++.a(eh_exception.o)
                                          0x8 (size before relaxing)
 .ARM.exidx.text._ZN10__cxxabiv119__foreign_exceptionD0Ev
                0x0000000008060b68        0x0 /usr/lib/gcc/arm-none-eabi/5.2.0/../../../../arm-none-eabi/lib/thumb/libstdc++.a(eh_exception.o)
                                          0x8 (size before relaxing)
 .ARM.exidx.text._ZN12_GLOBAL__N_14pool4freeEPv.constprop.4
                0x0000000008060b68        0x0 /usr/lib/gcc/arm-none-eabi/5.2.0/../../../../arm-none-eabi/lib/thumb/libstdc++.a(eh_alloc.o)
                                          0x8 (size before relaxing)
 .ARM.exidx.text._ZN12_GLOBAL__N_14pool8allocateEj.constprop.5
                0x0000000008060b68        0x0 /usr/lib/gcc/arm-none-eabi/5.2.0/../../../../arm-none-eabi/lib/thumb/libstdc++.a(eh_alloc.o)
                                          0x8 (size before relaxing)
 .ARM.exidx.text.__cxa_allocate_exception
                0x0000000008060b68        0x0 /usr/lib/gcc/arm-none-eabi/5.2.0/../../../../arm-none-eabi/lib/thumb/libstdc++.a(eh_alloc.o)
                                          0x8 (size before relaxing)
 .ARM.exidx.text.__cxa_free_exception
                0x0000000008060b68        0x0 /usr/lib/gcc/arm-none-eabi/5.2.0/../../../../arm-none-eabi/lib/thumb/libstdc++.a(eh_alloc.o)
                                          0x8 (size before relaxing)
 .ARM.exidx.text.__cxa_allocate_dependent_exception
                0x0000000008060b68        0x0 /usr/lib/gcc/arm-none-eabi/5.2.0/../../../../arm-none-eabi/lib/thumb/libstdc++.a(eh_alloc.o)
                                          0x8 (size before relaxing)
 .ARM.exidx.text.__cxa_free_dependent_exception
                0x0000000008060b68        0x0 /usr/lib/gcc/arm-none-eabi/5.2.0/../../../../arm-none-eabi/lib/thumb/libstdc++.a(eh_alloc.o)
                                          0x8 (size before relaxing)
 .ARM.exidx.text.startup._GLOBAL__sub_I___cxa_allocate_exception
                0x0000000008060b68        0x0 /usr/lib/gcc/arm-none-eabi/5.2.0/../../../../arm-none-eabi/lib/thumb/libstdc++.a(eh_alloc.o)
                                          0x8 (size before relaxing)
 .ARM.exidx.text._ZNSt9type_infoD2Ev
                0x0000000008060b68        0x0 /usr/lib/gcc/arm-none-eabi/5.2.0/../../../../arm-none-eabi/lib/thumb/libstdc++.a(tinfo.o)
                                          0x8 (size before relaxing)
 .ARM.exidx.text._ZNKSt9type_info15__is_function_pEv
                0x0000000008060b68        0x0 /usr/lib/gcc/arm-none-eabi/5.2.0/../../../../arm-none-eabi/lib/thumb/libstdc++.a(tinfo.o)
                                          0x8 (size before relaxing)
 .ARM.exidx.text._ZNKSt9type_info11__do_upcastEPKN10__cxxabiv117__class_type_infoEPPv
                0x0000000008060b68        0x0 /usr/lib/gcc/arm-none-eabi/5.2.0/../../../../arm-none-eabi/lib/thumb/libstdc++.a(tinfo.o)
                                          0x8 (size before relaxing)
 .ARM.exidx.text._ZNSt9type_infoD0Ev
                0x0000000008060b68        0x0 /usr/lib/gcc/arm-none-eabi/5.2.0/../../../../arm-none-eabi/lib/thumb/libstdc++.a(tinfo.o)
                                          0x8 (size before relaxing)
 .ARM.exidx.text._ZNKSt9type_infoeqERKS_
                0x0000000008060b68        0x0 /usr/lib/gcc/arm-none-eabi/5.2.0/../../../../arm-none-eabi/lib/thumb/libstdc++.a(tinfo.o)
                                          0x8 (size before relaxing)
 .ARM.exidx.text._ZNKSt9type_info10__do_catchEPKS_PPvj
                0x0000000008060b68        0x0 /usr/lib/gcc/arm-none-eabi/5.2.0/../../../../arm-none-eabi/lib/thumb/libstdc++.a(tinfo.o)
                                          0x8 (size before relaxing)
 .ARM.exidx.text._ZN10__cxxabiv1L24__is_gxx_exception_classEPc
                0x0000000008060b68        0x0 /usr/lib/gcc/arm-none-eabi/5.2.0/../../../../arm-none-eabi/lib/thumb/libstdc++.a(eh_arm.o)
                                          0x8 (size before relaxing)
 .ARM.exidx.text.__cxa_type_match
                0x0000000008060b68        0x8 /usr/lib/gcc/arm-none-eabi/5.2.0/../../../../arm-none-eabi/lib/thumb/libstdc++.a(eh_arm.o)
 .ARM.exidx.text.__cxa_begin_cleanup
                0x0000000008060b70        0x8 /usr/lib/gcc/arm-none-eabi/5.2.0/../../../../arm-none-eabi/lib/thumb/libstdc++.a(eh_arm.o)
 .ARM.exidx.text.__gnu_end_cleanup
                0x0000000008060b78        0x0 /usr/lib/gcc/arm-none-eabi/5.2.0/../../../../arm-none-eabi/lib/thumb/libstdc++.a(eh_arm.o)
                                          0x8 (size before relaxing)
 .ARM.exidx.text.__cxa_pure_virtual
                0x0000000008060b78        0x8 /usr/lib/gcc/arm-none-eabi/5.2.0/../../../../arm-none-eabi/lib/thumb/libstdc++.a(pure.o)
 .ARM.exidx.text.__cxa_deleted_virtual
                0x0000000008060b80        0x0 /usr/lib/gcc/arm-none-eabi/5.2.0/../../../../arm-none-eabi/lib/thumb/libstdc++.a(pure.o)
                                          0x8 (size before relaxing)
 .ARM.exidx.text._ZN9__gnu_cxx27__verbose_terminate_handlerEv
                0x0000000008060b80       0x10 /usr/lib/gcc/arm-none-eabi/5.2.0/../../../../arm-none-eabi/lib/thumb/libstdc++.a(vterminate.o)
                                          0x8 (size before relaxing)
 .ARM.exidx.text.__cxa_current_exception_type
                0x0000000008060b90        0x0 /usr/lib/gcc/arm-none-eabi/5.2.0/../../../../arm-none-eabi/lib/thumb/libstdc++.a(eh_type.o)
                                          0x8 (size before relaxing)
 .ARM.exidx.text.__udivmoddi4
                0x0000000008060b90        0x0 /usr/lib/gcc/arm-none-eabi/5.2.0/libgcc.a(_udivmoddi4.o)
                                          0x8 (size before relaxing)
                0x0000000008060b90                __exidx_end = .

.ARM.attributes
                0x0000000008060b90       0x2c
 *(.ARM.attributes)
 .ARM.attributes
                0x0000000008060b90       0x16 /usr/lib/gcc/arm-none-eabi/5.2.0/crti.o
 .ARM.attributes
                0x0000000008060ba6       0x30 /usr/lib/gcc/arm-none-eabi/5.2.0/crtbegin.o
 .ARM.attributes
                0x0000000008060bd6       0x14 /usr/lib/gcc/arm-none-eabi/5.2.0/../../../../arm-none-eabi/lib/crt0.o
 .ARM.attributes
                0x0000000008060bea       0x30 objs/active_level_class.thumb.o
 .ARM.attributes
                0x0000000008060c1a       0x30 objs/active_level_manager_class.arm.o
 .ARM.attributes
                0x0000000008060c4a       0x30 objs/active_level_manager_class.thumb.o
 .ARM.attributes
                0x0000000008060c7a       0x30 objs/air_block_stuff_class.thumb.o
 .ARM.attributes
                0x0000000008060caa       0x20 objs/asm_init.o
 .ARM.attributes
                0x0000000008060cca       0x30 objs/bg_reg_stuff.arm.o
 .ARM.attributes
                0x0000000008060cfa       0x30 objs/block_base_stuff_class.thumb.o
 .ARM.attributes
                0x0000000008060d2a       0x30 objs/block_stuff.thumb.o
 .ARM.attributes
                0x0000000008060d5a       0x30 objs/button_stuff.thumb.o
 .ARM.attributes
                0x0000000008060d8a       0x30 objs/coll_box_class.arm.o
 .ARM.attributes
                0x0000000008060dba       0x30 objs/coll_box_class.thumb.o
 .ARM.attributes
                0x0000000008060dea       0x30 objs/coll_point_group_class.thumb.o
 .ARM.attributes
                0x0000000008060e1a       0x30 objs/debug_vars.thumb.o
 .ARM.attributes
                0x0000000008060e4a       0x20 objs/division_funcs.o
 .ARM.attributes
                0x0000000008060e6a       0x30 objs/dma_stuff.thumb.o
 .ARM.attributes
                0x0000000008060e9a       0x30 objs/dud_block_stuff_class.thumb.o
 .ARM.attributes
                0x0000000008060eca       0x30 objs/exclam_block_stuff_classes.thumb.o
 .ARM.attributes
                0x0000000008060efa       0x30 objs/eyes_block_stuff_classes.thumb.o
 .ARM.attributes
                0x0000000008060f2a       0x30 objs/fixed_classes.thumb.o
 .ARM.attributes
                0x0000000008060f5a       0x30 objs/grass_and_dirt_block_stuff_classes.thumb.o
 .ARM.attributes
                0x0000000008060f8a       0x30 objs/interrupt_stuff.arm.o
 .ARM.attributes
                0x0000000008060fba       0x30 objs/interrupt_stuff.thumb.o
 .ARM.attributes
                0x0000000008060fea       0x30 objs/level_class.thumb.o
 .ARM.attributes
                0x000000000806101a       0x30 objs/log_block_stuff_class.thumb.o
 .ARM.attributes
                0x000000000806104a       0x30 objs/main.thumb.o
 .ARM.attributes
                0x000000000806107a       0x20 objs/memcpy32_from_tonc.o
 .ARM.attributes
                0x000000000806109a       0x20 objs/memory_funcs_8bit.o
 .ARM.attributes
                0x00000000080610ba       0x30 objs/muffin_sprite_stuff_classes.thumb.o
 .ARM.attributes
                0x00000000080610ea       0x30 objs/oam_entry_classes.thumb.o
 .ARM.attributes
                0x000000000806111a       0x30 objs/player_sprite_stuff_class.thumb.o
 .ARM.attributes
                0x000000000806114a       0x14 objs/practice_17.bin.o
 .ARM.attributes
                0x000000000806115e       0x20 objs/ram_funcs1.o
 .ARM.attributes
                0x000000000806117e       0x20 objs/sherwin_gfx.o
 .ARM.attributes
                0x000000000806119e       0x30 objs/sprite_base_stuff_class.arm.o
 .ARM.attributes
                0x00000000080611ce       0x30 objs/sprite_base_stuff_class.thumb.o
 .ARM.attributes
                0x00000000080611fe       0x30 objs/sprite_class.thumb.o
 .ARM.attributes
                0x000000000806122e       0x30 objs/sprite_gfx_stuff.thumb.o
 .ARM.attributes
                0x000000000806125e       0x30 objs/sprite_manager_class.arm.o
 .ARM.attributes
                0x000000000806128e       0x30 objs/sprite_manager_class.thumb.o
 .ARM.attributes
                0x00000000080612be       0x30 objs/sprite_type_stuff.thumb.o
 .ARM.attributes
                0x00000000080612ee       0x30 objs/sublevel_class.thumb.o
 .ARM.attributes
                0x000000000806131e       0x30 objs/test_level.thumb.o
 .ARM.attributes
                0x000000000806134e       0x20 objs/the_block_gfx.o
 .ARM.attributes
                0x000000000806136e       0x20 objs/the_block_like_sprites_gfx.o
 .ARM.attributes
                0x000000000806138e       0x20 objs/the_golem_enemy_gfx.o
 .ARM.attributes
                0x00000000080613ae       0x20 objs/the_powerup_gfx.o
 .ARM.attributes
                0x00000000080613ce       0x20 objs/title_screen.o
 .ARM.attributes
                0x00000000080613ee       0x30 objs/waffle_sprite_stuff_class.arm.o
 .ARM.attributes
                0x000000000806141e       0x30 objs/waffle_sprite_stuff_class.thumb.o
 .ARM.attributes
                0x000000000806144e       0x30 objs/warp_block_sprite_stuff_class.thumb.o
 .ARM.attributes
                0x000000000806147e       0x30 objs/wood_block_stuff_classes.thumb.o
 .ARM.attributes
                0x00000000080614ae       0x30 /usr/lib/gcc/arm-none-eabi/5.2.0/thumb/libgcc.a(unwind-arm.o)
 .ARM.attributes
                0x00000000080614de       0x1c /usr/lib/gcc/arm-none-eabi/5.2.0/thumb/libgcc.a(libunwind.o)
 .ARM.attributes
                0x00000000080614fa       0x30 /usr/lib/gcc/arm-none-eabi/5.2.0/thumb/libgcc.a(pr-support.o)
 .ARM.attributes
                0x000000000806152a       0x16 /usr/lib/gcc/arm-none-eabi/5.2.0/thumb/libgcc.a(_thumb1_case_uqi.o)
 .ARM.attributes
                0x0000000008061540       0x30 /usr/lib/gcc/arm-none-eabi/5.2.0/../../../../arm-none-eabi/lib/thumb/libc.a(lib_a-abort.o)
 .ARM.attributes
                0x0000000008061570       0x30 /usr/lib/gcc/arm-none-eabi/5.2.0/../../../../arm-none-eabi/lib/thumb/libc.a(lib_a-aeabi_atexit.o)
 .ARM.attributes
                0x00000000080615a0       0x30 /usr/lib/gcc/arm-none-eabi/5.2.0/../../../../arm-none-eabi/lib/thumb/libc.a(lib_a-atexit.o)
 .ARM.attributes
                0x00000000080615d0       0x30 /usr/lib/gcc/arm-none-eabi/5.2.0/../../../../arm-none-eabi/lib/thumb/libc.a(lib_a-cxa_atexit.o)
 .ARM.attributes
                0x0000000008061600       0x30 /usr/lib/gcc/arm-none-eabi/5.2.0/../../../../arm-none-eabi/lib/thumb/libc.a(lib_a-exit.o)
 .ARM.attributes
                0x0000000008061630       0x30 /usr/lib/gcc/arm-none-eabi/5.2.0/../../../../arm-none-eabi/lib/thumb/libc.a(lib_a-fini.o)
 .ARM.attributes
                0x0000000008061660       0x30 /usr/lib/gcc/arm-none-eabi/5.2.0/../../../../arm-none-eabi/lib/thumb/libc.a(lib_a-impure.o)
 .ARM.attributes
                0x0000000008061690       0x30 /usr/lib/gcc/arm-none-eabi/5.2.0/../../../../arm-none-eabi/lib/thumb/libc.a(lib_a-init.o)
 .ARM.attributes
                0x00000000080616c0       0x30 /usr/lib/gcc/arm-none-eabi/5.2.0/../../../../arm-none-eabi/lib/thumb/libc.a(lib_a-memcpy.o)
 .ARM.attributes
                0x00000000080616f0       0x30 /usr/lib/gcc/arm-none-eabi/5.2.0/../../../../arm-none-eabi/lib/thumb/libc.a(lib_a-memset.o)
 .ARM.attributes
                0x0000000008061720       0x30 /usr/lib/gcc/arm-none-eabi/5.2.0/../../../../arm-none-eabi/lib/thumb/libc.a(lib_a-signal.o)
 .ARM.attributes
                0x0000000008061750       0x30 /usr/lib/gcc/arm-none-eabi/5.2.0/../../../../arm-none-eabi/lib/thumb/libc.a(lib_a-signalr.o)
 .ARM.attributes
                0x0000000008061780       0x30 /usr/lib/gcc/arm-none-eabi/5.2.0/../../../../arm-none-eabi/lib/thumb/libc.a(lib_a-__atexit.o)
 .ARM.attributes
                0x00000000080617b0       0x30 /usr/lib/gcc/arm-none-eabi/5.2.0/../../../../arm-none-eabi/lib/thumb/libc.a(lib_a-__call_atexit.o)
 .ARM.attributes
                0x00000000080617e0       0x30 /usr/lib/gcc/arm-none-eabi/5.2.0/../../../../arm-none-eabi/lib/thumb/libc.a(lib_a-mallocr.o)
 .ARM.attributes
                0x0000000008061810       0x30 /usr/lib/gcc/arm-none-eabi/5.2.0/../../../../arm-none-eabi/lib/thumb/libc.a(lib_a-mlock.o)
 .ARM.attributes
                0x0000000008061840       0x30 /usr/lib/gcc/arm-none-eabi/5.2.0/../../../../arm-none-eabi/lib/thumb/libc.a(lib_a-reent.o)
 .ARM.attributes
                0x0000000008061870       0x30 /usr/lib/gcc/arm-none-eabi/5.2.0/../../../../arm-none-eabi/lib/thumb/libc.a(lib_a-sbrkr.o)
 .ARM.attributes
                0x00000000080618a0       0x30 /usr/lib/gcc/arm-none-eabi/5.2.0/../../../../arm-none-eabi/lib/thumb/libc.a(lib_a-freer.o)
 .ARM.attributes
                0x00000000080618d0       0x30 /usr/lib/gcc/arm-none-eabi/5.2.0/../../../../arm-none-eabi/lib/thumb/libstdc++.a(new_op.o)
 .ARM.attributes
                0x0000000008061900       0x30 /usr/lib/gcc/arm-none-eabi/5.2.0/../../../../arm-none-eabi/lib/thumb/libstdc++.a(eh_throw.o)
 .ARM.attributes
                0x0000000008061930       0x30 /usr/lib/gcc/arm-none-eabi/5.2.0/../../../../arm-none-eabi/lib/thumb/libstdc++.a(bad_alloc.o)
 .ARM.attributes
                0x0000000008061960       0x30 /usr/lib/gcc/arm-none-eabi/5.2.0/../../../../arm-none-eabi/lib/thumb/libstdc++.a(si_class_type_info.o)
 .ARM.attributes
                0x0000000008061990       0x30 /usr/lib/gcc/arm-none-eabi/5.2.0/../../../../arm-none-eabi/lib/thumb/libstdc++.a(eh_globals.o)
 .ARM.attributes
                0x00000000080619c0       0x30 /usr/lib/gcc/arm-none-eabi/5.2.0/../../../../arm-none-eabi/lib/thumb/libstdc++.a(del_op.o)
 .ARM.attributes
                0x00000000080619f0       0x30 /usr/lib/gcc/arm-none-eabi/5.2.0/../../../../arm-none-eabi/lib/thumb/libstdc++.a(new_handler.o)
 .ARM.attributes
                0x0000000008061a20       0x30 /usr/lib/gcc/arm-none-eabi/5.2.0/../../../../arm-none-eabi/lib/thumb/libstdc++.a(class_type_info.o)
 .ARM.attributes
                0x0000000008061a50       0x30 /usr/lib/gcc/arm-none-eabi/5.2.0/../../../../arm-none-eabi/lib/thumb/libstdc++.a(eh_catch.o)
 .ARM.attributes
                0x0000000008061a80       0x30 /usr/lib/gcc/arm-none-eabi/5.2.0/../../../../arm-none-eabi/lib/thumb/libstdc++.a(eh_call.o)
 .ARM.attributes
                0x0000000008061ab0       0x30 /usr/lib/gcc/arm-none-eabi/5.2.0/../../../../arm-none-eabi/lib/thumb/libstdc++.a(eh_terminate.o)
 .ARM.attributes
                0x0000000008061ae0       0x30 /usr/lib/gcc/arm-none-eabi/5.2.0/../../../../arm-none-eabi/lib/thumb/libstdc++.a(eh_personality.o)
 .ARM.attributes
                0x0000000008061b10       0x30 /usr/lib/gcc/arm-none-eabi/5.2.0/../../../../arm-none-eabi/lib/thumb/libstdc++.a(eh_exception.o)
 .ARM.attributes
                0x0000000008061b40       0x30 /usr/lib/gcc/arm-none-eabi/5.2.0/../../../../arm-none-eabi/lib/thumb/libstdc++.a(eh_alloc.o)
 .ARM.attributes
                0x0000000008061b70       0x30 /usr/lib/gcc/arm-none-eabi/5.2.0/../../../../arm-none-eabi/lib/thumb/libstdc++.a(tinfo.o)
 .ARM.attributes
                0x0000000008061ba0       0x30 /usr/lib/gcc/arm-none-eabi/5.2.0/../../../../arm-none-eabi/lib/thumb/libstdc++.a(eh_unex_handler.o)
 .ARM.attributes
                0x0000000008061bd0       0x30 /usr/lib/gcc/arm-none-eabi/5.2.0/../../../../arm-none-eabi/lib/thumb/libstdc++.a(eh_arm.o)
 .ARM.attributes
                0x0000000008061c00       0x30 /usr/lib/gcc/arm-none-eabi/5.2.0/../../../../arm-none-eabi/lib/thumb/libstdc++.a(pure.o)
 .ARM.attributes
                0x0000000008061c30       0x30 /usr/lib/gcc/arm-none-eabi/5.2.0/../../../../arm-none-eabi/lib/thumb/libstdc++.a(eh_term_handler.o)
 .ARM.attributes
                0x0000000008061c60       0x30 /usr/lib/gcc/arm-none-eabi/5.2.0/../../../../arm-none-eabi/lib/thumb/libstdc++.a(vterminate.o)
 .ARM.attributes
                0x0000000008061c90       0x30 /usr/lib/gcc/arm-none-eabi/5.2.0/../../../../arm-none-eabi/lib/thumb/libstdc++.a(cp-demangle.o)
 .ARM.attributes
                0x0000000008061cc0       0x30 /usr/lib/gcc/arm-none-eabi/5.2.0/../../../../arm-none-eabi/lib/thumb/libstdc++.a(eh_type.o)
 .ARM.attributes
                0x0000000008061cf0       0x16 /usr/lib/gcc/arm-none-eabi/5.2.0/libgcc.a(_thumb1_case_sqi.o)
 .ARM.attributes
                0x0000000008061d06       0x16 /usr/lib/gcc/arm-none-eabi/5.2.0/libgcc.a(_thumb1_case_shi.o)
 .ARM.attributes
                0x0000000008061d1c       0x16 /usr/lib/gcc/arm-none-eabi/5.2.0/libgcc.a(_thumb1_case_uhi.o)
 .ARM.attributes
                0x0000000008061d32       0x30 /usr/lib/gcc/arm-none-eabi/5.2.0/../../../../arm-none-eabi/lib/libc.a(lib_a-fputc.o)
 .ARM.attributes
                0x0000000008061d62       0x30 /usr/lib/gcc/arm-none-eabi/5.2.0/../../../../arm-none-eabi/lib/libc.a(lib_a-fputs.o)
 .ARM.attributes
                0x0000000008061d92       0x30 /usr/lib/gcc/arm-none-eabi/5.2.0/../../../../arm-none-eabi/lib/libc.a(lib_a-fvwrite.o)
 .ARM.attributes
                0x0000000008061dc2       0x30 /usr/lib/gcc/arm-none-eabi/5.2.0/../../../../arm-none-eabi/lib/libc.a(lib_a-malloc.o)
 .ARM.attributes
                0x0000000008061df2       0x30 /usr/lib/gcc/arm-none-eabi/5.2.0/../../../../arm-none-eabi/lib/libc.a(lib_a-memchr.o)
 .ARM.attributes
                0x0000000008061e22       0x30 /usr/lib/gcc/arm-none-eabi/5.2.0/../../../../arm-none-eabi/lib/libc.a(lib_a-memcmp.o)
 .ARM.attributes
                0x0000000008061e52       0x30 /usr/lib/gcc/arm-none-eabi/5.2.0/../../../../arm-none-eabi/lib/libc.a(lib_a-memmove.o)
 .ARM.attributes
                0x0000000008061e82       0x30 /usr/lib/gcc/arm-none-eabi/5.2.0/../../../../arm-none-eabi/lib/libc.a(lib_a-putc.o)
 .ARM.attributes
                0x0000000008061eb2       0x30 /usr/lib/gcc/arm-none-eabi/5.2.0/../../../../arm-none-eabi/lib/libc.a(lib_a-realloc.o)
 .ARM.attributes
                0x0000000008061ee2       0x30 /usr/lib/gcc/arm-none-eabi/5.2.0/../../../../arm-none-eabi/lib/libc.a(lib_a-reallocr.o)
 .ARM.attributes
                0x0000000008061f12       0x30 /usr/lib/gcc/arm-none-eabi/5.2.0/../../../../arm-none-eabi/lib/libc.a(lib_a-sprintf.o)
 .ARM.attributes
                0x0000000008061f42       0x16 /usr/lib/gcc/arm-none-eabi/5.2.0/../../../../arm-none-eabi/lib/libc.a(lib_a-strcmp.o)
 .ARM.attributes
                0x0000000008061f58       0x30 /usr/lib/gcc/arm-none-eabi/5.2.0/../../../../arm-none-eabi/lib/libc.a(lib_a-strcpy.o)
 .ARM.attributes
                0x0000000008061f88       0x30 /usr/lib/gcc/arm-none-eabi/5.2.0/../../../../arm-none-eabi/lib/libc.a(lib_a-strlen.o)
 .ARM.attributes
                0x0000000008061fb8       0x30 /usr/lib/gcc/arm-none-eabi/5.2.0/../../../../arm-none-eabi/lib/libc.a(lib_a-strncmp.o)
 .ARM.attributes
                0x0000000008061fe8       0x30 /usr/lib/gcc/arm-none-eabi/5.2.0/../../../../arm-none-eabi/lib/libc.a(lib_a-svfprintf.o)
 .ARM.attributes
                0x0000000008062018       0x30 /usr/lib/gcc/arm-none-eabi/5.2.0/../../../../arm-none-eabi/lib/libc.a(lib_a-syswrite.o)
 .ARM.attributes
                0x0000000008062048       0x30 /usr/lib/gcc/arm-none-eabi/5.2.0/../../../../arm-none-eabi/lib/libc.a(lib_a-wbuf.o)
 .ARM.attributes
                0x0000000008062078       0x30 /usr/lib/gcc/arm-none-eabi/5.2.0/../../../../arm-none-eabi/lib/libc.a(lib_a-writer.o)
 .ARM.attributes
                0x00000000080620a8       0x30 /usr/lib/gcc/arm-none-eabi/5.2.0/../../../../arm-none-eabi/lib/libc.a(lib_a-wsetup.o)
 .ARM.attributes
                0x00000000080620d8       0x30 /usr/lib/gcc/arm-none-eabi/5.2.0/../../../../arm-none-eabi/lib/libc.a(lib_a-dtoa.o)
 .ARM.attributes
                0x0000000008062108       0x30 /usr/lib/gcc/arm-none-eabi/5.2.0/../../../../arm-none-eabi/lib/libc.a(lib_a-fflush.o)
 .ARM.attributes
                0x0000000008062138       0x30 /usr/lib/gcc/arm-none-eabi/5.2.0/../../../../arm-none-eabi/lib/libc.a(lib_a-findfp.o)
 .ARM.attributes
                0x0000000008062168       0x30 /usr/lib/gcc/arm-none-eabi/5.2.0/../../../../arm-none-eabi/lib/libc.a(lib_a-fwalk.o)
 .ARM.attributes
                0x0000000008062198       0x30 /usr/lib/gcc/arm-none-eabi/5.2.0/../../../../arm-none-eabi/lib/libc.a(lib_a-locale.o)
 .ARM.attributes
                0x00000000080621c8       0x30 /usr/lib/gcc/arm-none-eabi/5.2.0/../../../../arm-none-eabi/lib/libc.a(lib_a-makebuf.o)
 .ARM.attributes
                0x00000000080621f8       0x30 /usr/lib/gcc/arm-none-eabi/5.2.0/../../../../arm-none-eabi/lib/libc.a(lib_a-mprec.o)
 .ARM.attributes
                0x0000000008062228       0x30 /usr/lib/gcc/arm-none-eabi/5.2.0/../../../../arm-none-eabi/lib/libc.a(lib_a-s_fpclassify.o)
 .ARM.attributes
                0x0000000008062258       0x30 /usr/lib/gcc/arm-none-eabi/5.2.0/../../../../arm-none-eabi/lib/libc.a(lib_a-stdio.o)
 .ARM.attributes
                0x0000000008062288       0x30 /usr/lib/gcc/arm-none-eabi/5.2.0/../../../../arm-none-eabi/lib/libc.a(lib_a-svfiprintf.o)
 .ARM.attributes
                0x00000000080622b8       0x30 /usr/lib/gcc/arm-none-eabi/5.2.0/../../../../arm-none-eabi/lib/libc.a(lib_a-callocr.o)
 .ARM.attributes
                0x00000000080622e8       0x30 /usr/lib/gcc/arm-none-eabi/5.2.0/../../../../arm-none-eabi/lib/libc.a(lib_a-closer.o)
 .ARM.attributes
                0x0000000008062318       0x30 /usr/lib/gcc/arm-none-eabi/5.2.0/../../../../arm-none-eabi/lib/libc.a(lib_a-fclose.o)
 .ARM.attributes
                0x0000000008062348       0x30 /usr/lib/gcc/arm-none-eabi/5.2.0/../../../../arm-none-eabi/lib/libc.a(lib_a-fstatr.o)
 .ARM.attributes
                0x0000000008062378       0x30 /usr/lib/gcc/arm-none-eabi/5.2.0/../../../../arm-none-eabi/lib/libc.a(lib_a-isattyr.o)
 .ARM.attributes
                0x00000000080623a8       0x30 /usr/lib/gcc/arm-none-eabi/5.2.0/../../../../arm-none-eabi/lib/libc.a(lib_a-lseekr.o)
 .ARM.attributes
                0x00000000080623d8       0x30 /usr/lib/gcc/arm-none-eabi/5.2.0/../../../../arm-none-eabi/lib/libc.a(lib_a-readr.o)
 .ARM.attributes
                0x0000000008062408       0x14 ./maxmod/lib/libmm.a(mm_main.o)
 .ARM.attributes
                0x000000000806241c       0x16 ./maxmod/lib/libmm.a(mm_mas.o)
 .ARM.attributes
                0x0000000008062432       0x14 ./maxmod/lib/libmm.a(mm_init_default.o)
 .ARM.attributes
                0x0000000008062446       0x16 ./maxmod/lib/libmm.a(mm_mixer_gba.o)
 .ARM.attributes
                0x000000000806245c       0x14 ./maxmod/lib/libmm.a(mm_effect.o)
 .ARM.attributes
                0x0000000008062470       0x16 ./maxmod/lib/libmm.a(mm_mas_arm.o)
 .ARM.attributes
                0x0000000008062486       0x18 /usr/lib/gcc/arm-none-eabi/5.2.0/libgcc.a(_udivsi3.o)
 .ARM.attributes
                0x000000000806249e       0x18 /usr/lib/gcc/arm-none-eabi/5.2.0/libgcc.a(_divsi3.o)
 .ARM.attributes
                0x00000000080624b6       0x18 /usr/lib/gcc/arm-none-eabi/5.2.0/libgcc.a(_dvmd_tls.o)
 .ARM.attributes
                0x00000000080624ce       0x16 /usr/lib/gcc/arm-none-eabi/5.2.0/libgcc.a(_call_via_rX.o)
 .ARM.attributes
                0x00000000080624e4       0x18 /usr/lib/gcc/arm-none-eabi/5.2.0/libgcc.a(_arm_addsubdf3.o)
 .ARM.attributes
                0x00000000080624fc       0x18 /usr/lib/gcc/arm-none-eabi/5.2.0/libgcc.a(_arm_muldivdf3.o)
 .ARM.attributes
                0x0000000008062514       0x18 /usr/lib/gcc/arm-none-eabi/5.2.0/libgcc.a(_arm_cmpdf2.o)
 .ARM.attributes
                0x000000000806252c       0x18 /usr/lib/gcc/arm-none-eabi/5.2.0/libgcc.a(_arm_fixdfsi.o)
 .ARM.attributes
                0x0000000008062544       0x18 /usr/lib/gcc/arm-none-eabi/5.2.0/libgcc.a(_aeabi_uldivmod.o)
 .ARM.attributes
                0x000000000806255c       0x30 /usr/lib/gcc/arm-none-eabi/5.2.0/libgcc.a(_udivmoddi4.o)
 .ARM.attributes
                0x000000000806258c       0x18 /usr/lib/gcc/arm-none-eabi/5.2.0/libgcc.a(_lshrdi3.o)
 .ARM.attributes
                0x00000000080625a4       0x18 /usr/lib/gcc/arm-none-eabi/5.2.0/libgcc.a(_ashldi3.o)
 .ARM.attributes
                0x00000000080625bc       0x18 /usr/lib/gcc/arm-none-eabi/5.2.0/libgcc.a(_clzdi2.o)
 .ARM.attributes
                0x00000000080625d4       0x18 /usr/lib/gcc/arm-none-eabi/5.2.0/libgcc.a(_clzsi2.o)
 .ARM.attributes
                0x00000000080625ec       0x30 /usr/lib/gcc/arm-none-eabi/5.2.0/../../../../arm-none-eabi/lib/libnosys.a(close.o)
 .ARM.attributes
                0x000000000806261c       0x30 /usr/lib/gcc/arm-none-eabi/5.2.0/../../../../arm-none-eabi/lib/libnosys.a(fstat.o)
 .ARM.attributes
                0x000000000806264c       0x30 /usr/lib/gcc/arm-none-eabi/5.2.0/../../../../arm-none-eabi/lib/libnosys.a(getpid.o)
 .ARM.attributes
                0x000000000806267c       0x30 /usr/lib/gcc/arm-none-eabi/5.2.0/../../../../arm-none-eabi/lib/libnosys.a(isatty.o)
 .ARM.attributes
                0x00000000080626ac       0x30 /usr/lib/gcc/arm-none-eabi/5.2.0/../../../../arm-none-eabi/lib/libnosys.a(kill.o)
 .ARM.attributes
                0x00000000080626dc       0x30 /usr/lib/gcc/arm-none-eabi/5.2.0/../../../../arm-none-eabi/lib/libnosys.a(lseek.o)
 .ARM.attributes
                0x000000000806270c       0x30 /usr/lib/gcc/arm-none-eabi/5.2.0/../../../../arm-none-eabi/lib/libnosys.a(read.o)
 .ARM.attributes
                0x000000000806273c       0x30 /usr/lib/gcc/arm-none-eabi/5.2.0/../../../../arm-none-eabi/lib/libnosys.a(sbrk.o)
 .ARM.attributes
                0x000000000806276c       0x30 /usr/lib/gcc/arm-none-eabi/5.2.0/../../../../arm-none-eabi/lib/libnosys.a(write.o)
 .ARM.attributes
                0x000000000806279c       0x30 /usr/lib/gcc/arm-none-eabi/5.2.0/../../../../arm-none-eabi/lib/libnosys.a(_exit.o)
 .ARM.attributes
                0x00000000080627cc       0x30 /usr/lib/gcc/arm-none-eabi/5.2.0/crtend.o
 .ARM.attributes
                0x00000000080627fc       0x18 /usr/lib/gcc/arm-none-eabi/5.2.0/crtn.o

.init_array     0x0000000002000000       0x1c load address 0x0000000008060b90
                0x0000000008060b90                __init_array_load = LOADADDR (.init_array)
                0x0000000002000000                __init_array_start = .
 *(.init_array)
 .init_array    0x0000000002000000        0x4 /usr/lib/gcc/arm-none-eabi/5.2.0/crtbegin.o
 .init_array    0x0000000002000004        0x4 objs/active_level_class.thumb.o
 .init_array    0x0000000002000008        0x4 objs/block_stuff.thumb.o
 .init_array    0x000000000200000c        0x4 objs/main.thumb.o
 .init_array    0x0000000002000010        0x4 objs/sprite_manager_class.thumb.o
 .init_array    0x0000000002000014        0x4 /usr/lib/gcc/arm-none-eabi/5.2.0/../../../../arm-none-eabi/lib/thumb/libstdc++.a(eh_alloc.o)
 *(SORT(.init_array.*))
 .init_array.00000
                0x0000000002000018        0x4 /usr/lib/gcc/arm-none-eabi/5.2.0/../../../../arm-none-eabi/lib/thumb/libc.a(lib_a-__call_atexit.o)
                0x000000000200001c                __init_array_end = .

.data           0x0000000002000020    0x198c8 load address 0x0000000008060bac
                0x0000000008060bac                __data_load = LOADADDR (.data)
                0x0000000002000020                __data_start = .
 *(.jcr)
 .jcr           0x0000000002000020        0x0 /usr/lib/gcc/arm-none-eabi/5.2.0/crtbegin.o
 .jcr           0x0000000002000020        0x4 /usr/lib/gcc/arm-none-eabi/5.2.0/crtend.o
 *(.got.plt)
 *(.got)
 *(.shdata)
 *(.data .data.* .gnu.linkonce.d.*)
 .data          0x0000000002000024        0x0 /usr/lib/gcc/arm-none-eabi/5.2.0/crti.o
 .data          0x0000000002000024        0x0 /usr/lib/gcc/arm-none-eabi/5.2.0/crtbegin.o
 .data.__dso_handle
                0x0000000002000024        0x4 /usr/lib/gcc/arm-none-eabi/5.2.0/crtbegin.o
                0x0000000002000024                __dso_handle
 .data          0x0000000002000028        0x0 /usr/lib/gcc/arm-none-eabi/5.2.0/../../../../arm-none-eabi/lib/crt0.o
 .data          0x0000000002000028    0x18800 objs/active_level_class.thumb.o
                0x0000000002000028                active_level::block_data_array
                0x0000000002010028                active_level::horiz_level_sprite_ipg_lists
                0x0000000002010828                active_level::persistent_block_data_arrays
 .data          0x0000000002018828        0x0 objs/active_level_manager_class.arm.o
 .data          0x0000000002018828        0x0 objs/active_level_manager_class.thumb.o
 .data          0x0000000002018828        0x0 objs/air_block_stuff_class.thumb.o
 .data          0x0000000002018828        0x0 objs/asm_init.o
 .data          0x0000000002018828        0x0 objs/bg_reg_stuff.arm.o
 .data          0x0000000002018828        0x0 objs/block_base_stuff_class.thumb.o
 .data          0x0000000002018828        0x0 objs/block_stuff.thumb.o
 .data          0x0000000002018828        0x0 objs/button_stuff.thumb.o
 .data          0x0000000002018828        0x0 objs/coll_box_class.arm.o
 .data          0x0000000002018828        0x0 objs/coll_box_class.thumb.o
 .data          0x0000000002018828        0x0 objs/coll_point_group_class.thumb.o
 .data          0x0000000002018828        0x0 objs/debug_vars.thumb.o
 .data          0x0000000002018828        0x0 objs/division_funcs.o
 .data          0x0000000002018828        0x0 objs/dma_stuff.thumb.o
 .data          0x0000000002018828        0x0 objs/dud_block_stuff_class.thumb.o
 .data          0x0000000002018828        0x0 objs/exclam_block_stuff_classes.thumb.o
 .data          0x0000000002018828        0x0 objs/eyes_block_stuff_classes.thumb.o
 .data          0x0000000002018828        0x0 objs/fixed_classes.thumb.o
 .data          0x0000000002018828        0x0 objs/grass_and_dirt_block_stuff_classes.thumb.o
 .data          0x0000000002018828        0x0 objs/interrupt_stuff.arm.o
 .data          0x0000000002018828        0x0 objs/interrupt_stuff.thumb.o
 .data          0x0000000002018828        0x0 objs/level_class.thumb.o
 .data          0x0000000002018828        0x0 objs/log_block_stuff_class.thumb.o
 .data          0x0000000002018828      0x800 objs/main.thumb.o
                0x0000000002018828                bg0_screenblock_mirror
 .data          0x0000000002019028        0x0 objs/memcpy32_from_tonc.o
 .data          0x0000000002019028        0x0 objs/memory_funcs_8bit.o
 .data          0x0000000002019028        0x0 objs/muffin_sprite_stuff_classes.thumb.o
 .data          0x0000000002019028        0x0 objs/oam_entry_classes.thumb.o
 .data          0x0000000002019028        0x0 objs/player_sprite_stuff_class.thumb.o
 .data          0x0000000002019028        0x0 objs/practice_17.bin.o
 .data          0x0000000002019028        0x0 objs/ram_funcs1.o
 .data          0x0000000002019028        0x0 objs/sherwin_gfx.o
 .data          0x0000000002019028        0x0 objs/sprite_base_stuff_class.arm.o
 .data          0x0000000002019028        0x0 objs/sprite_base_stuff_class.thumb.o
 .data          0x0000000002019028        0x0 objs/sprite_class.thumb.o
 .data          0x0000000002019028        0x0 objs/sprite_gfx_stuff.thumb.o
 .data          0x0000000002019028        0x0 objs/sprite_manager_class.arm.o
 .data          0x0000000002019028        0x0 objs/sprite_manager_class.thumb.o
 .data          0x0000000002019028        0x0 objs/sprite_type_stuff.thumb.o
 .data          0x0000000002019028        0x0 objs/sublevel_class.thumb.o
 .data          0x0000000002019028        0x0 objs/test_level.thumb.o
 .data          0x0000000002019028        0x0 objs/the_block_gfx.o
 .data          0x0000000002019028        0x0 objs/the_block_like_sprites_gfx.o
 .data          0x0000000002019028        0x0 objs/the_golem_enemy_gfx.o
 .data          0x0000000002019028        0x0 objs/the_powerup_gfx.o
 .data          0x0000000002019028        0x0 objs/title_screen.o
 .data          0x0000000002019028        0x0 objs/waffle_sprite_stuff_class.arm.o
 .data          0x0000000002019028        0x0 objs/waffle_sprite_stuff_class.thumb.o
 .data          0x0000000002019028        0x0 objs/warp_block_sprite_stuff_class.thumb.o
 .data          0x0000000002019028        0x0 objs/wood_block_stuff_classes.thumb.o
 .data          0x0000000002019028        0x0 /usr/lib/gcc/arm-none-eabi/5.2.0/thumb/libgcc.a(unwind-arm.o)
 .data          0x0000000002019028        0x0 /usr/lib/gcc/arm-none-eabi/5.2.0/thumb/libgcc.a(libunwind.o)
 .data          0x0000000002019028        0x0 /usr/lib/gcc/arm-none-eabi/5.2.0/thumb/libgcc.a(pr-support.o)
 .data          0x0000000002019028        0x0 /usr/lib/gcc/arm-none-eabi/5.2.0/thumb/libgcc.a(_thumb1_case_uqi.o)
 .data          0x0000000002019028        0x0 /usr/lib/gcc/arm-none-eabi/5.2.0/../../../../arm-none-eabi/lib/thumb/libc.a(lib_a-abort.o)
 .data          0x0000000002019028        0x0 /usr/lib/gcc/arm-none-eabi/5.2.0/../../../../arm-none-eabi/lib/thumb/libc.a(lib_a-aeabi_atexit.o)
 .data          0x0000000002019028        0x0 /usr/lib/gcc/arm-none-eabi/5.2.0/../../../../arm-none-eabi/lib/thumb/libc.a(lib_a-atexit.o)
 .data          0x0000000002019028        0x0 /usr/lib/gcc/arm-none-eabi/5.2.0/../../../../arm-none-eabi/lib/thumb/libc.a(lib_a-cxa_atexit.o)
 .data          0x0000000002019028        0x0 /usr/lib/gcc/arm-none-eabi/5.2.0/../../../../arm-none-eabi/lib/thumb/libc.a(lib_a-exit.o)
 .data          0x0000000002019028        0x0 /usr/lib/gcc/arm-none-eabi/5.2.0/../../../../arm-none-eabi/lib/thumb/libc.a(lib_a-fini.o)
 .data          0x0000000002019028        0x0 /usr/lib/gcc/arm-none-eabi/5.2.0/../../../../arm-none-eabi/lib/thumb/libc.a(lib_a-impure.o)
 .data.impure_data
                0x0000000002019028      0x428 /usr/lib/gcc/arm-none-eabi/5.2.0/../../../../arm-none-eabi/lib/thumb/libc.a(lib_a-impure.o)
 .data._impure_ptr
                0x0000000002019450        0x4 /usr/lib/gcc/arm-none-eabi/5.2.0/../../../../arm-none-eabi/lib/thumb/libc.a(lib_a-impure.o)
                0x0000000002019450                _impure_ptr
 .data          0x0000000002019454        0x0 /usr/lib/gcc/arm-none-eabi/5.2.0/../../../../arm-none-eabi/lib/thumb/libc.a(lib_a-init.o)
 .data          0x0000000002019454        0x0 /usr/lib/gcc/arm-none-eabi/5.2.0/../../../../arm-none-eabi/lib/thumb/libc.a(lib_a-memcpy.o)
 .data          0x0000000002019454        0x0 /usr/lib/gcc/arm-none-eabi/5.2.0/../../../../arm-none-eabi/lib/thumb/libc.a(lib_a-memset.o)
 .data          0x0000000002019454        0x0 /usr/lib/gcc/arm-none-eabi/5.2.0/../../../../arm-none-eabi/lib/thumb/libc.a(lib_a-signal.o)
 .data          0x0000000002019454        0x0 /usr/lib/gcc/arm-none-eabi/5.2.0/../../../../arm-none-eabi/lib/thumb/libc.a(lib_a-signalr.o)
 .data          0x0000000002019454        0x0 /usr/lib/gcc/arm-none-eabi/5.2.0/../../../../arm-none-eabi/lib/thumb/libc.a(lib_a-__atexit.o)
 .data          0x0000000002019454        0x0 /usr/lib/gcc/arm-none-eabi/5.2.0/../../../../arm-none-eabi/lib/thumb/libc.a(lib_a-__call_atexit.o)
 .data          0x0000000002019454        0x0 /usr/lib/gcc/arm-none-eabi/5.2.0/../../../../arm-none-eabi/lib/thumb/libc.a(lib_a-mallocr.o)
 .data.__malloc_av_
                0x0000000002019454      0x408 /usr/lib/gcc/arm-none-eabi/5.2.0/../../../../arm-none-eabi/lib/thumb/libc.a(lib_a-mallocr.o)
                0x0000000002019454                __malloc_av_
 .data.__malloc_trim_threshold
                0x000000000201985c        0x4 /usr/lib/gcc/arm-none-eabi/5.2.0/../../../../arm-none-eabi/lib/thumb/libc.a(lib_a-mallocr.o)
                0x000000000201985c                __malloc_trim_threshold
 .data.__malloc_sbrk_base
                0x0000000002019860        0x4 /usr/lib/gcc/arm-none-eabi/5.2.0/../../../../arm-none-eabi/lib/thumb/libc.a(lib_a-mallocr.o)
                0x0000000002019860                __malloc_sbrk_base
 .data          0x0000000002019864        0x0 /usr/lib/gcc/arm-none-eabi/5.2.0/../../../../arm-none-eabi/lib/thumb/libc.a(lib_a-mlock.o)
 .data          0x0000000002019864        0x0 /usr/lib/gcc/arm-none-eabi/5.2.0/../../../../arm-none-eabi/lib/thumb/libc.a(lib_a-reent.o)
 .data          0x0000000002019864        0x0 /usr/lib/gcc/arm-none-eabi/5.2.0/../../../../arm-none-eabi/lib/thumb/libc.a(lib_a-sbrkr.o)
 .data          0x0000000002019864        0x0 /usr/lib/gcc/arm-none-eabi/5.2.0/../../../../arm-none-eabi/lib/thumb/libc.a(lib_a-freer.o)
 .data          0x0000000002019864        0x0 /usr/lib/gcc/arm-none-eabi/5.2.0/../../../../arm-none-eabi/lib/thumb/libstdc++.a(new_op.o)
 .data          0x0000000002019864        0x0 /usr/lib/gcc/arm-none-eabi/5.2.0/../../../../arm-none-eabi/lib/thumb/libstdc++.a(eh_throw.o)
 .data          0x0000000002019864        0x0 /usr/lib/gcc/arm-none-eabi/5.2.0/../../../../arm-none-eabi/lib/thumb/libstdc++.a(bad_alloc.o)
 .data          0x0000000002019864        0x0 /usr/lib/gcc/arm-none-eabi/5.2.0/../../../../arm-none-eabi/lib/thumb/libstdc++.a(si_class_type_info.o)
 .data          0x0000000002019864        0x0 /usr/lib/gcc/arm-none-eabi/5.2.0/../../../../arm-none-eabi/lib/thumb/libstdc++.a(eh_globals.o)
 .data          0x0000000002019864        0x0 /usr/lib/gcc/arm-none-eabi/5.2.0/../../../../arm-none-eabi/lib/thumb/libstdc++.a(del_op.o)
 .data          0x0000000002019864        0x0 /usr/lib/gcc/arm-none-eabi/5.2.0/../../../../arm-none-eabi/lib/thumb/libstdc++.a(new_handler.o)
 .data          0x0000000002019864        0x0 /usr/lib/gcc/arm-none-eabi/5.2.0/../../../../arm-none-eabi/lib/thumb/libstdc++.a(class_type_info.o)
 .data          0x0000000002019864        0x0 /usr/lib/gcc/arm-none-eabi/5.2.0/../../../../arm-none-eabi/lib/thumb/libstdc++.a(eh_catch.o)
 .data          0x0000000002019864        0x0 /usr/lib/gcc/arm-none-eabi/5.2.0/../../../../arm-none-eabi/lib/thumb/libstdc++.a(eh_call.o)
 .data          0x0000000002019864        0x0 /usr/lib/gcc/arm-none-eabi/5.2.0/../../../../arm-none-eabi/lib/thumb/libstdc++.a(eh_terminate.o)
 .data          0x0000000002019864        0x0 /usr/lib/gcc/arm-none-eabi/5.2.0/../../../../arm-none-eabi/lib/thumb/libstdc++.a(eh_personality.o)
 .data          0x0000000002019864        0x0 /usr/lib/gcc/arm-none-eabi/5.2.0/../../../../arm-none-eabi/lib/thumb/libstdc++.a(eh_exception.o)
 .data          0x0000000002019864        0x0 /usr/lib/gcc/arm-none-eabi/5.2.0/../../../../arm-none-eabi/lib/thumb/libstdc++.a(eh_alloc.o)
 .data          0x0000000002019864        0x0 /usr/lib/gcc/arm-none-eabi/5.2.0/../../../../arm-none-eabi/lib/thumb/libstdc++.a(tinfo.o)
 .data          0x0000000002019864        0x0 /usr/lib/gcc/arm-none-eabi/5.2.0/../../../../arm-none-eabi/lib/thumb/libstdc++.a(eh_unex_handler.o)
 .data._ZN10__cxxabiv120__unexpected_handlerE
                0x0000000002019864        0x4 /usr/lib/gcc/arm-none-eabi/5.2.0/../../../../arm-none-eabi/lib/thumb/libstdc++.a(eh_unex_handler.o)
                0x0000000002019864                __cxxabiv1::__unexpected_handler
 .data          0x0000000002019868        0x0 /usr/lib/gcc/arm-none-eabi/5.2.0/../../../../arm-none-eabi/lib/thumb/libstdc++.a(eh_arm.o)
 .data          0x0000000002019868        0x0 /usr/lib/gcc/arm-none-eabi/5.2.0/../../../../arm-none-eabi/lib/thumb/libstdc++.a(pure.o)
 .data          0x0000000002019868        0x0 /usr/lib/gcc/arm-none-eabi/5.2.0/../../../../arm-none-eabi/lib/thumb/libstdc++.a(eh_term_handler.o)
 .data._ZN10__cxxabiv119__terminate_handlerE
                0x0000000002019868        0x4 /usr/lib/gcc/arm-none-eabi/5.2.0/../../../../arm-none-eabi/lib/thumb/libstdc++.a(eh_term_handler.o)
                0x0000000002019868                __cxxabiv1::__terminate_handler
 .data          0x000000000201986c        0x0 /usr/lib/gcc/arm-none-eabi/5.2.0/../../../../arm-none-eabi/lib/thumb/libstdc++.a(vterminate.o)
 .data          0x000000000201986c        0x0 /usr/lib/gcc/arm-none-eabi/5.2.0/../../../../arm-none-eabi/lib/thumb/libstdc++.a(cp-demangle.o)
 .data          0x000000000201986c        0x0 /usr/lib/gcc/arm-none-eabi/5.2.0/../../../../arm-none-eabi/lib/thumb/libstdc++.a(eh_type.o)
 .data          0x000000000201986c        0x0 /usr/lib/gcc/arm-none-eabi/5.2.0/libgcc.a(_thumb1_case_sqi.o)
 .data          0x000000000201986c        0x0 /usr/lib/gcc/arm-none-eabi/5.2.0/libgcc.a(_thumb1_case_shi.o)
 .data          0x000000000201986c        0x0 /usr/lib/gcc/arm-none-eabi/5.2.0/libgcc.a(_thumb1_case_uhi.o)
 .data          0x000000000201986c        0x0 /usr/lib/gcc/arm-none-eabi/5.2.0/../../../../arm-none-eabi/lib/libc.a(lib_a-fputc.o)
 .data          0x000000000201986c        0x0 /usr/lib/gcc/arm-none-eabi/5.2.0/../../../../arm-none-eabi/lib/libc.a(lib_a-fputs.o)
 .data          0x000000000201986c        0x0 /usr/lib/gcc/arm-none-eabi/5.2.0/../../../../arm-none-eabi/lib/libc.a(lib_a-fvwrite.o)
 .data          0x000000000201986c        0x0 /usr/lib/gcc/arm-none-eabi/5.2.0/../../../../arm-none-eabi/lib/libc.a(lib_a-malloc.o)
 .data          0x000000000201986c        0x0 /usr/lib/gcc/arm-none-eabi/5.2.0/../../../../arm-none-eabi/lib/libc.a(lib_a-memchr.o)
 .data          0x000000000201986c        0x0 /usr/lib/gcc/arm-none-eabi/5.2.0/../../../../arm-none-eabi/lib/libc.a(lib_a-memcmp.o)
 .data          0x000000000201986c        0x0 /usr/lib/gcc/arm-none-eabi/5.2.0/../../../../arm-none-eabi/lib/libc.a(lib_a-memmove.o)
 .data          0x000000000201986c        0x0 /usr/lib/gcc/arm-none-eabi/5.2.0/../../../../arm-none-eabi/lib/libc.a(lib_a-putc.o)
 .data          0x000000000201986c        0x0 /usr/lib/gcc/arm-none-eabi/5.2.0/../../../../arm-none-eabi/lib/libc.a(lib_a-realloc.o)
 .data          0x000000000201986c        0x0 /usr/lib/gcc/arm-none-eabi/5.2.0/../../../../arm-none-eabi/lib/libc.a(lib_a-reallocr.o)
 .data          0x000000000201986c        0x0 /usr/lib/gcc/arm-none-eabi/5.2.0/../../../../arm-none-eabi/lib/libc.a(lib_a-sprintf.o)
 .data          0x000000000201986c        0x0 /usr/lib/gcc/arm-none-eabi/5.2.0/../../../../arm-none-eabi/lib/libc.a(lib_a-strcmp.o)
 .data          0x000000000201986c        0x0 /usr/lib/gcc/arm-none-eabi/5.2.0/../../../../arm-none-eabi/lib/libc.a(lib_a-strcpy.o)
 .data          0x000000000201986c        0x0 /usr/lib/gcc/arm-none-eabi/5.2.0/../../../../arm-none-eabi/lib/libc.a(lib_a-strlen.o)
 .data          0x000000000201986c        0x0 /usr/lib/gcc/arm-none-eabi/5.2.0/../../../../arm-none-eabi/lib/libc.a(lib_a-strncmp.o)
 .data          0x000000000201986c        0x0 /usr/lib/gcc/arm-none-eabi/5.2.0/../../../../arm-none-eabi/lib/libc.a(lib_a-svfprintf.o)
 .data          0x000000000201986c        0x0 /usr/lib/gcc/arm-none-eabi/5.2.0/../../../../arm-none-eabi/lib/libc.a(lib_a-syswrite.o)
 .data          0x000000000201986c        0x0 /usr/lib/gcc/arm-none-eabi/5.2.0/../../../../arm-none-eabi/lib/libc.a(lib_a-wbuf.o)
 .data          0x000000000201986c        0x0 /usr/lib/gcc/arm-none-eabi/5.2.0/../../../../arm-none-eabi/lib/libc.a(lib_a-writer.o)
 .data          0x000000000201986c        0x0 /usr/lib/gcc/arm-none-eabi/5.2.0/../../../../arm-none-eabi/lib/libc.a(lib_a-wsetup.o)
 .data          0x000000000201986c        0x0 /usr/lib/gcc/arm-none-eabi/5.2.0/../../../../arm-none-eabi/lib/libc.a(lib_a-dtoa.o)
 .data          0x000000000201986c        0x0 /usr/lib/gcc/arm-none-eabi/5.2.0/../../../../arm-none-eabi/lib/libc.a(lib_a-fflush.o)
 .data          0x000000000201986c        0x0 /usr/lib/gcc/arm-none-eabi/5.2.0/../../../../arm-none-eabi/lib/libc.a(lib_a-findfp.o)
 .data          0x000000000201986c        0x0 /usr/lib/gcc/arm-none-eabi/5.2.0/../../../../arm-none-eabi/lib/libc.a(lib_a-fwalk.o)
 .data          0x000000000201986c        0x0 /usr/lib/gcc/arm-none-eabi/5.2.0/../../../../arm-none-eabi/lib/libc.a(lib_a-locale.o)
 .data.lc_message_charset
                0x000000000201986c       0x20 /usr/lib/gcc/arm-none-eabi/5.2.0/../../../../arm-none-eabi/lib/libc.a(lib_a-locale.o)
 .data.lconv    0x000000000201988c       0x38 /usr/lib/gcc/arm-none-eabi/5.2.0/../../../../arm-none-eabi/lib/libc.a(lib_a-locale.o)
 .data.lc_ctype_charset
                0x00000000020198c4       0x20 /usr/lib/gcc/arm-none-eabi/5.2.0/../../../../arm-none-eabi/lib/libc.a(lib_a-locale.o)
 .data.__mb_cur_max
                0x00000000020198e4        0x4 /usr/lib/gcc/arm-none-eabi/5.2.0/../../../../arm-none-eabi/lib/libc.a(lib_a-locale.o)
                0x00000000020198e4                __mb_cur_max
 .data          0x00000000020198e8        0x0 /usr/lib/gcc/arm-none-eabi/5.2.0/../../../../arm-none-eabi/lib/libc.a(lib_a-makebuf.o)
 .data          0x00000000020198e8        0x0 /usr/lib/gcc/arm-none-eabi/5.2.0/../../../../arm-none-eabi/lib/libc.a(lib_a-mprec.o)
 .data          0x00000000020198e8        0x0 /usr/lib/gcc/arm-none-eabi/5.2.0/../../../../arm-none-eabi/lib/libc.a(lib_a-s_fpclassify.o)
 .data          0x00000000020198e8        0x0 /usr/lib/gcc/arm-none-eabi/5.2.0/../../../../arm-none-eabi/lib/libc.a(lib_a-stdio.o)
 .data          0x00000000020198e8        0x0 /usr/lib/gcc/arm-none-eabi/5.2.0/../../../../arm-none-eabi/lib/libc.a(lib_a-svfiprintf.o)
 .data          0x00000000020198e8        0x0 /usr/lib/gcc/arm-none-eabi/5.2.0/../../../../arm-none-eabi/lib/libc.a(lib_a-callocr.o)
 .data          0x00000000020198e8        0x0 /usr/lib/gcc/arm-none-eabi/5.2.0/../../../../arm-none-eabi/lib/libc.a(lib_a-closer.o)
 .data          0x00000000020198e8        0x0 /usr/lib/gcc/arm-none-eabi/5.2.0/../../../../arm-none-eabi/lib/libc.a(lib_a-fclose.o)
 .data          0x00000000020198e8        0x0 /usr/lib/gcc/arm-none-eabi/5.2.0/../../../../arm-none-eabi/lib/libc.a(lib_a-fstatr.o)
 .data          0x00000000020198e8        0x0 /usr/lib/gcc/arm-none-eabi/5.2.0/../../../../arm-none-eabi/lib/libc.a(lib_a-isattyr.o)
 .data          0x00000000020198e8        0x0 /usr/lib/gcc/arm-none-eabi/5.2.0/../../../../arm-none-eabi/lib/libc.a(lib_a-lseekr.o)
 .data          0x00000000020198e8        0x0 /usr/lib/gcc/arm-none-eabi/5.2.0/../../../../arm-none-eabi/lib/libc.a(lib_a-readr.o)
 .data          0x00000000020198e8        0x0 ./maxmod/lib/libmm.a(mm_main.o)
 .data          0x00000000020198e8        0x0 ./maxmod/lib/libmm.a(mm_mas.o)
 .data          0x00000000020198e8        0x0 ./maxmod/lib/libmm.a(mm_init_default.o)
 .data          0x00000000020198e8        0x0 ./maxmod/lib/libmm.a(mm_mixer_gba.o)
 .data          0x00000000020198e8        0x0 ./maxmod/lib/libmm.a(mm_effect.o)
 .data          0x00000000020198e8        0x0 ./maxmod/lib/libmm.a(mm_mas_arm.o)
 .data          0x00000000020198e8        0x0 /usr/lib/gcc/arm-none-eabi/5.2.0/libgcc.a(_udivsi3.o)
 .data          0x00000000020198e8        0x0 /usr/lib/gcc/arm-none-eabi/5.2.0/libgcc.a(_divsi3.o)
 .data          0x00000000020198e8        0x0 /usr/lib/gcc/arm-none-eabi/5.2.0/libgcc.a(_dvmd_tls.o)
 .data          0x00000000020198e8        0x0 /usr/lib/gcc/arm-none-eabi/5.2.0/libgcc.a(_call_via_rX.o)
 .data          0x00000000020198e8        0x0 /usr/lib/gcc/arm-none-eabi/5.2.0/libgcc.a(_arm_addsubdf3.o)
 .data          0x00000000020198e8        0x0 /usr/lib/gcc/arm-none-eabi/5.2.0/libgcc.a(_arm_muldivdf3.o)
 .data          0x00000000020198e8        0x0 /usr/lib/gcc/arm-none-eabi/5.2.0/libgcc.a(_arm_cmpdf2.o)
 .data          0x00000000020198e8        0x0 /usr/lib/gcc/arm-none-eabi/5.2.0/libgcc.a(_arm_fixdfsi.o)
 .data          0x00000000020198e8        0x0 /usr/lib/gcc/arm-none-eabi/5.2.0/libgcc.a(_aeabi_uldivmod.o)
 .data          0x00000000020198e8        0x0 /usr/lib/gcc/arm-none-eabi/5.2.0/libgcc.a(_udivmoddi4.o)
 .data          0x00000000020198e8        0x0 /usr/lib/gcc/arm-none-eabi/5.2.0/libgcc.a(_lshrdi3.o)
 .data          0x00000000020198e8        0x0 /usr/lib/gcc/arm-none-eabi/5.2.0/libgcc.a(_ashldi3.o)
 .data          0x00000000020198e8        0x0 /usr/lib/gcc/arm-none-eabi/5.2.0/libgcc.a(_clzdi2.o)
 .data          0x00000000020198e8        0x0 /usr/lib/gcc/arm-none-eabi/5.2.0/libgcc.a(_clzsi2.o)
 .data          0x00000000020198e8        0x0 /usr/lib/gcc/arm-none-eabi/5.2.0/../../../../arm-none-eabi/lib/libnosys.a(close.o)
 .data          0x00000000020198e8        0x0 /usr/lib/gcc/arm-none-eabi/5.2.0/../../../../arm-none-eabi/lib/libnosys.a(fstat.o)
 .data          0x00000000020198e8        0x0 /usr/lib/gcc/arm-none-eabi/5.2.0/../../../../arm-none-eabi/lib/libnosys.a(getpid.o)
 .data          0x00000000020198e8        0x0 /usr/lib/gcc/arm-none-eabi/5.2.0/../../../../arm-none-eabi/lib/libnosys.a(isatty.o)
 .data          0x00000000020198e8        0x0 /usr/lib/gcc/arm-none-eabi/5.2.0/../../../../arm-none-eabi/lib/libnosys.a(kill.o)
 .data          0x00000000020198e8        0x0 /usr/lib/gcc/arm-none-eabi/5.2.0/../../../../arm-none-eabi/lib/libnosys.a(lseek.o)
 .data          0x00000000020198e8        0x0 /usr/lib/gcc/arm-none-eabi/5.2.0/../../../../arm-none-eabi/lib/libnosys.a(read.o)
 .data          0x00000000020198e8        0x0 /usr/lib/gcc/arm-none-eabi/5.2.0/../../../../arm-none-eabi/lib/libnosys.a(sbrk.o)
 .data          0x00000000020198e8        0x0 /usr/lib/gcc/arm-none-eabi/5.2.0/../../../../arm-none-eabi/lib/libnosys.a(write.o)
 .data          0x00000000020198e8        0x0 /usr/lib/gcc/arm-none-eabi/5.2.0/../../../../arm-none-eabi/lib/libnosys.a(_exit.o)
 .data          0x00000000020198e8        0x0 /usr/lib/gcc/arm-none-eabi/5.2.0/crtend.o
 .data          0x00000000020198e8        0x0 /usr/lib/gcc/arm-none-eabi/5.2.0/crtn.o
                0x00000000020198e8                . = ALIGN (0x4)
                0x00000000020198e8                __data_end = .

.fini_array     0x00000000020198e8        0x4 load address 0x000000000807a474
 .fini_array    0x00000000020198e8        0x4 /usr/lib/gcc/arm-none-eabi/5.2.0/crtbegin.o

.igot.plt       0x00000000020198ec        0x0 load address 0x000000000807a478
 .igot.plt      0x00000000020198ec        0x0 /usr/lib/gcc/arm-none-eabi/5.2.0/crtbegin.o

.iwram_data     0x0000000003000000      0x18c load address 0x000000000807a478
                0x000000000807a478                __iwram_data_load = LOADADDR (.iwram_data)
                0x0000000003000000                __iwram_data_start = .
 *(.iwram_data .iwram_data.*)
 .iwram_data    0x0000000003000000       0x20 objs/bg_reg_stuff.arm.o
                0x0000000003000000                bgofs_mirror
 .iwram_data    0x0000000003000020       0x8c objs/block_stuff.thumb.o
                0x0000000003000020                block_stuff_array
 .iwram_data    0x00000000030000ac        0x4 objs/button_stuff.thumb.o
                0x00000000030000ac                __key_state
 .iwram_data    0x00000000030000b0        0x4 objs/debug_vars.thumb.o
                0x00000000030000b0                curr_debug_st_result_index
 .iwram_data    0x00000000030000b4        0x8 objs/player_sprite_stuff_class.thumb.o
                0x00000000030000b4                player_sprite_stuff::speed
                0x00000000030000b8                player_sprite_stuff::run_toggle
                0x00000000030000b9                player_sprite_stuff::use_16x16
 .iwram_data    0x00000000030000bc       0x90 objs/sprite_manager_class.thumb.o
                0x00000000030000bc                sprite_manager::the_player
 .iwram_data    0x000000000300014c       0x40 objs/sprite_type_stuff.thumb.o
                0x000000000300014c                sprite_stuff_array
                0x000000000300016c                the_warp_block_sprite_stuff
                0x0000000003000170                the_chocolate_muffin_sprite_stuff
                0x0000000003000174                the_ice_muffin_sprite_stuff
                0x0000000003000178                the_fire_muffin_sprite_stuff
                0x000000000300017c                the_muffin_sprite_stuff
                0x0000000003000180                the_waffle_sprite_stuff
                0x0000000003000184                the_player_sprite_stuff
                0x0000000003000188                the_sprite_base_stuff
                0x000000000300018c                . = ALIGN (0x4)
                0x000000000300018c                __iwram_data_end = .

.iwram_code     0x0000000003000190     0x39e0 load address 0x000000000807a604
                0x000000000807a604                iwram_code_rom_start = LOADADDR (.iwram_code)
                0x0000000003000190                iwram_code_iwram_start = .
 *(.iwram_code)
 .iwram_code    0x0000000003000190      0x44c objs/active_level_manager_class.arm.o
                0x0000000003000190                active_level_manager::horiz_level_tile_at_basic(unsigned long, unsigned long)
                0x000000000300025c                active_level_manager::horiz_level_tile_at(unsigned long, unsigned long)
                0x00000000030002cc                active_level_manager::correct_bg0_scroll_mirror(vec2<unsigned long> const&)
                0x0000000003000354                active_level_manager::update_level_in_screenblock_mirror_2d(array_2d_helper<unsigned short>&, vec2<unsigned long> const&)
                0x00000000030005b8                active_level_manager::copy_level_from_array_2d_helper_to_vram(array_2d_helper<unsigned short>&, array_2d_helper<unsigned short>&)
 .iwram_code    0x00000000030005dc        0x8 objs/air_block_stuff_class.thumb.o
                0x00000000030005dc                air_block_stuff::get_palette_number()
                0x00000000030005dc                air_block_stuff::get_metatile_graphics_slot()
                0x00000000030005dc                air_block_stuff::get_metatile_number()
                0x00000000030005e0                air_block_stuff::strongly_hit_response(block&, vec2<long> const&)
 .iwram_code    0x00000000030005e4        0x8 objs/block_base_stuff_class.thumb.o
                0x00000000030005e4                block_base_stuff::get_metatile_number()
                0x00000000030005e4                block_base_stuff::get_palette_number()
                0x00000000030005e4                block_base_stuff::get_metatile_graphics_slot()
                0x00000000030005e8                block_base_stuff::strongly_hit_response(block&, vec2<long> const&)
 .iwram_code    0x00000000030005ec       0x48 objs/block_stuff.thumb.o
                0x00000000030005ec                update_block_graphics_in_vram(unsigned short const*)
 .iwram_code    0x0000000003000634       0xe4 objs/coll_box_class.arm.o
                0x0000000003000634                coll_box_intersects_now(coll_box const&, coll_box const&)
                0x0000000003000694                coll_box_intersects_now_2(coll_box const&, coll_box const&)
 .iwram_code    0x0000000003000718       0x34 objs/coll_box_class.thumb.o
                0x0000000003000718                coll_box::contains(vec2<fixed24p8> const&)
 .iwram_code    0x000000000300074c      0x1cc objs/coll_point_group_class.thumb.o
                0x000000000300074c                generate_coll_point_group_16x16(sprite const&, coll_point_group&)
                0x00000000030007e4                generate_coll_point_group_16x32(sprite const&, coll_point_group&)
                0x0000000003000884                generate_coll_point_group_32x16(sprite const&, coll_point_group&)
 .iwram_code    0x0000000003000918       0x50 objs/debug_vars.thumb.o
                0x0000000003000918                clear_debug_vars()
 .iwram_code    0x0000000003000968       0x34 objs/division_funcs.o
                0x0000000003000968                lut_udiv
 .iwram_code    0x000000000300099c        0xc objs/dud_block_stuff_class.thumb.o
                0x000000000300099c                dud_block_stuff::get_palette_number()
                0x00000000030009a0                dud_block_stuff::get_metatile_number()
                0x00000000030009a0                dud_block_stuff::get_metatile_graphics_slot()
                0x00000000030009a4                dud_block_stuff::strongly_hit_response(block&, vec2<long> const&)
 .iwram_code    0x00000000030009a8       0x28 objs/exclam_block_stuff_classes.thumb.o
                0x00000000030009a8                exclam_block_stuff::get_palette_number()
                0x00000000030009ac                exclam_block_stuff::get_metatile_graphics_slot()
                0x00000000030009ac                exclam_block_stuff::get_metatile_number()
                0x00000000030009b0                exclam_block_stuff::strongly_hit_response(block&, vec2<long> const&)
 .iwram_code    0x00000000030009d0      0x1f4 objs/eyes_block_stuff_classes.thumb.o
                0x00000000030009d0                eyes_block_stuff::get_palette_number()
                0x00000000030009d4                eyes_block_stuff::get_metatile_number()
                0x00000000030009d4                eyes_block_stuff::get_metatile_graphics_slot()
                0x00000000030009d8                eyes_block_stuff::strongly_hit_response(block&, vec2<long> const&)
                0x00000000030009f8                eyes_block_with_st_waffle_stuff::strongly_hit_response(block&, vec2<long> const&)
                0x0000000003000a54                eyes_block_with_st_muffin_stuff::strongly_hit_response(block&, vec2<long> const&)
                0x0000000003000ab0                eyes_block_with_st_fire_muffin_stuff::strongly_hit_response(block&, vec2<long> const&)
                0x0000000003000b0c                eyes_block_with_st_ice_muffin_stuff::strongly_hit_response(block&, vec2<long> const&)
                0x0000000003000b68                eyes_block_with_st_chocolate_muffin_stuff::strongly_hit_response(block&, vec2<long> const&)
 .iwram_code    0x0000000003000bc4       0x54 objs/fixed_classes.thumb.o
                0x0000000003000bc4                f24p8_div_by_f8p8(fixed24p8 const&, fixed8p8 const&)
 .iwram_code    0x0000000003000c18       0x7c objs/interrupt_stuff.arm.o
                0x0000000003000c18                isr_main()
 .iwram_code    0x0000000003000c94        0x4 objs/interrupt_stuff.thumb.o
                0x0000000003000c94                irq_dummy()
 .iwram_code    0x0000000003000c98        0xc objs/log_block_stuff_class.thumb.o
                0x0000000003000c98                log_block_stuff::get_palette_number()
                0x0000000003000c9c                log_block_stuff::get_metatile_number()
                0x0000000003000c9c                log_block_stuff::get_metatile_graphics_slot()
                0x0000000003000ca0                log_block_stuff::strongly_hit_response(block&, vec2<long> const&)
 .iwram_code    0x0000000003000ca4       0x88 objs/memcpy32_from_tonc.o
                0x0000000003000ca4                memcpy32
                0x0000000003000cdc                memfill32
 .iwram_code    0x0000000003000d2c       0x24 objs/memory_funcs_8bit.o
                0x0000000003000d2c                memcpy8
                0x0000000003000d40                memfill8
 .iwram_code    0x0000000003000d50      0x1f8 objs/player_sprite_stuff_class.thumb.o
                0x0000000003000d50                player_sprite_stuff::block_coll_response_top_16x16(sprite&, block_coll_result const&, block_coll_result const&, block_coll_result const&)
                0x0000000003000da8                player_sprite_stuff::update_part_2(sprite&, vec2<short>&, vec2<unsigned long> const&)
                0x0000000003000e44                player_sprite_stuff::block_collision_stuff(sprite&)
                0x0000000003000e84                player_sprite_stuff::handle_jumping_stuff(sprite&, unsigned long, unsigned long)
                0x0000000003000ed4                player_sprite_stuff::block_coll_response_top_16x32(sprite&, block_coll_result const&, block_coll_result const&, block_coll_result const&)
 .iwram_code    0x0000000003000f48       0x18 objs/ram_funcs1.o
                0x0000000003000f48                iwram_test_func
                0x0000000003000f50                iwram_test_func2
 .iwram_code    0x0000000003000f60     0x2080 objs/sprite_base_stuff_class.arm.o
                0x0000000003000f60                sprite_base_stuff::non_slope_block_coll_response_bot_16x16(sprite&, block_coll_result const&, block_coll_result const&, block_coll_result const&)
                0x0000000003000fa4                sprite_base_stuff::block_coll_response_left_16x32(sprite&, block_coll_result const&, block_coll_result const&, block_coll_result const&)
                0x0000000003000fc8                sprite_base_stuff::block_coll_response_right_16x32(sprite&, block_coll_result const&, block_coll_result const&, block_coll_result const&)
                0x0000000003000ff0                sprite_base_stuff::non_slope_block_coll_response_bot_16x32(sprite&, block_coll_result const&, block_coll_result const&, block_coll_result const&)
                0x000000000300106c                sprite_base_stuff::apply_gravity(sprite&)
                0x0000000003001084                sprite_base_stuff::get_basic_block_coll_results_left_16x16(coll_point_group&, block_coll_result&, block_coll_result&)
                0x0000000003001144                sprite_base_stuff::get_basic_block_coll_results_top_16x16(coll_point_group&, block_coll_result&, block_coll_result&, block_coll_result&)
                0x000000000300125c                sprite_base_stuff::get_basic_block_coll_results_right_16x16(coll_point_group&, block_coll_result&, block_coll_result&)
                0x000000000300131c                sprite_base_stuff::get_basic_block_coll_results_bot_16x16(coll_point_group&, block_coll_result&, block_coll_result&, block_coll_result&)
                0x0000000003001434                sprite_base_stuff::get_basic_block_coll_results_left_16x32(coll_point_group&, block_coll_result&, block_coll_result&, block_coll_result&)
                0x000000000300154c                sprite_base_stuff::get_basic_block_coll_results_top_16x32(coll_point_group&, block_coll_result&, block_coll_result&, block_coll_result&)
                0x0000000003001664                sprite_base_stuff::get_basic_block_coll_results_right_16x32(coll_point_group&, block_coll_result&, block_coll_result&, block_coll_result&)
                0x000000000300177c                sprite_base_stuff::get_basic_block_coll_results_bot_16x32(coll_point_group&, block_coll_result&, block_coll_result&, block_coll_result&)
                0x0000000003001894                sprite_base_stuff::block_coll_response_left_16x16(sprite&, block_coll_result const&, block_coll_result const&)
                0x00000000030018b8                sprite_base_stuff::block_coll_response_top_16x16(sprite&, block_coll_result const&, block_coll_result const&, block_coll_result const&)
                0x00000000030018e8                sprite_base_stuff::block_coll_response_right_16x16(sprite&, block_coll_result const&, block_coll_result const&)
                0x0000000003001910                sprite_base_stuff::slope_block_coll_response_bot_16x16(sprite&, coll_point_group&, block_coll_result&, block_coll_result&, block_coll_result&, bool)
                0x0000000003001918                sprite_base_stuff::block_coll_response_top_16x32(sprite&, block_coll_result const&, block_coll_result const&, block_coll_result const&)
                0x0000000003001930                sprite_base_stuff::slope_block_coll_response_bot_16x32(sprite&, coll_point_group&, block_coll_result&, block_coll_result&, block_coll_result&, bool)
                0x0000000003001f80                sprite_base_stuff::block_collision_stuff_16x16(sprite&)
                0x0000000003002478                sprite_base_stuff::block_collision_stuff_16x32(sprite&)
                0x0000000003002fdc                sprite_base_stuff::block_collision_stuff_32x16(sprite&)
                0x0000000003002fdc                sprite_base_stuff::block_collision_stuff_32x32(sprite&)
 .iwram_code    0x0000000003002fe0       0xc8 objs/sprite_base_stuff_class.thumb.o
                0x0000000003002fe0                sprite_base_stuff::gfx_update(sprite&)
                0x0000000003003010                sprite_base_stuff::update_part_1(sprite&)
                0x000000000300304c                sprite_base_stuff::update_part_2(sprite&, vec2<short>&, vec2<unsigned long> const&)
                0x0000000003003050                sprite_base_stuff::get_curr_tile_slot(sprite&)
                0x0000000003003058                sprite_base_stuff::get_gfx_category(sprite&)
                0x000000000300305c                sprite_base_stuff::get_curr_relative_tile_slot(sprite&)
                0x0000000003003060                sprite_base_stuff::block_collision_stuff(sprite&)
                0x0000000003003064                sprite_base_stuff::handle_jumping_stuff(sprite&, unsigned long, unsigned long)
                0x0000000003003068                sprite_base_stuff::update_part_2(sprite&, vec2<short> const&, int&)
 .iwram_code    0x00000000030030a8      0x1e8 objs/sprite_class.thumb.o
                0x00000000030030a8                sprite::update_on_screen_pos(vec2<short> const&)
                0x0000000003003128                sprite::camera_follow_basic(vec2<short>&)
                0x00000000030031c4                sprite::center_camera_almost(vec2<short>&) const
                0x00000000030031e8                sprite::block_collision_stuff()
                0x000000000300320c                sprite::get_shape_size_as_vec2_raw() const
 .iwram_code    0x0000000003003290       0x6c objs/sprite_gfx_stuff.thumb.o
                0x0000000003003290                sprite_gfx_manager::upload_sprite_tiles_to_vram(sprite&)
 .iwram_code    0x00000000030032fc      0x514 objs/sprite_manager_class.arm.o
                0x00000000030032fc                sprite_manager::spawn_sprites_if_needed(prev_curr_pair<vec2<short> > const&)
                0x00000000030034b8                sprite_manager::despawn_sprites_if_needed(prev_curr_pair<vec2<short> > const&)
                0x0000000003003510                sprite_manager::spawn_a_sprite_basic(sprite_type, vec2<fixed24p8> const&, vec2<short> const&, bool)
                0x00000000030035b8                sprite_manager::update_all_sprites(vec2<unsigned long> const&, prev_curr_pair<vec2<short> >&, int&)
 .iwram_code    0x0000000003003810       0xdc objs/waffle_sprite_stuff_class.thumb.o
                0x0000000003003810                waffle_sprite_stuff::block_coll_response_left_16x16(sprite&, block_coll_result const&, block_coll_result const&)
                0x0000000003003834                waffle_sprite_stuff::block_coll_response_right_16x16(sprite&, block_coll_result const&, block_coll_result const&)
                0x0000000003003858                waffle_sprite_stuff::update_part_1(sprite&)
 .iwram_code    0x00000000030038ec      0x214 objs/wood_block_stuff_classes.thumb.o
                0x00000000030038ec                wood_block_stuff::get_palette_number()
                0x00000000030038f0                wood_block_stuff::get_metatile_number()
                0x00000000030038f0                wood_block_stuff::get_metatile_graphics_slot()
                0x00000000030038f4                wood_block_stuff::strongly_hit_response(block&, vec2<long> const&)
                0x0000000003003914                wood_block_with_bt_dud_stuff::strongly_hit_response(block&, vec2<long> const&)
                0x0000000003003934                wood_block_with_st_waffle_stuff::strongly_hit_response(block&, vec2<long> const&)
                0x0000000003003990                wood_block_with_st_muffin_stuff::strongly_hit_response(block&, vec2<long> const&)
                0x00000000030039ec                wood_block_with_st_fire_muffin_stuff::strongly_hit_response(block&, vec2<long> const&)
                0x0000000003003a48                wood_block_with_st_ice_muffin_stuff::strongly_hit_response(block&, vec2<long> const&)
                0x0000000003003aa4                wood_block_with_st_chocolate_muffin_stuff::strongly_hit_response(block&, vec2<long> const&)
 .iwram_code.__stub
                0x0000000003003b00       0x64 linker stubs
                0x0000000003003b64                . = ALIGN (0x4)
                0x00000000000039e0                iwram_code_size = SIZEOF (.iwram_code)

.maxmod_code    0x0000000003003b70     0x13dc load address 0x000000000807dfe4
                0x0000000003003b70                . = ALIGN (0x4)
                0x000000000807dfe4                maxmod_code_rom_start = LOADADDR (.maxmod_code)
                0x0000000003003b70                maxmod_code_iwram_start = .
 *(.iwram)
 .iwram         0x0000000003003b70        0x8 ./maxmod/lib/libmm.a(mm_main.o)
                0x0000000003003b70                mpp_call_r7i
                0x0000000003003b72                mpp_call_r2i
                0x0000000003003b74                mpp_call_r1i
 .iwram         0x0000000003003b78      0x554 ./maxmod/lib/libmm.a(mm_mas.o)
                0x0000000003003b78                mppProcessTick
                0x0000000003003c5c                mpp_Channel_NewNote
                0x0000000003003d3c                mpp_Update_ACHN_notest
 .iwram         0x00000000030040cc      0x838 ./maxmod/lib/libmm.a(mm_mixer_gba.o)
                0x00000000030040d0                mmVBlank
                0x0000000003004154                mmMixerMix
 .iwram         0x0000000003004904      0x648 ./maxmod/lib/libmm.a(mm_mas_arm.o)
                0x0000000003004904                mmAllocChannel
                0x0000000003004978                mmReadPattern
                0x0000000003004a64                mmUpdateChannel_T0
                0x0000000003004ca4                mmUpdateChannel_TN
                0x0000000003004e44                mmGetPeriod
                0x0000000003004e88                note_table_oct
                0x0000000003004ea6                note_table_mod
                0x0000000003004f4c                maxmod_code_iwram_end = .
                0x0000000003004f4c                . = ALIGN (0x4)
                0x00000000000013dc                maxmod_code_size = SIZEOF (.maxmod_code)

.iwram_bss      0x0000000003004f4c        0x0 load address 0x000000000807f3c0
 *(.iwram_bss)
                0x0000000003004f4c                . = ALIGN (0x4)

.ewram_code     0x00000000020198ec        0xc load address 0x000000000807f3c0
                0x000000000807f3c0                ewram_code_rom_start = LOADADDR (.ewram_code)
                0x00000000020198ec                ewram_code_ewram_start = .
 *(.ewram_code)
 .ewram_code    0x00000000020198ec        0xc objs/ram_funcs1.o
                0x00000000020198ec                ewram_test_func
                0x00000000020198f8                . = ALIGN (0x4)
                0x000000000000000c                ewram_code_size = SIZEOF (.ewram_code)

.rel.dyn        0x00000000020198f8        0x0 load address 0x000000000807f3cc
 .rel.iplt      0x00000000020198f8        0x0 /usr/lib/gcc/arm-none-eabi/5.2.0/crtbegin.o

.bss            0x00000000020198f8     0x1bb8 load address 0x000000000807f3cc
                0x00000000020198f8                __bss_start__ = .
 *(.bss .bss.* .gnu.linkonce.b.*)
 .bss           0x00000000020198f8        0x0 /usr/lib/gcc/arm-none-eabi/5.2.0/crti.o
 .bss           0x00000000020198f8        0x0 /usr/lib/gcc/arm-none-eabi/5.2.0/crtbegin.o
 .bss.completed.8358
                0x00000000020198f8        0x1 /usr/lib/gcc/arm-none-eabi/5.2.0/crtbegin.o
 *fill*         0x00000000020198f9        0x3 
 .bss.object.8363
                0x00000000020198fc       0x18 /usr/lib/gcc/arm-none-eabi/5.2.0/crtbegin.o
 .bss           0x0000000002019914        0x0 /usr/lib/gcc/arm-none-eabi/5.2.0/../../../../arm-none-eabi/lib/crt0.o
 .bss           0x0000000002019914       0x10 objs/active_level_class.thumb.o
                0x0000000002019914                active_level::horiz_level_block_data_2d
 .bss           0x0000000002019924        0x0 objs/active_level_manager_class.arm.o
 .bss           0x0000000002019924      0x230 objs/active_level_manager_class.thumb.o
                0x0000000002019924                active_level_manager::converted_block_tile_ids_3
                0x00000000020199b0                active_level_manager::converted_block_tile_ids_2
                0x0000000002019a3c                active_level_manager::converted_block_tile_ids_1
                0x0000000002019ac8                active_level_manager::converted_block_tile_ids_0
 .bss           0x0000000002019b54        0x0 objs/air_block_stuff_class.thumb.o
 .bss           0x0000000002019b54        0x0 objs/asm_init.o
 .bss           0x0000000002019b54        0x0 objs/bg_reg_stuff.arm.o
 .bss           0x0000000002019b54        0x0 objs/block_base_stuff_class.thumb.o
 .bss           0x0000000002019b54        0x0 objs/block_stuff.thumb.o
 .bss           0x0000000002019b54        0x0 objs/button_stuff.thumb.o
 .bss           0x0000000002019b54        0x0 objs/coll_box_class.arm.o
 .bss           0x0000000002019b54        0x0 objs/coll_box_class.thumb.o
 .bss           0x0000000002019b54        0x0 objs/coll_point_group_class.thumb.o
 .bss           0x0000000002019b54      0x1d0 objs/debug_vars.thumb.o
                0x0000000002019b54                curr_debug_s32_index
                0x0000000002019b58                curr_debug_u32_index
                0x0000000002019b5c                curr_debug_f24p8_index
                0x0000000002019b60                debug_arr_s32
                0x0000000002019be0                debug_arr_u32
                0x0000000002019c60                debug_arr_f24p8
                0x0000000002019ce0                debug_arr_f8p8
                0x0000000002019d20                curr_debug_f8p8_index
 .bss           0x0000000002019d24        0x0 objs/division_funcs.o
 .bss           0x0000000002019d24       0x10 objs/dma_stuff.thumb.o
                0x0000000002019d24                dma3cnt_mirror
                0x0000000002019d28                dma0cnt_mirror
                0x0000000002019d2c                dma2cnt_mirror
                0x0000000002019d30                dma1cnt_mirror
 .bss           0x0000000002019d34        0x0 objs/dud_block_stuff_class.thumb.o
 .bss           0x0000000002019d34        0x0 objs/exclam_block_stuff_classes.thumb.o
 .bss           0x0000000002019d34        0x0 objs/eyes_block_stuff_classes.thumb.o
 .bss           0x0000000002019d34        0x0 objs/fixed_classes.thumb.o
 .bss           0x0000000002019d34        0x0 objs/grass_and_dirt_block_stuff_classes.thumb.o
 .bss           0x0000000002019d34        0x0 objs/interrupt_stuff.arm.o
 .bss           0x0000000002019d34       0x38 objs/interrupt_stuff.thumb.o
                0x0000000002019d34                isr_table
 .bss           0x0000000002019d6c        0x0 objs/level_class.thumb.o
 .bss           0x0000000002019d6c        0x0 objs/log_block_stuff_class.thumb.o
 .bss           0x0000000002019d6c       0x24 objs/main.thumb.o
                0x0000000002019d6c                bg0_screenblock_mirror_2d
                0x0000000002019d7c                bg0_screenblock_2d
                0x0000000002019d8c                test_int_global
 .bss           0x0000000002019d90        0x0 objs/memcpy32_from_tonc.o
 .bss           0x0000000002019d90        0x0 objs/memory_funcs_8bit.o
 .bss           0x0000000002019d90        0x0 objs/muffin_sprite_stuff_classes.thumb.o
 .bss           0x0000000002019d90      0x400 objs/oam_entry_classes.thumb.o
                0x0000000002019d90                oam_mirror
 .bss           0x000000000201a190        0x0 objs/player_sprite_stuff_class.thumb.o
 .bss           0x000000000201a190        0x0 objs/practice_17.bin.o
 .bss           0x000000000201a190        0x0 objs/ram_funcs1.o
 .bss           0x000000000201a190        0x0 objs/sherwin_gfx.o
 .bss           0x000000000201a190        0x0 objs/sprite_base_stuff_class.arm.o
 .bss           0x000000000201a190        0x0 objs/sprite_base_stuff_class.thumb.o
 .bss           0x000000000201a190        0x0 objs/sprite_class.thumb.o
 .bss           0x000000000201a190        0x0 objs/sprite_gfx_stuff.thumb.o
 .bss           0x000000000201a190        0x0 objs/sprite_manager_class.arm.o
 .bss           0x000000000201a190      0xb40 objs/sprite_manager_class.thumb.o
                0x000000000201a190                sprite_manager::the_sprites
 .bss           0x000000000201acd0        0x0 objs/sprite_type_stuff.thumb.o
 .bss           0x000000000201acd0        0x0 objs/sublevel_class.thumb.o
 .bss           0x000000000201acd0        0x0 objs/test_level.thumb.o
 .bss           0x000000000201acd0        0x0 objs/the_block_gfx.o
 .bss           0x000000000201acd0        0x0 objs/the_block_like_sprites_gfx.o
 .bss           0x000000000201acd0        0x0 objs/the_golem_enemy_gfx.o
 .bss           0x000000000201acd0        0x0 objs/the_powerup_gfx.o
 .bss           0x000000000201acd0        0x0 objs/title_screen.o
 .bss           0x000000000201acd0        0x0 objs/waffle_sprite_stuff_class.arm.o
 .bss           0x000000000201acd0        0x0 objs/waffle_sprite_stuff_class.thumb.o
 .bss           0x000000000201acd0        0x0 objs/warp_block_sprite_stuff_class.thumb.o
 .bss           0x000000000201acd0        0x0 objs/wood_block_stuff_classes.thumb.o
 .bss           0x000000000201acd0        0x0 /usr/lib/gcc/arm-none-eabi/5.2.0/thumb/libgcc.a(unwind-arm.o)
 .bss           0x000000000201acd0        0x0 /usr/lib/gcc/arm-none-eabi/5.2.0/thumb/libgcc.a(libunwind.o)
 .bss           0x000000000201acd0        0x0 /usr/lib/gcc/arm-none-eabi/5.2.0/thumb/libgcc.a(pr-support.o)
 .bss           0x000000000201acd0        0x0 /usr/lib/gcc/arm-none-eabi/5.2.0/thumb/libgcc.a(_thumb1_case_uqi.o)
 .bss           0x000000000201acd0        0x0 /usr/lib/gcc/arm-none-eabi/5.2.0/../../../../arm-none-eabi/lib/thumb/libc.a(lib_a-abort.o)
 .bss           0x000000000201acd0        0x0 /usr/lib/gcc/arm-none-eabi/5.2.0/../../../../arm-none-eabi/lib/thumb/libc.a(lib_a-aeabi_atexit.o)
 .bss           0x000000000201acd0        0x0 /usr/lib/gcc/arm-none-eabi/5.2.0/../../../../arm-none-eabi/lib/thumb/libc.a(lib_a-atexit.o)
 .bss           0x000000000201acd0        0x0 /usr/lib/gcc/arm-none-eabi/5.2.0/../../../../arm-none-eabi/lib/thumb/libc.a(lib_a-cxa_atexit.o)
 .bss           0x000000000201acd0        0x0 /usr/lib/gcc/arm-none-eabi/5.2.0/../../../../arm-none-eabi/lib/thumb/libc.a(lib_a-exit.o)
 .bss           0x000000000201acd0        0x0 /usr/lib/gcc/arm-none-eabi/5.2.0/../../../../arm-none-eabi/lib/thumb/libc.a(lib_a-fini.o)
 .bss           0x000000000201acd0        0x0 /usr/lib/gcc/arm-none-eabi/5.2.0/../../../../arm-none-eabi/lib/thumb/libc.a(lib_a-impure.o)
 .bss           0x000000000201acd0        0x0 /usr/lib/gcc/arm-none-eabi/5.2.0/../../../../arm-none-eabi/lib/thumb/libc.a(lib_a-init.o)
 .bss           0x000000000201acd0        0x0 /usr/lib/gcc/arm-none-eabi/5.2.0/../../../../arm-none-eabi/lib/thumb/libc.a(lib_a-memcpy.o)
 .bss           0x000000000201acd0        0x0 /usr/lib/gcc/arm-none-eabi/5.2.0/../../../../arm-none-eabi/lib/thumb/libc.a(lib_a-memset.o)
 .bss           0x000000000201acd0        0x0 /usr/lib/gcc/arm-none-eabi/5.2.0/../../../../arm-none-eabi/lib/thumb/libc.a(lib_a-signal.o)
 .bss           0x000000000201acd0        0x0 /usr/lib/gcc/arm-none-eabi/5.2.0/../../../../arm-none-eabi/lib/thumb/libc.a(lib_a-signalr.o)
 .bss           0x000000000201acd0        0x0 /usr/lib/gcc/arm-none-eabi/5.2.0/../../../../arm-none-eabi/lib/thumb/libc.a(lib_a-__atexit.o)
 .bss           0x000000000201acd0        0x0 /usr/lib/gcc/arm-none-eabi/5.2.0/../../../../arm-none-eabi/lib/thumb/libc.a(lib_a-__call_atexit.o)
 .bss           0x000000000201acd0        0x0 /usr/lib/gcc/arm-none-eabi/5.2.0/../../../../arm-none-eabi/lib/thumb/libc.a(lib_a-mallocr.o)
 .bss.__malloc_max_total_mem
                0x000000000201acd0        0x4 /usr/lib/gcc/arm-none-eabi/5.2.0/../../../../arm-none-eabi/lib/thumb/libc.a(lib_a-mallocr.o)
                0x000000000201acd0                __malloc_max_total_mem
 .bss.__malloc_max_sbrked_mem
                0x000000000201acd4        0x4 /usr/lib/gcc/arm-none-eabi/5.2.0/../../../../arm-none-eabi/lib/thumb/libc.a(lib_a-mallocr.o)
                0x000000000201acd4                __malloc_max_sbrked_mem
 .bss.__malloc_top_pad
                0x000000000201acd8        0x4 /usr/lib/gcc/arm-none-eabi/5.2.0/../../../../arm-none-eabi/lib/thumb/libc.a(lib_a-mallocr.o)
                0x000000000201acd8                __malloc_top_pad
 .bss.__malloc_current_mallinfo
                0x000000000201acdc       0x28 /usr/lib/gcc/arm-none-eabi/5.2.0/../../../../arm-none-eabi/lib/thumb/libc.a(lib_a-mallocr.o)
                0x000000000201acdc                __malloc_current_mallinfo
 .bss           0x000000000201ad04        0x0 /usr/lib/gcc/arm-none-eabi/5.2.0/../../../../arm-none-eabi/lib/thumb/libc.a(lib_a-mlock.o)
 .bss           0x000000000201ad04        0x0 /usr/lib/gcc/arm-none-eabi/5.2.0/../../../../arm-none-eabi/lib/thumb/libc.a(lib_a-reent.o)
 .bss           0x000000000201ad04        0x0 /usr/lib/gcc/arm-none-eabi/5.2.0/../../../../arm-none-eabi/lib/thumb/libc.a(lib_a-sbrkr.o)
 .bss           0x000000000201ad04        0x0 /usr/lib/gcc/arm-none-eabi/5.2.0/../../../../arm-none-eabi/lib/thumb/libc.a(lib_a-freer.o)
 .bss           0x000000000201ad04        0x0 /usr/lib/gcc/arm-none-eabi/5.2.0/../../../../arm-none-eabi/lib/thumb/libstdc++.a(new_op.o)
 .bss           0x000000000201ad04        0x0 /usr/lib/gcc/arm-none-eabi/5.2.0/../../../../arm-none-eabi/lib/thumb/libstdc++.a(eh_throw.o)
 .bss           0x000000000201ad04        0x0 /usr/lib/gcc/arm-none-eabi/5.2.0/../../../../arm-none-eabi/lib/thumb/libstdc++.a(bad_alloc.o)
 .bss           0x000000000201ad04        0x0 /usr/lib/gcc/arm-none-eabi/5.2.0/../../../../arm-none-eabi/lib/thumb/libstdc++.a(si_class_type_info.o)
 .bss           0x000000000201ad04        0x0 /usr/lib/gcc/arm-none-eabi/5.2.0/../../../../arm-none-eabi/lib/thumb/libstdc++.a(eh_globals.o)
 .bss._ZL10eh_globals
                0x000000000201ad04        0xc /usr/lib/gcc/arm-none-eabi/5.2.0/../../../../arm-none-eabi/lib/thumb/libstdc++.a(eh_globals.o)
 .bss           0x000000000201ad10        0x0 /usr/lib/gcc/arm-none-eabi/5.2.0/../../../../arm-none-eabi/lib/thumb/libstdc++.a(del_op.o)
 .bss           0x000000000201ad10        0x0 /usr/lib/gcc/arm-none-eabi/5.2.0/../../../../arm-none-eabi/lib/thumb/libstdc++.a(new_handler.o)
 .bss._ZN12_GLOBAL__N_113__new_handlerE
                0x000000000201ad10        0x4 /usr/lib/gcc/arm-none-eabi/5.2.0/../../../../arm-none-eabi/lib/thumb/libstdc++.a(new_handler.o)
 .bss           0x000000000201ad14        0x0 /usr/lib/gcc/arm-none-eabi/5.2.0/../../../../arm-none-eabi/lib/thumb/libstdc++.a(class_type_info.o)
 .bss           0x000000000201ad14        0x0 /usr/lib/gcc/arm-none-eabi/5.2.0/../../../../arm-none-eabi/lib/thumb/libstdc++.a(eh_catch.o)
 .bss           0x000000000201ad14        0x0 /usr/lib/gcc/arm-none-eabi/5.2.0/../../../../arm-none-eabi/lib/thumb/libstdc++.a(eh_call.o)
 .bss           0x000000000201ad14        0x0 /usr/lib/gcc/arm-none-eabi/5.2.0/../../../../arm-none-eabi/lib/thumb/libstdc++.a(eh_terminate.o)
 .bss           0x000000000201ad14        0x0 /usr/lib/gcc/arm-none-eabi/5.2.0/../../../../arm-none-eabi/lib/thumb/libstdc++.a(eh_personality.o)
 .bss           0x000000000201ad14        0x0 /usr/lib/gcc/arm-none-eabi/5.2.0/../../../../arm-none-eabi/lib/thumb/libstdc++.a(eh_exception.o)
 .bss           0x000000000201ad14        0x0 /usr/lib/gcc/arm-none-eabi/5.2.0/../../../../arm-none-eabi/lib/thumb/libstdc++.a(eh_alloc.o)
 .bss._ZN12_GLOBAL__N_114emergency_poolE
                0x000000000201ad14       0x10 /usr/lib/gcc/arm-none-eabi/5.2.0/../../../../arm-none-eabi/lib/thumb/libstdc++.a(eh_alloc.o)
 .bss           0x000000000201ad24        0x0 /usr/lib/gcc/arm-none-eabi/5.2.0/../../../../arm-none-eabi/lib/thumb/libstdc++.a(tinfo.o)
 .bss           0x000000000201ad24        0x0 /usr/lib/gcc/arm-none-eabi/5.2.0/../../../../arm-none-eabi/lib/thumb/libstdc++.a(eh_unex_handler.o)
 .bss           0x000000000201ad24        0x0 /usr/lib/gcc/arm-none-eabi/5.2.0/../../../../arm-none-eabi/lib/thumb/libstdc++.a(eh_arm.o)
 .bss           0x000000000201ad24        0x0 /usr/lib/gcc/arm-none-eabi/5.2.0/../../../../arm-none-eabi/lib/thumb/libstdc++.a(pure.o)
 .bss           0x000000000201ad24        0x0 /usr/lib/gcc/arm-none-eabi/5.2.0/../../../../arm-none-eabi/lib/thumb/libstdc++.a(eh_term_handler.o)
 .bss           0x000000000201ad24        0x0 /usr/lib/gcc/arm-none-eabi/5.2.0/../../../../arm-none-eabi/lib/thumb/libstdc++.a(vterminate.o)
 .bss._ZZN9__gnu_cxx27__verbose_terminate_handlerEvE11terminating
                0x000000000201ad24        0x1 /usr/lib/gcc/arm-none-eabi/5.2.0/../../../../arm-none-eabi/lib/thumb/libstdc++.a(vterminate.o)
 .bss           0x000000000201ad25        0x0 /usr/lib/gcc/arm-none-eabi/5.2.0/../../../../arm-none-eabi/lib/thumb/libstdc++.a(cp-demangle.o)
 .bss           0x000000000201ad25        0x0 /usr/lib/gcc/arm-none-eabi/5.2.0/../../../../arm-none-eabi/lib/thumb/libstdc++.a(eh_type.o)
 .bss           0x000000000201ad25        0x0 /usr/lib/gcc/arm-none-eabi/5.2.0/libgcc.a(_thumb1_case_sqi.o)
 .bss           0x000000000201ad25        0x0 /usr/lib/gcc/arm-none-eabi/5.2.0/libgcc.a(_thumb1_case_shi.o)
 .bss           0x000000000201ad25        0x0 /usr/lib/gcc/arm-none-eabi/5.2.0/libgcc.a(_thumb1_case_uhi.o)
 .bss           0x000000000201ad25        0x0 /usr/lib/gcc/arm-none-eabi/5.2.0/../../../../arm-none-eabi/lib/libc.a(lib_a-fputc.o)
 .bss           0x000000000201ad25        0x0 /usr/lib/gcc/arm-none-eabi/5.2.0/../../../../arm-none-eabi/lib/libc.a(lib_a-fputs.o)
 .bss           0x000000000201ad25        0x0 /usr/lib/gcc/arm-none-eabi/5.2.0/../../../../arm-none-eabi/lib/libc.a(lib_a-fvwrite.o)
 .bss           0x000000000201ad25        0x0 /usr/lib/gcc/arm-none-eabi/5.2.0/../../../../arm-none-eabi/lib/libc.a(lib_a-malloc.o)
 .bss           0x000000000201ad25        0x0 /usr/lib/gcc/arm-none-eabi/5.2.0/../../../../arm-none-eabi/lib/libc.a(lib_a-memchr.o)
 .bss           0x000000000201ad25        0x0 /usr/lib/gcc/arm-none-eabi/5.2.0/../../../../arm-none-eabi/lib/libc.a(lib_a-memcmp.o)
 .bss           0x000000000201ad25        0x0 /usr/lib/gcc/arm-none-eabi/5.2.0/../../../../arm-none-eabi/lib/libc.a(lib_a-memmove.o)
 .bss           0x000000000201ad25        0x0 /usr/lib/gcc/arm-none-eabi/5.2.0/../../../../arm-none-eabi/lib/libc.a(lib_a-putc.o)
 .bss           0x000000000201ad25        0x0 /usr/lib/gcc/arm-none-eabi/5.2.0/../../../../arm-none-eabi/lib/libc.a(lib_a-realloc.o)
 .bss           0x000000000201ad25        0x0 /usr/lib/gcc/arm-none-eabi/5.2.0/../../../../arm-none-eabi/lib/libc.a(lib_a-reallocr.o)
 .bss           0x000000000201ad25        0x0 /usr/lib/gcc/arm-none-eabi/5.2.0/../../../../arm-none-eabi/lib/libc.a(lib_a-sprintf.o)
 .bss           0x000000000201ad25        0x0 /usr/lib/gcc/arm-none-eabi/5.2.0/../../../../arm-none-eabi/lib/libc.a(lib_a-strcmp.o)
 .bss           0x000000000201ad25        0x0 /usr/lib/gcc/arm-none-eabi/5.2.0/../../../../arm-none-eabi/lib/libc.a(lib_a-strcpy.o)
 .bss           0x000000000201ad25        0x0 /usr/lib/gcc/arm-none-eabi/5.2.0/../../../../arm-none-eabi/lib/libc.a(lib_a-strlen.o)
 .bss           0x000000000201ad25        0x0 /usr/lib/gcc/arm-none-eabi/5.2.0/../../../../arm-none-eabi/lib/libc.a(lib_a-strncmp.o)
 .bss           0x000000000201ad25        0x0 /usr/lib/gcc/arm-none-eabi/5.2.0/../../../../arm-none-eabi/lib/libc.a(lib_a-svfprintf.o)
 .bss           0x000000000201ad25        0x0 /usr/lib/gcc/arm-none-eabi/5.2.0/../../../../arm-none-eabi/lib/libc.a(lib_a-syswrite.o)
 .bss           0x000000000201ad25        0x0 /usr/lib/gcc/arm-none-eabi/5.2.0/../../../../arm-none-eabi/lib/libc.a(lib_a-wbuf.o)
 .bss           0x000000000201ad25        0x0 /usr/lib/gcc/arm-none-eabi/5.2.0/../../../../arm-none-eabi/lib/libc.a(lib_a-writer.o)
 .bss           0x000000000201ad25        0x0 /usr/lib/gcc/arm-none-eabi/5.2.0/../../../../arm-none-eabi/lib/libc.a(lib_a-wsetup.o)
 .bss           0x000000000201ad25        0x0 /usr/lib/gcc/arm-none-eabi/5.2.0/../../../../arm-none-eabi/lib/libc.a(lib_a-dtoa.o)
 .bss           0x000000000201ad25        0x0 /usr/lib/gcc/arm-none-eabi/5.2.0/../../../../arm-none-eabi/lib/libc.a(lib_a-fflush.o)
 .bss           0x000000000201ad25        0x0 /usr/lib/gcc/arm-none-eabi/5.2.0/../../../../arm-none-eabi/lib/libc.a(lib_a-findfp.o)
 .bss           0x000000000201ad25        0x0 /usr/lib/gcc/arm-none-eabi/5.2.0/../../../../arm-none-eabi/lib/libc.a(lib_a-fwalk.o)
 .bss           0x000000000201ad25        0x0 /usr/lib/gcc/arm-none-eabi/5.2.0/../../../../arm-none-eabi/lib/libc.a(lib_a-locale.o)
 *fill*         0x000000000201ad25        0x3 
 .bss._PathLocale
                0x000000000201ad28        0x4 /usr/lib/gcc/arm-none-eabi/5.2.0/../../../../arm-none-eabi/lib/libc.a(lib_a-locale.o)
                0x000000000201ad28                _PathLocale
 .bss.__nlocale_changed
                0x000000000201ad2c        0x4 /usr/lib/gcc/arm-none-eabi/5.2.0/../../../../arm-none-eabi/lib/libc.a(lib_a-locale.o)
                0x000000000201ad2c                __nlocale_changed
 .bss.__mlocale_changed
                0x000000000201ad30        0x4 /usr/lib/gcc/arm-none-eabi/5.2.0/../../../../arm-none-eabi/lib/libc.a(lib_a-locale.o)
                0x000000000201ad30                __mlocale_changed
 .bss           0x000000000201ad34        0x0 /usr/lib/gcc/arm-none-eabi/5.2.0/../../../../arm-none-eabi/lib/libc.a(lib_a-makebuf.o)
 .bss           0x000000000201ad34        0x0 /usr/lib/gcc/arm-none-eabi/5.2.0/../../../../arm-none-eabi/lib/libc.a(lib_a-mprec.o)
 .bss           0x000000000201ad34        0x0 /usr/lib/gcc/arm-none-eabi/5.2.0/../../../../arm-none-eabi/lib/libc.a(lib_a-s_fpclassify.o)
 .bss           0x000000000201ad34        0x0 /usr/lib/gcc/arm-none-eabi/5.2.0/../../../../arm-none-eabi/lib/libc.a(lib_a-stdio.o)
 .bss           0x000000000201ad34        0x0 /usr/lib/gcc/arm-none-eabi/5.2.0/../../../../arm-none-eabi/lib/libc.a(lib_a-svfiprintf.o)
 .bss           0x000000000201ad34        0x0 /usr/lib/gcc/arm-none-eabi/5.2.0/../../../../arm-none-eabi/lib/libc.a(lib_a-callocr.o)
 .bss           0x000000000201ad34        0x0 /usr/lib/gcc/arm-none-eabi/5.2.0/../../../../arm-none-eabi/lib/libc.a(lib_a-closer.o)
 .bss           0x000000000201ad34        0x0 /usr/lib/gcc/arm-none-eabi/5.2.0/../../../../arm-none-eabi/lib/libc.a(lib_a-fclose.o)
 .bss           0x000000000201ad34        0x0 /usr/lib/gcc/arm-none-eabi/5.2.0/../../../../arm-none-eabi/lib/libc.a(lib_a-fstatr.o)
 .bss           0x000000000201ad34        0x0 /usr/lib/gcc/arm-none-eabi/5.2.0/../../../../arm-none-eabi/lib/libc.a(lib_a-isattyr.o)
 .bss           0x000000000201ad34        0x0 /usr/lib/gcc/arm-none-eabi/5.2.0/../../../../arm-none-eabi/lib/libc.a(lib_a-lseekr.o)
 .bss           0x000000000201ad34        0x0 /usr/lib/gcc/arm-none-eabi/5.2.0/../../../../arm-none-eabi/lib/libc.a(lib_a-readr.o)
 .bss           0x000000000201ad34       0x20 ./maxmod/lib/libmm.a(mm_main.o)
                0x000000000201ad34                mmCallback
                0x000000000201ad38                mmModuleCount
                0x000000000201ad3c                mmModuleBank
                0x000000000201ad40                mmSampleBank
                0x000000000201ad44                mm_ch_mask
                0x000000000201ad48                mm_vblank_function
                0x000000000201ad4c                mmInitialized
                0x000000000201ad50                mp_solution
 .bss           0x000000000201ad54      0x148 ./maxmod/lib/libmm.a(mm_mas.o)
                0x000000000201ad54                mmLayerMain
                0x000000000201ad8c                mmLayerSub
                0x000000000201adc4                mpp_vars
                0x000000000201add4                mpp_layerp
                0x000000000201add8                mpp_channels
                0x000000000201ade8                mpp_nchannels
                0x000000000201ade9                mpp_clayer
                0x000000000201adec                mm_achannels
                0x000000000201adf0                mm_pchannels
                0x000000000201adf4                mm_num_mch
                0x000000000201adf8                mm_num_ach
                0x000000000201adfc                mm_schannels
 .bss           0x000000000201ae9c      0x420 ./maxmod/lib/libmm.a(mm_init_default.o)
 .bss           0x000000000201b2bc      0x1bc ./maxmod/lib/libmm.a(mm_mixer_gba.o)
                0x000000000201b2bc                mp_writepos
                0x000000000201b2c4                mm_mixchannels
                0x000000000201b2cc                mm_mixlen
                0x000000000201b2e0                mm_bpmdv
                0x000000000201b2e4                mp_mix_seg
 .bss           0x000000000201b478       0x30 ./maxmod/lib/libmm.a(mm_effect.o)
                0x000000000201b49c                mm_sfx_bitmask
                0x000000000201b4a0                mm_sfx_clearmask
 .bss           0x000000000201b4a8        0x0 ./maxmod/lib/libmm.a(mm_mas_arm.o)
 .bss           0x000000000201b4a8        0x0 /usr/lib/gcc/arm-none-eabi/5.2.0/libgcc.a(_udivsi3.o)
 .bss           0x000000000201b4a8        0x0 /usr/lib/gcc/arm-none-eabi/5.2.0/libgcc.a(_divsi3.o)
 .bss           0x000000000201b4a8        0x0 /usr/lib/gcc/arm-none-eabi/5.2.0/libgcc.a(_dvmd_tls.o)
 .bss           0x000000000201b4a8        0x0 /usr/lib/gcc/arm-none-eabi/5.2.0/libgcc.a(_call_via_rX.o)
 .bss           0x000000000201b4a8        0x0 /usr/lib/gcc/arm-none-eabi/5.2.0/libgcc.a(_arm_addsubdf3.o)
 .bss           0x000000000201b4a8        0x0 /usr/lib/gcc/arm-none-eabi/5.2.0/libgcc.a(_arm_muldivdf3.o)
 .bss           0x000000000201b4a8        0x0 /usr/lib/gcc/arm-none-eabi/5.2.0/libgcc.a(_arm_cmpdf2.o)
 .bss           0x000000000201b4a8        0x0 /usr/lib/gcc/arm-none-eabi/5.2.0/libgcc.a(_arm_fixdfsi.o)
 .bss           0x000000000201b4a8        0x0 /usr/lib/gcc/arm-none-eabi/5.2.0/libgcc.a(_aeabi_uldivmod.o)
 .bss           0x000000000201b4a8        0x0 /usr/lib/gcc/arm-none-eabi/5.2.0/libgcc.a(_udivmoddi4.o)
 .bss           0x000000000201b4a8        0x0 /usr/lib/gcc/arm-none-eabi/5.2.0/libgcc.a(_lshrdi3.o)
 .bss           0x000000000201b4a8        0x0 /usr/lib/gcc/arm-none-eabi/5.2.0/libgcc.a(_ashldi3.o)
 .bss           0x000000000201b4a8        0x0 /usr/lib/gcc/arm-none-eabi/5.2.0/libgcc.a(_clzdi2.o)
 .bss           0x000000000201b4a8        0x0 /usr/lib/gcc/arm-none-eabi/5.2.0/libgcc.a(_clzsi2.o)
 .bss           0x000000000201b4a8        0x0 /usr/lib/gcc/arm-none-eabi/5.2.0/../../../../arm-none-eabi/lib/libnosys.a(close.o)
 .bss           0x000000000201b4a8        0x0 /usr/lib/gcc/arm-none-eabi/5.2.0/../../../../arm-none-eabi/lib/libnosys.a(fstat.o)
 .bss           0x000000000201b4a8        0x0 /usr/lib/gcc/arm-none-eabi/5.2.0/../../../../arm-none-eabi/lib/libnosys.a(getpid.o)
 .bss           0x000000000201b4a8        0x0 /usr/lib/gcc/arm-none-eabi/5.2.0/../../../../arm-none-eabi/lib/libnosys.a(isatty.o)
 .bss           0x000000000201b4a8        0x0 /usr/lib/gcc/arm-none-eabi/5.2.0/../../../../arm-none-eabi/lib/libnosys.a(kill.o)
 .bss           0x000000000201b4a8        0x0 /usr/lib/gcc/arm-none-eabi/5.2.0/../../../../arm-none-eabi/lib/libnosys.a(lseek.o)
 .bss           0x000000000201b4a8        0x0 /usr/lib/gcc/arm-none-eabi/5.2.0/../../../../arm-none-eabi/lib/libnosys.a(read.o)
 .bss           0x000000000201b4a8        0x0 /usr/lib/gcc/arm-none-eabi/5.2.0/../../../../arm-none-eabi/lib/libnosys.a(sbrk.o)
 .bss.heap_end.4167
                0x000000000201b4a8        0x4 /usr/lib/gcc/arm-none-eabi/5.2.0/../../../../arm-none-eabi/lib/libnosys.a(sbrk.o)
 .bss           0x000000000201b4ac        0x0 /usr/lib/gcc/arm-none-eabi/5.2.0/../../../../arm-none-eabi/lib/libnosys.a(write.o)
 .bss           0x000000000201b4ac        0x0 /usr/lib/gcc/arm-none-eabi/5.2.0/../../../../arm-none-eabi/lib/libnosys.a(_exit.o)
 .bss           0x000000000201b4ac        0x0 /usr/lib/gcc/arm-none-eabi/5.2.0/crtend.o
 .bss           0x000000000201b4ac        0x0 /usr/lib/gcc/arm-none-eabi/5.2.0/crtn.o
 *(.ewram .ewram.*)
 *(COMMON)
 COMMON         0x000000000201b4ac        0x4 /usr/lib/gcc/arm-none-eabi/5.2.0/../../../../arm-none-eabi/lib/thumb/libc.a(lib_a-reent.o)
                0x000000000201b4ac                errno
                0x000000000201b4b0                . = ALIGN (0x4)
                0x000000000201b4b0                __bss_end__ = .
                0x000000000201b4b0                end = .
                0x000000000201b4b0                __end__ = .

.sram           0x000000000e000000       0x98
 *(.sram .sram.*)
 .sram          0x000000000e000000       0x98 objs/main.thumb.o
                0x000000000e000000                test_sram_arr
                0x000000000e000080                sram_init_str
                0x000000000e000098                . = ALIGN (0x4)

.stab           0x000000000807f3cc       0xcc
 *(.stab)
 .stab          0x000000000807f3cc       0x24 /usr/lib/gcc/arm-none-eabi/5.2.0/../../../../arm-none-eabi/lib/libnosys.a(close.o)
 .stab          0x000000000807f3f0       0x18 /usr/lib/gcc/arm-none-eabi/5.2.0/../../../../arm-none-eabi/lib/libnosys.a(fstat.o)
                                         0x24 (size before relaxing)
 .stab          0x000000000807f408       0x18 /usr/lib/gcc/arm-none-eabi/5.2.0/../../../../arm-none-eabi/lib/libnosys.a(getpid.o)
                                         0x24 (size before relaxing)
 .stab          0x000000000807f420       0x18 /usr/lib/gcc/arm-none-eabi/5.2.0/../../../../arm-none-eabi/lib/libnosys.a(isatty.o)
                                         0x24 (size before relaxing)
 .stab          0x000000000807f438       0x18 /usr/lib/gcc/arm-none-eabi/5.2.0/../../../../arm-none-eabi/lib/libnosys.a(kill.o)
                                         0x24 (size before relaxing)
 .stab          0x000000000807f450       0x18 /usr/lib/gcc/arm-none-eabi/5.2.0/../../../../arm-none-eabi/lib/libnosys.a(lseek.o)
                                         0x24 (size before relaxing)
 .stab          0x000000000807f468       0x18 /usr/lib/gcc/arm-none-eabi/5.2.0/../../../../arm-none-eabi/lib/libnosys.a(read.o)
                                         0x24 (size before relaxing)
 .stab          0x000000000807f480       0x18 /usr/lib/gcc/arm-none-eabi/5.2.0/../../../../arm-none-eabi/lib/libnosys.a(write.o)
                                         0x24 (size before relaxing)

.stabstr        0x000000000807f3cc      0x1b9
 *(.stabstr)
 .stabstr       0x000000000807f3cc      0x1b9 /usr/lib/gcc/arm-none-eabi/5.2.0/../../../../arm-none-eabi/lib/libnosys.a(close.o)

.comment        0x000000000807f3cc       0x1d
 *(.comment)
 .comment       0x000000000807f3cc       0x1d objs/active_level_class.thumb.o
                                         0x1e (size before relaxing)
 .comment       0x000000000807f3e9       0x1e objs/active_level_manager_class.arm.o
 .comment       0x000000000807f3e9       0x1e objs/active_level_manager_class.thumb.o
 .comment       0x000000000807f3e9       0x1e objs/air_block_stuff_class.thumb.o
 .comment       0x000000000807f3e9       0x1e objs/bg_reg_stuff.arm.o
 .comment       0x000000000807f3e9       0x1e objs/block_base_stuff_class.thumb.o
 .comment       0x000000000807f3e9       0x1e objs/block_stuff.thumb.o
 .comment       0x000000000807f3e9       0x1e objs/button_stuff.thumb.o
 .comment       0x000000000807f3e9       0x1e objs/coll_box_class.arm.o
 .comment       0x000000000807f3e9       0x1e objs/coll_box_class.thumb.o
 .comment       0x000000000807f3e9       0x1e objs/coll_point_group_class.thumb.o
 .comment       0x000000000807f3e9       0x1e objs/debug_vars.thumb.o
 .comment       0x000000000807f3e9       0x1e objs/dma_stuff.thumb.o
 .comment       0x000000000807f3e9       0x1e objs/dud_block_stuff_class.thumb.o
 .comment       0x000000000807f3e9       0x1e objs/exclam_block_stuff_classes.thumb.o
 .comment       0x000000000807f3e9       0x1e objs/eyes_block_stuff_classes.thumb.o
 .comment       0x000000000807f3e9       0x1e objs/fixed_classes.thumb.o
 .comment       0x000000000807f3e9       0x1e objs/grass_and_dirt_block_stuff_classes.thumb.o
 .comment       0x000000000807f3e9       0x1e objs/interrupt_stuff.arm.o
 .comment       0x000000000807f3e9       0x1e objs/interrupt_stuff.thumb.o
 .comment       0x000000000807f3e9       0x1e objs/level_class.thumb.o
 .comment       0x000000000807f3e9       0x1e objs/log_block_stuff_class.thumb.o
 .comment       0x000000000807f3e9       0x1e objs/main.thumb.o
 .comment       0x000000000807f3e9       0x1e objs/muffin_sprite_stuff_classes.thumb.o
 .comment       0x000000000807f3e9       0x1e objs/oam_entry_classes.thumb.o
 .comment       0x000000000807f3e9       0x1e objs/player_sprite_stuff_class.thumb.o
 .comment       0x000000000807f3e9       0x1e objs/sprite_base_stuff_class.arm.o
 .comment       0x000000000807f3e9       0x1e objs/sprite_base_stuff_class.thumb.o
 .comment       0x000000000807f3e9       0x1e objs/sprite_class.thumb.o
 .comment       0x000000000807f3e9       0x1e objs/sprite_gfx_stuff.thumb.o
 .comment       0x000000000807f3e9       0x1e objs/sprite_manager_class.arm.o
 .comment       0x000000000807f3e9       0x1e objs/sprite_manager_class.thumb.o
 .comment       0x000000000807f3e9       0x1e objs/sprite_type_stuff.thumb.o
 .comment       0x000000000807f3e9       0x1e objs/sublevel_class.thumb.o
 .comment       0x000000000807f3e9       0x1e objs/test_level.thumb.o
 .comment       0x000000000807f3e9       0x1e objs/waffle_sprite_stuff_class.arm.o
 .comment       0x000000000807f3e9       0x1e objs/waffle_sprite_stuff_class.thumb.o
 .comment       0x000000000807f3e9       0x1e objs/warp_block_sprite_stuff_class.thumb.o
 .comment       0x000000000807f3e9       0x1e objs/wood_block_stuff_classes.thumb.o

.debug_frame    0x000000000807f3cc     0x27d0
 *(.debug_frame)
 .debug_frame   0x000000000807f3cc      0x2b8 /usr/lib/gcc/arm-none-eabi/5.2.0/thumb/libgcc.a(unwind-arm.o)
 .debug_frame   0x000000000807f684       0xf8 /usr/lib/gcc/arm-none-eabi/5.2.0/thumb/libgcc.a(pr-support.o)
 .debug_frame   0x000000000807f77c       0x28 /usr/lib/gcc/arm-none-eabi/5.2.0/../../../../arm-none-eabi/lib/thumb/libc.a(lib_a-abort.o)
 .debug_frame   0x000000000807f7a4       0x28 /usr/lib/gcc/arm-none-eabi/5.2.0/../../../../arm-none-eabi/lib/thumb/libc.a(lib_a-aeabi_atexit.o)
 .debug_frame   0x000000000807f7cc       0x28 /usr/lib/gcc/arm-none-eabi/5.2.0/../../../../arm-none-eabi/lib/thumb/libc.a(lib_a-atexit.o)
 .debug_frame   0x000000000807f7f4       0x28 /usr/lib/gcc/arm-none-eabi/5.2.0/../../../../arm-none-eabi/lib/thumb/libc.a(lib_a-cxa_atexit.o)
 .debug_frame   0x000000000807f81c       0x28 /usr/lib/gcc/arm-none-eabi/5.2.0/../../../../arm-none-eabi/lib/thumb/libc.a(lib_a-exit.o)
 .debug_frame   0x000000000807f844       0x2c /usr/lib/gcc/arm-none-eabi/5.2.0/../../../../arm-none-eabi/lib/thumb/libc.a(lib_a-fini.o)
 .debug_frame   0x000000000807f870       0x2c /usr/lib/gcc/arm-none-eabi/5.2.0/../../../../arm-none-eabi/lib/thumb/libc.a(lib_a-init.o)
 .debug_frame   0x000000000807f89c       0x2c /usr/lib/gcc/arm-none-eabi/5.2.0/../../../../arm-none-eabi/lib/thumb/libc.a(lib_a-memcpy.o)
 .debug_frame   0x000000000807f8c8       0x2c /usr/lib/gcc/arm-none-eabi/5.2.0/../../../../arm-none-eabi/lib/thumb/libc.a(lib_a-memset.o)
 .debug_frame   0x000000000807f8f4       0xe4 /usr/lib/gcc/arm-none-eabi/5.2.0/../../../../arm-none-eabi/lib/thumb/libc.a(lib_a-signal.o)
 .debug_frame   0x000000000807f9d8       0x44 /usr/lib/gcc/arm-none-eabi/5.2.0/../../../../arm-none-eabi/lib/thumb/libc.a(lib_a-signalr.o)
 .debug_frame   0x000000000807fa1c       0x3c /usr/lib/gcc/arm-none-eabi/5.2.0/../../../../arm-none-eabi/lib/thumb/libc.a(lib_a-__atexit.o)
 .debug_frame   0x000000000807fa58       0x54 /usr/lib/gcc/arm-none-eabi/5.2.0/../../../../arm-none-eabi/lib/thumb/libc.a(lib_a-__call_atexit.o)
 .debug_frame   0x000000000807faac       0x3c /usr/lib/gcc/arm-none-eabi/5.2.0/../../../../arm-none-eabi/lib/thumb/libc.a(lib_a-mallocr.o)
 .debug_frame   0x000000000807fae8       0x30 /usr/lib/gcc/arm-none-eabi/5.2.0/../../../../arm-none-eabi/lib/thumb/libc.a(lib_a-mlock.o)
 .debug_frame   0x000000000807fb18       0x48 /usr/lib/gcc/arm-none-eabi/5.2.0/../../../../arm-none-eabi/lib/thumb/libc.a(lib_a-reent.o)
 .debug_frame   0x000000000807fb60       0x2c /usr/lib/gcc/arm-none-eabi/5.2.0/../../../../arm-none-eabi/lib/thumb/libc.a(lib_a-sbrkr.o)
 .debug_frame   0x000000000807fb8c       0x54 /usr/lib/gcc/arm-none-eabi/5.2.0/../../../../arm-none-eabi/lib/thumb/libc.a(lib_a-freer.o)
 .debug_frame   0x000000000807fbe0       0x28 /usr/lib/gcc/arm-none-eabi/5.2.0/../../../../arm-none-eabi/lib/thumb/libstdc++.a(new_op.o)
 .debug_frame   0x000000000807fc08       0x60 /usr/lib/gcc/arm-none-eabi/5.2.0/../../../../arm-none-eabi/lib/thumb/libstdc++.a(eh_throw.o)
 .debug_frame   0x000000000807fc68       0x50 /usr/lib/gcc/arm-none-eabi/5.2.0/../../../../arm-none-eabi/lib/thumb/libstdc++.a(bad_alloc.o)
 .debug_frame   0x000000000807fcb8       0xa4 /usr/lib/gcc/arm-none-eabi/5.2.0/../../../../arm-none-eabi/lib/thumb/libstdc++.a(si_class_type_info.o)
 .debug_frame   0x000000000807fd5c       0x30 /usr/lib/gcc/arm-none-eabi/5.2.0/../../../../arm-none-eabi/lib/thumb/libstdc++.a(eh_globals.o)
 .debug_frame   0x000000000807fd8c       0x28 /usr/lib/gcc/arm-none-eabi/5.2.0/../../../../arm-none-eabi/lib/thumb/libstdc++.a(del_op.o)
 .debug_frame   0x000000000807fdb4       0x30 /usr/lib/gcc/arm-none-eabi/5.2.0/../../../../arm-none-eabi/lib/thumb/libstdc++.a(new_handler.o)
 .debug_frame   0x000000000807fde4       0xd0 /usr/lib/gcc/arm-none-eabi/5.2.0/../../../../arm-none-eabi/lib/thumb/libstdc++.a(class_type_info.o)
 .debug_frame   0x000000000807feb4       0x84 /usr/lib/gcc/arm-none-eabi/5.2.0/../../../../arm-none-eabi/lib/thumb/libstdc++.a(eh_catch.o)
 .debug_frame   0x000000000807ff38       0x58 /usr/lib/gcc/arm-none-eabi/5.2.0/../../../../arm-none-eabi/lib/thumb/libstdc++.a(eh_call.o)
 .debug_frame   0x000000000807ff90       0xb4 /usr/lib/gcc/arm-none-eabi/5.2.0/../../../../arm-none-eabi/lib/thumb/libstdc++.a(eh_terminate.o)
 .debug_frame   0x0000000008080044      0x104 /usr/lib/gcc/arm-none-eabi/5.2.0/../../../../arm-none-eabi/lib/thumb/libstdc++.a(eh_personality.o)
 .debug_frame   0x0000000008080148       0xd0 /usr/lib/gcc/arm-none-eabi/5.2.0/../../../../arm-none-eabi/lib/thumb/libstdc++.a(eh_exception.o)
 .debug_frame   0x0000000008080218       0xc8 /usr/lib/gcc/arm-none-eabi/5.2.0/../../../../arm-none-eabi/lib/thumb/libstdc++.a(eh_alloc.o)
 .debug_frame   0x00000000080802e0       0x88 /usr/lib/gcc/arm-none-eabi/5.2.0/../../../../arm-none-eabi/lib/thumb/libstdc++.a(tinfo.o)
 .debug_frame   0x0000000008080368       0x78 /usr/lib/gcc/arm-none-eabi/5.2.0/../../../../arm-none-eabi/lib/thumb/libstdc++.a(eh_arm.o)
 .debug_frame   0x00000000080803e0       0x40 /usr/lib/gcc/arm-none-eabi/5.2.0/../../../../arm-none-eabi/lib/thumb/libstdc++.a(pure.o)
 .debug_frame   0x0000000008080420       0x30 /usr/lib/gcc/arm-none-eabi/5.2.0/../../../../arm-none-eabi/lib/thumb/libstdc++.a(vterminate.o)
 .debug_frame   0x0000000008080450      0x5d0 /usr/lib/gcc/arm-none-eabi/5.2.0/../../../../arm-none-eabi/lib/thumb/libstdc++.a(cp-demangle.o)
 .debug_frame   0x0000000008080a20       0x28 /usr/lib/gcc/arm-none-eabi/5.2.0/../../../../arm-none-eabi/lib/thumb/libstdc++.a(eh_type.o)
 .debug_frame   0x0000000008080a48       0x58 /usr/lib/gcc/arm-none-eabi/5.2.0/../../../../arm-none-eabi/lib/libc.a(lib_a-fputc.o)
 .debug_frame   0x0000000008080aa0       0x48 /usr/lib/gcc/arm-none-eabi/5.2.0/../../../../arm-none-eabi/lib/libc.a(lib_a-fputs.o)
 .debug_frame   0x0000000008080ae8       0x80 /usr/lib/gcc/arm-none-eabi/5.2.0/../../../../arm-none-eabi/lib/libc.a(lib_a-fvwrite.o)
 .debug_frame   0x0000000008080b68       0x48 /usr/lib/gcc/arm-none-eabi/5.2.0/../../../../arm-none-eabi/lib/libc.a(lib_a-malloc.o)
 .debug_frame   0x0000000008080bb0       0x34 /usr/lib/gcc/arm-none-eabi/5.2.0/../../../../arm-none-eabi/lib/libc.a(lib_a-memchr.o)
 .debug_frame   0x0000000008080be4       0x38 /usr/lib/gcc/arm-none-eabi/5.2.0/../../../../arm-none-eabi/lib/libc.a(lib_a-memcmp.o)
 .debug_frame   0x0000000008080c1c       0x40 /usr/lib/gcc/arm-none-eabi/5.2.0/../../../../arm-none-eabi/lib/libc.a(lib_a-memmove.o)
 .debug_frame   0x0000000008080c5c       0x60 /usr/lib/gcc/arm-none-eabi/5.2.0/../../../../arm-none-eabi/lib/libc.a(lib_a-putc.o)
 .debug_frame   0x0000000008080cbc       0x2c /usr/lib/gcc/arm-none-eabi/5.2.0/../../../../arm-none-eabi/lib/libc.a(lib_a-realloc.o)
 .debug_frame   0x0000000008080ce8       0x70 /usr/lib/gcc/arm-none-eabi/5.2.0/../../../../arm-none-eabi/lib/libc.a(lib_a-reallocr.o)
 .debug_frame   0x0000000008080d58       0x7c /usr/lib/gcc/arm-none-eabi/5.2.0/../../../../arm-none-eabi/lib/libc.a(lib_a-sprintf.o)
 .debug_frame   0x0000000008080dd4       0x20 /usr/lib/gcc/arm-none-eabi/5.2.0/../../../../arm-none-eabi/lib/libc.a(lib_a-strcpy.o)
 .debug_frame   0x0000000008080df4       0x20 /usr/lib/gcc/arm-none-eabi/5.2.0/../../../../arm-none-eabi/lib/libc.a(lib_a-strlen.o)
 .debug_frame   0x0000000008080e14       0x48 /usr/lib/gcc/arm-none-eabi/5.2.0/../../../../arm-none-eabi/lib/libc.a(lib_a-strncmp.o)
 .debug_frame   0x0000000008080e5c       0x50 /usr/lib/gcc/arm-none-eabi/5.2.0/../../../../arm-none-eabi/lib/libc.a(lib_a-svfprintf.o)
 .debug_frame   0x0000000008080eac       0x2c /usr/lib/gcc/arm-none-eabi/5.2.0/../../../../arm-none-eabi/lib/libc.a(lib_a-syswrite.o)
 .debug_frame   0x0000000008080ed8       0x4c /usr/lib/gcc/arm-none-eabi/5.2.0/../../../../arm-none-eabi/lib/libc.a(lib_a-wbuf.o)
 .debug_frame   0x0000000008080f24       0x34 /usr/lib/gcc/arm-none-eabi/5.2.0/../../../../arm-none-eabi/lib/libc.a(lib_a-writer.o)
 .debug_frame   0x0000000008080f58       0x40 /usr/lib/gcc/arm-none-eabi/5.2.0/../../../../arm-none-eabi/lib/libc.a(lib_a-wsetup.o)
 .debug_frame   0x0000000008080f98       0xac /usr/lib/gcc/arm-none-eabi/5.2.0/../../../../arm-none-eabi/lib/libc.a(lib_a-dtoa.o)
 .debug_frame   0x0000000008081044       0xa0 /usr/lib/gcc/arm-none-eabi/5.2.0/../../../../arm-none-eabi/lib/libc.a(lib_a-fflush.o)
 .debug_frame   0x00000000080810e4      0x174 /usr/lib/gcc/arm-none-eabi/5.2.0/../../../../arm-none-eabi/lib/libc.a(lib_a-findfp.o)
 .debug_frame   0x0000000008081258       0x80 /usr/lib/gcc/arm-none-eabi/5.2.0/../../../../arm-none-eabi/lib/libc.a(lib_a-fwalk.o)
 .debug_frame   0x00000000080812d8       0xa4 /usr/lib/gcc/arm-none-eabi/5.2.0/../../../../arm-none-eabi/lib/libc.a(lib_a-locale.o)
 .debug_frame   0x000000000808137c       0x58 /usr/lib/gcc/arm-none-eabi/5.2.0/../../../../arm-none-eabi/lib/libc.a(lib_a-makebuf.o)
 .debug_frame   0x00000000080813d4      0x2ec /usr/lib/gcc/arm-none-eabi/5.2.0/../../../../arm-none-eabi/lib/libc.a(lib_a-mprec.o)
 .debug_frame   0x00000000080816c0       0x20 /usr/lib/gcc/arm-none-eabi/5.2.0/../../../../arm-none-eabi/lib/libc.a(lib_a-s_fpclassify.o)
 .debug_frame   0x00000000080816e0       0x9c /usr/lib/gcc/arm-none-eabi/5.2.0/../../../../arm-none-eabi/lib/libc.a(lib_a-stdio.o)
 .debug_frame   0x000000000808177c       0x9c /usr/lib/gcc/arm-none-eabi/5.2.0/../../../../arm-none-eabi/lib/libc.a(lib_a-svfiprintf.o)
 .debug_frame   0x0000000008081818       0x34 /usr/lib/gcc/arm-none-eabi/5.2.0/../../../../arm-none-eabi/lib/libc.a(lib_a-callocr.o)
 .debug_frame   0x000000000808184c       0x34 /usr/lib/gcc/arm-none-eabi/5.2.0/../../../../arm-none-eabi/lib/libc.a(lib_a-closer.o)
 .debug_frame   0x0000000008081880       0x58 /usr/lib/gcc/arm-none-eabi/5.2.0/../../../../arm-none-eabi/lib/libc.a(lib_a-fclose.o)
 .debug_frame   0x00000000080818d8       0x34 /usr/lib/gcc/arm-none-eabi/5.2.0/../../../../arm-none-eabi/lib/libc.a(lib_a-fstatr.o)
 .debug_frame   0x000000000808190c       0x34 /usr/lib/gcc/arm-none-eabi/5.2.0/../../../../arm-none-eabi/lib/libc.a(lib_a-isattyr.o)
 .debug_frame   0x0000000008081940       0x34 /usr/lib/gcc/arm-none-eabi/5.2.0/../../../../arm-none-eabi/lib/libc.a(lib_a-lseekr.o)
 .debug_frame   0x0000000008081974       0x34 /usr/lib/gcc/arm-none-eabi/5.2.0/../../../../arm-none-eabi/lib/libc.a(lib_a-readr.o)
 .debug_frame   0x00000000080819a8       0x20 /usr/lib/gcc/arm-none-eabi/5.2.0/libgcc.a(_udivsi3.o)
 .debug_frame   0x00000000080819c8       0x20 /usr/lib/gcc/arm-none-eabi/5.2.0/libgcc.a(_divsi3.o)
 .debug_frame   0x00000000080819e8       0x2c /usr/lib/gcc/arm-none-eabi/5.2.0/libgcc.a(_aeabi_uldivmod.o)
 .debug_frame   0x0000000008081a14       0x48 /usr/lib/gcc/arm-none-eabi/5.2.0/libgcc.a(_udivmoddi4.o)
 .debug_frame   0x0000000008081a5c       0x20 /usr/lib/gcc/arm-none-eabi/5.2.0/../../../../arm-none-eabi/lib/libnosys.a(close.o)
 .debug_frame   0x0000000008081a7c       0x20 /usr/lib/gcc/arm-none-eabi/5.2.0/../../../../arm-none-eabi/lib/libnosys.a(fstat.o)
 .debug_frame   0x0000000008081a9c       0x20 /usr/lib/gcc/arm-none-eabi/5.2.0/../../../../arm-none-eabi/lib/libnosys.a(getpid.o)
 .debug_frame   0x0000000008081abc       0x20 /usr/lib/gcc/arm-none-eabi/5.2.0/../../../../arm-none-eabi/lib/libnosys.a(isatty.o)
 .debug_frame   0x0000000008081adc       0x20 /usr/lib/gcc/arm-none-eabi/5.2.0/../../../../arm-none-eabi/lib/libnosys.a(kill.o)
 .debug_frame   0x0000000008081afc       0x20 /usr/lib/gcc/arm-none-eabi/5.2.0/../../../../arm-none-eabi/lib/libnosys.a(lseek.o)
 .debug_frame   0x0000000008081b1c       0x20 /usr/lib/gcc/arm-none-eabi/5.2.0/../../../../arm-none-eabi/lib/libnosys.a(read.o)
 .debug_frame   0x0000000008081b3c       0x20 /usr/lib/gcc/arm-none-eabi/5.2.0/../../../../arm-none-eabi/lib/libnosys.a(sbrk.o)
 .debug_frame   0x0000000008081b5c       0x20 /usr/lib/gcc/arm-none-eabi/5.2.0/../../../../arm-none-eabi/lib/libnosys.a(write.o)
 .debug_frame   0x0000000008081b7c       0x20 /usr/lib/gcc/arm-none-eabi/5.2.0/../../../../arm-none-eabi/lib/libnosys.a(_exit.o)
OUTPUT(sherwin_adventure.elf elf32-littlearm)
