08000000 t $a
08000250 t $a
0807884c t $a
08078864 t $a
08000258 t $a
08000288 t $a
080002c0 t $a
08000304 t $a
08000360 t $a
03000198 t $a
03000268 t $a
030002d8 t $a
03000370 t $a
030004cc t $a
03000584 t $a
030008c8 t $a
0300158c t $a
03001620 t $a
030016a8 t $a
030019cc t $a
030019e4 t $a
03001aa8 t $a
03001bc8 t $a
03001c8c t $a
03001dac t $a
03001ecc t $a
03001fec t $a
0300210c t $a
0300222c t $a
03002960 t $a
030032b0 t $a
030035e0 t $a
0300381c t $a
03003880 t $a
03003944 t $a
080025c4 t $a
080026e8 t $a
08002818 t $a
08002c34 t $a
08002cc0 t $a
08003250 t $a
08003294 t $a
080036a0 t $a
08003850 t $a
08003d34 t $a
08003d44 t $a
08003e9c t $a
08003f58 t $a
08004014 t $a
08004020 t $a
0800402c t $a
08004048 t $a
08004058 t $a
0800407c t $a
080040a8 t $a
08004114 t $a
080041f4 t $a
0800423c t $a
08004240 t $a
08004244 t $a
08004250 t $a
0800425c t $a
08004274 t $a
0800428c t $a
08004290 t $a
080042a8 t $a
080042ac t $a
080042c4 t $a
080042f8 t $a
0800430c t $a
0800431c t $a
08004330 t $a
08004348 t $a
08004358 t $a
08004370 t $a
08004380 t $a
08004384 t $a
0800438c t $a
08004394 t $a
0800439c t $a
080043b4 t $a
08004400 t $a
08004404 t $a
08004474 t $a
080044a0 t $a
080045d8 t $a
0800464c t $a
08004664 t $a
08004674 t $a
080046b8 t $a
08004714 t $a
08004868 t $a
080048f4 t $a
080049d4 t $a
08004e7c t $a
08005000 t $a
08005064 t $a
08005078 t $a
0800509c t $a
080050c8 t $a
080050f8 t $a
08005144 t $a
080051c0 t $a
080051cc t $a
080051f0 t $a
0800521c t $a
08005258 t $a
080052f4 t $a
080053a4 t $a
08005554 t $a
0800555c t $a
08005640 t $a
08005724 t $a
08005740 t $a
08005880 t $a
08005d5c t $a
08005eb0 t $a
0800626c t $a
080064e0 t $a
08006740 t $a
080068a4 t $a
0800794c t $a
08008698 t $a
08008db8 t $a
08008e88 t $a
080094c0 t $a
0800985c t $a
08009ae4 t $a
08009dd0 t $a
0800a370 t $a
0800a64c t $a
0800a7a0 t $a
0800b26c t $a
0800b47c t $a
0800b684 t $a
0800b6a4 t $a
0800b8d0 t $a
0800b960 t $a
0800b9d0 t $a
0800bc38 t $a
0800c750 t $a
0800c770 t $a
0800cb38 t $a
0800ce5c t $a
0800d12c t $a
0800d8ec t $a
0800dbb0 t $a
0800dd70 t $a
0800de60 t $a
0800df58 t $a
0800e100 t $a
0800e304 t $a
0800e3b4 t $a
0800e584 t $a
0800e874 t $a
0800e8c8 t $a
0800f2ac t $a
0800f850 t $a
08010008 t $a
08010200 t $a
080102c0 t $a
080104ec t $a
08010684 t $a
08010c00 t $a
08010e24 t $a
08010fe4 t $a
08011078 t $a
080110d0 t $a
08011590 t $a
080117a4 t $a
080118c8 t $a
080119c0 t $a
08011ff8 t $a
08012080 t $a
0801241c t $a
0801284c t $a
080129a4 t $a
080129d4 t $a
080129f0 t $a
08012a0c t $a
08012a3c t $a
08012ac4 t $a
08012b28 t $a
08012ba8 t $a
080147e8 t $a
080147fc t $a
0801481c t $a
08014840 t $a
08014874 t $a
080148bc t $a
08014968 t $a
08014a04 t $a
08014af4 t $a
08014b14 t $a
08015000 t $a
08015128 t $a
08015164 t $a
080151e4 t $a
08015200 t $a
0801521c t $a
0801595c t $a
08015a74 t $a
08015b24 t $a
08015c14 t $a
08015d40 t $a
08015e34 t $a
08015e38 t $a
08015e3c t $a
08015f3c t $a
08016040 t $a
08016064 t $a
08016540 t $a
080165a0 t $a
08016600 t $a
08016698 t $a
0801672c t $a
08016744 t $a
08016764 t $a
08016774 t $a
0801678c t $a
080167f4 t $a
0801685c t $a
08016a80 t $a
08016ae0 t $a
08016bf8 t $a
08016d14 t $a
08016e4c t $a
08016f80 t $a
0801704c t $a
08017358 t $a
08017458 t $a
08017770 t $a
08018500 t $a
0801a4f0 t $a
0801b8a8 t $a
0801b8d4 t $a
0801b9fc t $a
0801ba1c t $a
0801bab4 t $a
0801bb54 t $a
0801bb78 t $a
0801bbb8 t $a
0801bccc t $a
0801bd1c t $a
0801bd44 t $a
0801bdd0 t $a
0801bea4 t $a
0801bf84 t $a
0801c0d8 t $a
0801c1b8 t $a
0801c324 t $a
0801c500 t $a
0801c7d8 t $a
0801caa0 t $a
0801dba0 t $a
0801dde0 t $a
0801de78 t $a
0801deb4 t $a
0801decc t $a
0801dee8 t $a
0801df04 t $a
0801e064 t $a
0801e0b4 t $a
0801e1a0 t $a
0801e1c4 t $a
0801e1d4 t $a
0801e1d8 t $a
0801e1dc t $a
0801e1e0 t $a
0801e1e4 t $a
0801e200 t $a
0801e21c t $a
0801e31c t $a
0801e5d8 t $a
0801e65c t $a
0801e6e8 t $a
0801e77c t $a
0801e94c t $a
0801f028 t $a
0801f0b8 t $a
0801f3c0 t $a
0801f3cc t $a
0801f3dc t $a
0801f3e8 t $a
0801f3f8 t $a
0801f404 t $a
0801f424 t $a
0801f43c t $a
0801f5a4 t $a
0801f8a8 t $a
0801f8fc t $a
0801f948 t $a
0801fa24 t $a
0801fb74 t $a
0801fc30 t $a
0801fd30 t $a
0801fdc0 t $a
0801fddc t $a
0801feb8 t $a
0801ffa0 t $a
0801fffc t $a
08020090 t $a
080200b4 t $a
080202a4 t $a
080203a8 t $a
080204a0 t $a
08020504 t $a
08020658 t $a
080206bc t $a
080207b8 t $a
080208c4 t $a
0802095c t $a
080209b0 t $a
08020a20 t $a
08020aa0 t $a
08020b0c t $a
08020bb4 t $a
08020be8 t $a
08020bf0 t $a
08020c48 t $a
08020c78 t $a
08020c8c t $a
08020cf8 t $a
08020d7c t $a
08020edc t $a
08020fcc t $a
08021014 t $a
080210a8 t $a
0802118c t $a
08021368 t $a
08021390 t $a
080214ac t $a
080215e4 t $a
08021718 t $a
080217e4 t $a
08021af0 t $a
08021bf0 t $a
08021da0 t $a
080220a4 t $a
08022e40 t $a
08024c34 t $a
08024dc8 t $a
08024e0c t $a
08024ea8 t $a
08024ec0 t $a
08024fdc t $a
08024ff4 t $a
080250c4 t $a
080250e0 t $a
080250e4 t $a
080250e8 t $a
080251fc t $a
08025344 t $a
08025384 t $a
080257a0 t $a
08025c3c t $a
08025d80 t $a
08025ddc t $a
08025e18 t $a
08025e9c t $a
08026014 t $a
08026134 t $a
0802615c t $a
080261a4 t $a
0802622c t $a
0802629c t $a
080262ac t $a
080262b4 t $a
080262c4 t $a
0802633c t $a
080263b4 t $a
08026424 t $a
0802649c t $a
080264bc t $a
080264c4 t $a
080264dc t $a
080264f4 t $a
08026514 t $a
0802652c t $a
08026544 t $a
0802655c t $a
08026574 t $a
08026594 t $a
080265ac t $a
080265c4 t $a
08026610 t $a
08026640 t $a
080266b0 t $a
080266cc t $a
08026760 t $a
08026840 t $a
08026864 t $a
0802687c t $a
08026934 t $a
08026964 t $a
08026a00 t $a
08026a28 t $a
08078858 t $a
08078870 t $a
08078884 t $a
0807888c t $a
08078894 t $a
0807889c t $a
080788ac t $a
080788b8 t $a
080788c4 t $a
080788d4 t $a
080788e0 t $a
080788ec t $a
080788f8 t $a
08078904 t $a
08078910 t $a
0807891c t $a
0807892c t $a
08078938 t $a
08078948 t $a
08078950 t $a
08078960 t $a
08078968 t $a
08078978 t $a
08078984 t $a
03003f9c t $a
03003fa4 t $a
03003fac t $a
03003fbc t $a
03003fc0 t $a
03003fcc t $a
03003fdc t $a
03003fe4 t $a
03003fe8 t $a
03003ff8 t $a
03004000 t $a
03004008 t $a
03004018 t $a
03004028 t $a
03004030 t $a
03004040 t $a
03004050 t $a
0300405c t $a
080147e8 T abort
0807865c T __action_table
08026964 T AddDevice
08025390 T __adddf3
0800402c T __aeabi_atexit
0807895d t ____aeabi_atexit_from_thumb
08025cf0 T __aeabi_cdcmpeq
08025cf0 T __aeabi_cdcmple
08025cd4 T __aeabi_cdrcmple
08025d80 T __aeabi_d2iz
08025390 T __aeabi_dadd
08025d08 T __aeabi_dcmpeq
08025d50 T __aeabi_dcmpge
08025d68 T __aeabi_dcmpgt
08025d38 T __aeabi_dcmple
08025d20 T __aeabi_dcmplt
08025a30 T __aeabi_ddiv
080257a0 T __aeabi_dmul
08025384 T __aeabi_drsub
0802538c T __aeabi_dsub
080256ec T __aeabi_f2d
080256c4 T __aeabi_i2d
080251fc T __aeabi_idiv
08025344 W __aeabi_idiv0
08025324 T __aeabi_idivmod
08025740 T __aeabi_l2d
08025344 W __aeabi_ldiv0
080256a0 T __aeabi_ui2d
080250e8 T __aeabi_uidiv
080251dc T __aeabi_uidivmod
0802572c T __aeabi_ul2d
08025ddc T __aeabi_uldivmod
08003250 T __aeabi_unwind_cpp_pr0
08003258 W __aeabi_unwind_cpp_pr1
08003260 W __aeabi_unwind_cpp_pr2
08026640 T __alloc_handle
08020a20 T __any_on
0801f8fc T __ascii_mbtowc
0801bd1c T __ascii_wctomb
08000c9d T asm_main
080147fc T atexit
080206bc T __b2d
0801fd30 T _Balloc
0801fdc0 T _Bfree
0201e428 D bg_fade_blue_step_amount_arr
0201fc28 D bg_fade_curr_blue_arr
02020028 D bg_fade_curr_green_arr
02020428 D bg_fade_curr_red_arr
0201e828 D bg_fade_green_step_amount_arr
0201ec28 D bg_fade_red_step_amount_arr
0300009c D bgofs_mirror
0807854c t blanks.7015
080781cc t blanks.7036
03000008 D block_stuff_array
08000250 t _blx_r3_stub
020253e8 B __bss_end__
020224b8 B __bss_start__
0801c1b8 T __call_exitprocs
08024e0c T _calloc_r
08025375 T _call_via_fp
08025379 T _call_via_ip
08025381 T _call_via_lr
08025349 T _call_via_r0
0802534d T _call_via_r1
08025351 T _call_via_r2
08025355 T _call_via_r3
08025359 T _call_via_r4
0802535d T _call_via_r5
08025361 T _call_via_r6
08025365 T _call_via_r7
08025369 T _call_via_r8
0802536d T _call_via_r9
08025371 T _call_via_sl
0802537d T _call_via_sp
0807830c t categories
0807855c T __chclass
0801e1a0 T _cleanup
0801deb4 T _cleanup_r
080261a4 T _close_r
08026134 T __clzdi2
0802615c T __clzsi2
08025c4c T __cmpdf2
020224b8 b completed.8113
080209b0 T __copybits
080772d4 t cplus_demangle_builtin_types
08077568 t cplus_demangle_operators
080786d8 T _ctype_
020213f0 D __ctype_ptr__
0202273c B curr_debug_f24p8_index
02022900 B curr_debug_f8p8_index
02022734 B curr_debug_s32_index
03000098 D curr_debug_st_result_index
02022738 B curr_debug_u32_index
020212c8 d current_categories
0801f028 t currentlocale
020251d0 b current_locale_string
08012b28 T __cxa_allocate_dependent_exception
08012a3c T __cxa_allocate_exception
0801481c T __cxa_atexit
0800555c T __cxa_begin_catch
08003e9c T __cxa_begin_cleanup
08004474 T __cxa_call_terminate
080044a0 T __cxa_call_unexpected
08012a0c T __cxa_current_exception_type
080129f0 T __cxa_deleted_virtual
0801284c T __cxa_demangle
08005640 T __cxa_end_catch
08003d34 T __cxa_end_cleanup
08078881 t ____cxa_end_cleanup_from_thumb
08012ba8 T __cxa_free_dependent_exception
08012ac4 T __cxa_free_exception
08005554 T __cxa_get_exception_ptr
08004020 T __cxa_get_globals
08004014 T __cxa_get_globals_fast
080129d4 T __cxa_pure_virtual
080052f4 T __cxa_rethrow
08005258 T __cxa_throw
08003d44 T __cxa_type_match
080001f0 t $d
08027100 t $d
0800027c t $d
080002b4 t $d
0200001c d $d
080002f8 t $d
02022460 t $d
0800034c t $d
02000000 t $d
020224b8 b $d
08000448 t $d
08078d44 r $d
0000000c N $d
08078d44 r $d
08000520 t $d
08078d44 r $d
08000530 t $d
08078d44 r $d
080005e4 t $d
08078d44 r $d
08000694 t $d
08078d44 r $d
08000474 t $d
08078d44 r $d
08000774 t $d
080789b8 r $d
08078d44 r $d
080004c4 t $d
02000004 t $d
08026a38 t $d
08026a40 t $d
08026a80 t $d
08026a88 t $d
08026a9c t $d
08026aa8 t $d
08026ac0 t $d
08026ad0 t $d
08026ae0 t $d
03000000 d $d
020224d4 b $d
02000020 d $d
080a0874 N $d
03000260 t $d
08078bcc r $d
030002c4 t $d
0300036c t $d
030004b0 t $d
030004f8 t $d
080789d0 r $d
080a0958 N $d
02022504 b $d
08078bec r $d
08026af0 t $d
080a0a08 N $d
08078bf4 r $d
08026b30 t $d
080a0a58 N $d
08078d54 r $d
08078d54 r $d
08078d54 r $d
08078d54 r $d
08078d54 r $d
08078d54 r $d
08078d54 r $d
08078d54 r $d
08078d54 r $d
08078d54 r $d
08078d54 r $d
08078d54 r $d
08078d54 r $d
08078d54 r $d
08078d54 r $d
08078d54 r $d
08078d54 r $d
08078d54 r $d
08078d54 r $d
08078d54 r $d
08078d54 r $d
08078d54 r $d
08078d54 r $d
08078d54 r $d
08078d54 r $d
08078d54 r $d
08078d54 r $d
08078d54 r $d
08078d54 r $d
08078d54 r $d
08078d54 r $d
08078d54 r $d
08078d54 r $d
08078d54 r $d
08078d54 r $d
08078d54 r $d
08078d54 r $d
08078d54 r $d
08078d54 r $d
08078d54 r $d
08078d54 r $d
08078d54 r $d
08078d54 r $d
08078d54 r $d
08078d54 r $d
08078d54 r $d
08078d54 r $d
08078d54 r $d
08078d54 r $d
08078d54 r $d
08078d54 r $d
08078d54 r $d
08078d54 r $d
08078d54 r $d
0300057c t $d
080789dc r $d
08078bf4 r $d
08000944 t $d
08078d4c r $d
02000008 t $d
08026b70 t $d
08026b7c t $d
08026b98 t $d
08026ba4 t $d
08026bc4 t $d
08026bd0 t $d
08026bf0 t $d
08026bfc t $d
08026c1c t $d
08026c28 t $d
08026c48 t $d
08026c54 t $d
08026c78 t $d
08026c84 t $d
08026ca4 t $d
08026cb0 t $d
08026cd0 t $d
08026cdc t $d
08026d00 t $d
08026d0c t $d
08026d2c t $d
08026d38 t $d
08026d5c t $d
08026d68 t $d
08026d8c t $d
08026d98 t $d
08026dc0 t $d
08026dcc t $d
08026df4 t $d
08026e00 t $d
08026e28 t $d
08026e34 t $d
08026e5c t $d
08026e68 t $d
08026e8c t $d
08026e98 t $d
08026ec0 t $d
08026ee0 t $d
08026f00 t $d
08026f20 t $d
08026f40 t $d
08026f60 t $d
08026f80 t $d
08026fa0 t $d
08026fc0 t $d
08026fe0 t $d
08027000 t $d
08027020 t $d
08027040 t $d
08027060 t $d
08027080 t $d
080270a0 t $d
080270c0 t $d
080270e0 t $d
03000008 d $d
080a0ab8 N $d
08000c10 t $d
08078d54 r $d
03000094 d $d
080a0e68 N $d
08078bfc r $d
080a0e88 N $d
08078c04 r $d
08078d54 r $d
080a0ec4 N $d
03000744 t $d
08078c04 r $d
030007e0 t $d
03000874 t $d
080a0f3c N $d
030008b8 t $d
080789e8 r $d
08078c04 r $d
03000098 d $d
02022734 b $d
080a0f8c N $d
08078c0c r $d
030008f8 t $d
08000cd8 t $d
08078d54 r $d
08000d20 t $d
08000d64 t $d
080674f8 t $d
02022904 b $d
080a0fb4 N $d
08067508 t $d
08078c14 r $d
08067518 t $d
080a1008 N $d
08078c1c r $d
0300094c t $d
03000974 t $d
08067558 t $d
080a1058 N $d
08078c1c r $d
030009bc t $d
030009e4 t $d
03000a44 t $d
03000aac t $d
03000b14 t $d
03000b7c t $d
03000be4 t $d
080675a0 t $d
080a10c0 N $d
08078c24 r $d
080789f4 r $d
080a11b4 N $d
0300009c d $d
0201d828 d $d
08067780 t $d
08000d84 t $d
08078a00 r $d
08078d54 r $d
03000d24 t $d
08078c34 r $d
08000e80 t $d
08000fa0 t $d
0300108c t $d
08078a0c r $d
03001420 t $d
0300157c t $d
0e000000 d $d
02022914 b $d
080a11f4 N $d
03001600 t $d
08078a24 r $d
08078c4c r $d
080a12c8 N $d
08078c54 r $d
08001030 t $d
08078d64 r $d
080010f0 t $d
0800113c t $d
02022918 b $d
080a12f4 N $d
08078c5c r $d
08067900 t $d
080a1344 N $d
080011d0 t $d
08078d6c r $d
08067940 t $d
080a1394 N $d
08078c5c r $d
08067958 t $d
080012c4 t $d
08078d74 r $d
0800134c t $d
0800148c t $d
02022950 b $d
080a13c0 N $d
08078d94 r $d
08078d9c r $d
08078d9c r $d
080017c0 t $d
08078d9c r $d
08078d9c r $d
080017cc t $d
08078d9c r $d
080017d8 t $d
08078d9c r $d
08078d7c r $d
080015f0 t $d
03001700 t $d
08078a30 r $d
08078c64 r $d
03001750 t $d
030017c4 t $d
08001660 t $d
080017a0 t $d
030019a4 t $d
080679b8 t $d
030000bc d $d
080a1430 N $d
08067aa0 t $d
0806a758 t $d
03001aa4 t $d
08078c94 r $d
03001bc4 t $d
03001c88 t $d
03001da8 t $d
03001ec8 t $d
03001fe8 t $d
03002108 t $d
03002228 t $d
03002944 t $d
030032a8 t $d
080a15c4 N $d
08001910 t $d
08078dc4 r $d
08078dcc r $d
0800191c t $d
08078dcc r $d
08001928 t $d
08078dcc r $d
08078dcc r $d
08078d9c r $d
08078ccc r $d
03003378 t $d
0806b778 t $d
080a1848 N $d
08001988 t $d
08078dcc r $d
080019e4 t $d
030033fc t $d
08078ce4 r $d
03003498 t $d
030034bc t $d
030034e0 t $d
08078a48 r $d
0806b840 t $d
03003568 t $d
080a19f0 N $d
08001a70 t $d
08078a54 r $d
08078ddc r $d
08001ac8 t $d
08001af0 t $d
030035d4 t $d
08078cfc r $d
02020828 d $d
080a1ad0 N $d
03003814 t $d
08078d04 r $d
03003878 t $d
0300393c t $d
03003b7c t $d
080a1b4c N $d
08001ba4 t $d
08078df4 r $d
08001f50 t $d
080020e4 t $d
08078a6c r $d
080021e4 t $d
08002324 t $d
080023a0 t $d
08002408 t $d
08002434 t $d
0200000c t $d
030000c4 d $d
02022d50 b $d
080a1c1c N $d
08078e24 r $d
08078e24 r $d
08078e24 r $d
08078e24 r $d
08002458 t $d
08078e24 r $d
08078e24 r $d
08078e24 r $d
08078e24 r $d
08078e24 r $d
08002470 t $d
08078e24 r $d
08078e24 r $d
08078e24 r $d
08078e24 r $d
08078e24 r $d
08002488 t $d
08078e24 r $d
08078e24 r $d
08078e24 r $d
08078e24 r $d
08078e24 r $d
080024a0 t $d
08078e24 r $d
08078e24 r $d
08078e24 r $d
08078e24 r $d
08078e24 r $d
080024b8 t $d
08078e24 r $d
08078e24 r $d
080024c4 t $d
08078e24 r $d
080024cc t $d
08078e24 r $d
0806b870 t $d
0806b87c t $d
0806b894 t $d
0806b8a0 t $d
0806b8bc t $d
0806b8c8 t $d
0806b8e4 t $d
0806b8f0 t $d
0806b910 t $d
0806b91c t $d
0806b930 t $d
0806b9c8 t $d
0806ba60 t $d
0806baf8 t $d
0806bb90 t $d
03000158 d $d
080a1d74 N $d
0800256c t $d
08078e24 r $d
02000010 t $d
0806bc28 t $d
02023e30 b $d
080a1f74 N $d
08072194 t $d
080751b4 t $d
080752d4 t $d
08076334 t $d
080765d4 t $d
08078e24 r $d
08078e24 r $d
08078e24 r $d
08078e24 r $d
080025ac t $d
08078e24 r $d
08078aac r $d
08078e24 r $d
03003c0c t $d
08078d24 r $d
08076c30 t $d
080a1fa0 N $d
08078d34 r $d
03003c74 t $d
03003cac t $d
03003cd4 t $d
03003cf8 t $d
03003d1c t $d
03003d40 t $d
03003d64 t $d
03003d88 t $d
03003de8 t $d
03003e50 t $d
03003eb8 t $d
03003f20 t $d
03003f88 t $d
08076cf0 t $d
080a2080 N $d
080026dc t $d
0800280c t $d
08002c20 t $d
08002cac t $d
0800324c t $d
08003280 t $d
08003e94 t $d
08078e34 r $d
08078e3c r $d
08078e44 r $d
0800401c t $d
08078e44 r $d
08004028 t $d
08078e44 r $d
02023f34 b $d
08078e44 r $d
08078e44 r $d
08004078 t $d
08078e44 r $d
080040a4 t $d
08078e4c r $d
08078e4c r $d
08078e54 r $d
08078e5c r $d
08076f20 t $d
08076f50 t $d
08076f5c t $d
08078e64 r $d
08078e6c r $d
0800424c t $d
08078e6c r $d
08004258 t $d
08078e6c r $d
08078e6c r $d
08078e6c r $d
08078e6c r $d
08078e6c r $d
08078e6c r $d
08078e6c r $d
08076f88 t $d
08076fa0 t $d
08076fb8 t $d
08076fd8 t $d
08076fe0 t $d
08076fe8 t $d
0807700c t $d
08077030 t $d
08077038 t $d
08077050 t $d
08077068 t $d
08077078 t $d
0807708c t $d
08078ab8 r $d
08078e6c r $d
08004308 t $d
08078e74 r $d
08078ae4 r $d
08078e7c r $d
0800432c t $d
08078af0 r $d
08078e84 r $d
08004344 t $d
08078e8c r $d
08004354 t $d
08078e94 r $d
0800436c t $d
08078e94 r $d
0800437c t $d
08078e94 r $d
08078e94 r $d
08078e94 r $d
08078e94 r $d
08078e94 r $d
08078e94 r $d
08078e94 r $d
08078e94 r $d
08077098 t $d
080770a0 t $d
080770b0 t $d
08078e94 r $d
08078e94 r $d
080045cc t $d
08078afc r $d
08078e94 r $d
08004640 t $d
08078e9c r $d
08004660 t $d
08078ea4 r $d
08004670 t $d
08078eac r $d
02023f40 b $d
080770d0 t $d
02020a28 d $d
08078eac r $d
080046e0 t $d
08078eac r $d
08078b24 r $d
08078eb4 r $d
08078ebc r $d
08004e68 t $d
08078b30 r $d
08078ec4 r $d
08078ecc r $d
08078ed4 r $d
08005098 t $d
08078edc r $d
080050c4 t $d
08078ee4 r $d
08078ee4 r $d
08078eec r $d
08078ef4 r $d
080770d8 t $d
08077108 t $d
08077114 t $d
080051c8 t $d
08078efc r $d
080051ec t $d
08078f04 r $d
08005218 t $d
08078f04 r $d
08077138 t $d
08077150 t $d
0807715c t $d
0807716c t $d
08078f04 r $d
080052f0 t $d
08078f0c r $d
08078f14 r $d
0800553c t $d
08078b54 r $d
08078f1c r $d
02023f44 b $d
0807717c t $d
08078f24 r $d
08078b88 r $d
08078f2c r $d
08078ba8 r $d
08078f34 r $d
08078f3c r $d
08005754 t $d
08005d58 t $d
08005d84 t $d
08006264 t $d
080063b4 t $d
0800673c t $d
08006774 t $d
0800787c t $d
08008684 t $d
08008da0 t $d
08008ddc t $d
080094a0 t $d
0800984c t $d
08009ae0 t $d
08009dcc t $d
0800a330 t $d
0800a63c t $d
0800a790 t $d
0800b25c t $d
0800b458 t $d
0800b674 t $d
0800b694 t $d
0800b8c0 t $d
0800b950 t $d
0800b9c0 t $d
0800bc28 t $d
0800c740 t $d
0800c760 t $d
0800cb24 t $d
0800ce4c t $d
0800d11c t $d
0800d8dc t $d
0800dba0 t $d
0800dd60 t $d
0800de4c t $d
0800df48 t $d
0800e0f0 t $d
0800e2f4 t $d
0800e3a4 t $d
0800e574 t $d
0800e864 t $d
0800e8b8 t $d
0800f180 t $d
0800f78c t $d
0800fff8 t $d
080101f0 t $d
080102b0 t $d
080104b4 t $d
08010674 t $d
08010bfc t $d
08010e0c t $d
08010fd0 t $d
08011074 t $d
0801109c t $d
08011588 t $d
080116d8 t $d
080117f8 t $d
080118f8 t $d
08011fe8 t $d
08012070 t $d
08012408 t $d
08012848 t $d
080129a0 t $d
08077210 t $d
08077948 t $d
080129ec t $d
08078bb4 r $d
08078f44 r $d
08012a08 t $d
08078bc0 r $d
08078f4c r $d
08078134 t $d
08078f54 r $d
08012abc t $d
08078f5c r $d
08012b20 t $d
08078f5c r $d
08012ba0 t $d
08078f5c r $d
08012c0c t $d
08078f5c r $d
02023f48 b $d
02023f50 b $d
02024130 b $d
02024138 b $d
02020a2c d $d
08014870 t $d
080148b4 t $d
08014ffc t $d
02020a30 d $d
02020e58 d $d
08078170 t $d
08078174 t $d
080151d4 t $d
08015940 t $d
02020e5c d $d
02021264 d $d
020250ac b $d
020250b0 b $d
020250b4 b $d
020250b8 b $d
02021268 d $d
08015a6c t $d
0801653c t $d
02022478 d $d
08016bf0 t $d
08016cfc t $d
08016e2c t $d
08016ea0 t $d
08016f90 t $d
0801733c t $d
08017448 t $d
08017604 t $d
080184e0 t $d
0801a4cc t $d
08078178 t $d
08078188 t $d
080781cc t $d
0801bab0 t $d
0801bb50 t $d
0801bd18 t $d
0202126c d $d
0801c1b0 t $d
0801c31c t $d
0801c7c8 t $d
0801ca48 t $d
080781dc t $d
0801deac t $d
0801dec8 t $d
0801e050 t $d
0801e19c t $d
0801e1bc t $d
0801e1fc t $d
0801e218 t $d
0801e310 t $d
0801e5c4 t $d
0801e76c t $d
0801e878 t $d
0801ef54 t $d
0801f0a8 t $d
0801f3b0 t $d
0801f3c8 t $d
0801f3d8 t $d
0801f3e4 t $d
0801f3f4 t $d
0801f400 t $d
0801f438 t $d
02021270 d $d
020250e0 b $d
020250e4 b $d
020250e8 b $d
020250ec b $d
02021290 d $d
020212c8 d $d
020213a8 d $d
080781ec t $d
020250f0 b $d
020213c8 d $d
0807830c t $d
020213e8 d $d
020251d0 b $d
020252b8 b $d
0801f59c t $d
0801f8f8 t $d
0801fc18 t $d
0801fd28 t $d
08078328 t $d
08078370 t $d
020213ec d $d
0801ff9c t $d
080203a0 t $d
080206b8 t $d
080209a4 t $d
080783b8 t $d
080783c8 t $d
08078490 t $d
080784b8 t $d
08020b04 t $d
08020bac t $d
08020cf4 t $d
08020d74 t $d
08020ed4 t $d
080210a4 t $d
08021184 t $d
08021364 t $d
08021494 t $d
080215c4 t $d
08021638 t $d
08021728 t $d
08021ad4 t $d
08021be0 t $d
08021f38 t $d
08022e2c t $d
08024c2c t $d
080784e0 t $d
0807854c t $d
0807855c t $d
080781ac t $d
0807865c t $d
080786c8 t $d
08024dc4 t $d
08024eb8 t $d
020213f0 d $d
080786d8 t $d
080250c0 t $d
020213f4 d $d
02025398 b $d
08026194 t $d
08026228 t $d
08026298 t $d
08026338 t $d
080263b0 t $d
08026414 t $d
0202539c b $d
08026498 t $d
080264b8 t $d
020253a0 b $d
080264d8 t $d
080264f0 t $d
08026510 t $d
08026528 t $d
08026540 t $d
08026558 t $d
08026570 t $d
08026590 t $d
080265a8 t $d
080265c0 t $d
020253a8 b $d
0802660c t $d
0802663c t $d
080266a8 t $d
080266c8 t $d
0802675c t $d
08026838 t $d
020213f8 d $d
0802685c t $d
08026878 t $d
0802692c t $d
0802695c t $d
080269f4 t $d
08026a24 t $d
080787dc t $d
0202241c d $d
08078844 t $d
020224a8 d $d
02000018 d $d
08012c18 t $d
03004078 t $d
08012d58 t $d
03004080 t $d
080142b4 t $d
08014308 t $d
030045d4 t $d
080144e8 t $d
03004e0c t $d
080788a4 t $d
080788b0 t $d
080788bc t $d
080788cc t $d
080788d8 t $d
080788e4 t $d
080788f0 t $d
080788fc t $d
08078908 t $d
08078914 t $d
08078924 t $d
08078930 t $d
08078940 t $d
08078958 t $d
08078970 t $d
08078980 t $d
0807898c t $d
03003fb4 t $d
03003fc8 t $d
03003fd4 t $d
03003ff0 t $d
03004010 t $d
03004020 t $d
03004038 t $d
03004048 t $d
03004058 t $d
03004064 t $d
080207b8 T __d2b
08005f14 t d_append_char
08006698 t d_append_num
0800660c t d_append_string
02022460 D __data_end
08078f70 A __data_load
02000018 D __data_start
08010978 t d_bare_function_type
0800626c t d_call_offset
00000000 a dcnt_bg0_off
00000000 a dcnt_bg0_off
00000000 a dcnt_bg0_off
00000000 a dcnt_bg0_off
00000100 a dcnt_bg0_on
00000100 a dcnt_bg0_on
00000100 a dcnt_bg0_on
00000100 a dcnt_bg0_on
00000000 a dcnt_bg1_off
00000000 a dcnt_bg1_off
00000000 a dcnt_bg1_off
00000000 a dcnt_bg1_off
00000200 a dcnt_bg1_on
00000200 a dcnt_bg1_on
00000200 a dcnt_bg1_on
00000200 a dcnt_bg1_on
00000000 a dcnt_bg2_off
00000000 a dcnt_bg2_off
00000000 a dcnt_bg2_off
00000000 a dcnt_bg2_off
00000400 a dcnt_bg2_on
00000400 a dcnt_bg2_on
00000400 a dcnt_bg2_on
00000400 a dcnt_bg2_on
00000000 a dcnt_bg3_off
00000000 a dcnt_bg3_off
00000000 a dcnt_bg3_off
00000000 a dcnt_bg3_off
00000800 a dcnt_bg3_on
00000800 a dcnt_bg3_on
00000800 a dcnt_bg3_on
00000800 a dcnt_bg3_on
00000000 a dcnt_blank_off
00000000 a dcnt_blank_off
00000000 a dcnt_blank_off
00000000 a dcnt_blank_off
00000080 a dcnt_blank_on
00000080 a dcnt_blank_on
00000080 a dcnt_blank_on
00000080 a dcnt_blank_on
00000000 a dcnt_mode0
00000000 a dcnt_mode0
00000000 a dcnt_mode0
00000000 a dcnt_mode0
00000001 a dcnt_mode1
00000001 a dcnt_mode1
00000001 a dcnt_mode1
00000001 a dcnt_mode1
00000002 a dcnt_mode2
00000002 a dcnt_mode2
00000002 a dcnt_mode2
00000002 a dcnt_mode2
00000003 a dcnt_mode3
00000003 a dcnt_mode3
00000003 a dcnt_mode3
00000003 a dcnt_mode3
00000004 a dcnt_mode4
00000004 a dcnt_mode4
00000004 a dcnt_mode4
00000004 a dcnt_mode4
00000005 a dcnt_mode5
00000005 a dcnt_mode5
00000005 a dcnt_mode5
00000005 a dcnt_mode5
00000040 a dcnt_obj_1d
00000040 a dcnt_obj_1d
00000040 a dcnt_obj_1d
00000040 a dcnt_obj_1d
00000000 a dcnt_obj_2d
00000000 a dcnt_obj_2d
00000000 a dcnt_obj_2d
00000000 a dcnt_obj_2d
00000000 a dcnt_obj_off
00000000 a dcnt_obj_off
00000000 a dcnt_obj_off
00000000 a dcnt_obj_off
00001000 a dcnt_obj_on
00001000 a dcnt_obj_on
00001000 a dcnt_obj_on
00001000 a dcnt_obj_on
00000000 a dcnt_win0_off
00000000 a dcnt_win0_off
00000000 a dcnt_win0_off
00000000 a dcnt_win0_off
00002000 a dcnt_win0_on
00002000 a dcnt_win0_on
00002000 a dcnt_win0_on
00002000 a dcnt_win0_on
00000000 a dcnt_win1_off
00000000 a dcnt_win1_off
00000000 a dcnt_win1_off
00000000 a dcnt_win1_off
00004000 a dcnt_win1_on
00004000 a dcnt_win1_on
00004000 a dcnt_win1_on
00004000 a dcnt_win1_on
00000000 a dcnt_winobj_off
00000000 a dcnt_winobj_off
00000000 a dcnt_winobj_off
00000000 a dcnt_winobj_off
00008000 a dcnt_winobj_on
00008000 a dcnt_winobj_on
00008000 a dcnt_winobj_on
00008000 a dcnt_winobj_on
08006050 t d_compact_number
08005d5c t d_count_templates_scopes
08005978 t d_cv_qualifiers
0801241c t d_demangle_callback.constprop.16
08006134 t d_discriminator
02022840 B debug_arr_f24p8
020228c0 B debug_arr_f8p8
02022740 B debug_arr_s32
020227c0 B debug_arr_u32
0202241c d defaultDevice
020213c8 D __default_locale
08011590 t d_encoding
         w __deregister_frame_info
08000258 t deregister_tm_clones
02022420 D devoptab_list
08011e14 t d_expression_1
0800c428 t d_exprlist
0800a180 t d_expr_primary
08006394 t d_find_pack
080109e4 t d_function_type
08006534 t d_growable_string_callback_adapter
08025a30 T __divdf3
08025e9c T __divdi3
080251fc T __divsi3
08025204 t .divsi3_skip_div0_test
08027100 T div_table
0003fff8 a div_table_size
0800630c t d_lookup_template_argument.isra.6
02022908 B dma0cnt_mirror
08000ced T dma0_cpy
02022910 B dma1cnt_mirror
0202290c B dma2cnt_mirror
02022904 B dma3cnt_mirror
08000ca5 T dma3_cpy
03004005 t __dma3_cpy_veneer
08000d35 T dma3_fill
08005740 t d_make_comp
08005910 t d_make_name
08011078 t d_name
08005fec t d_number_component
08005f78 t d_number.isra.0
080002c0 t __do_global_dtors_aux
02022460 t __do_global_dtors_aux_fini_array_entry
08010a50 t d_operator_name
080787dc T dotab_stdnull
08010868 t d_parmlist
0800985c t d_print_array_type.isra.10
08009dd0 t d_print_cast.isra.12
08006740 t d_print_comp
08009fec t d_print_expr_op
08009ae4 t d_print_function_type.isra.11
08008db8 t d_print_mod
080094c0 t d_print_mod_list
0800a084 t d_print_subexpr
08005abc t d_ref_qualifier
0200001c D __dso_handle
08006170 t d_source_name
08005b28 t d_substitution
0800a2dc t d_template_args
080060ac t d_template_param
0801c500 T _dtoa_r
0800f13c t d_type
08010c00 t d_unqualified_name
080266cc T dup
08026760 T dup2
0800cb38 t d_vector_type
02022464 d __EH_FRAME_BEGIN__
020253e8 B end
020253e8 B __end__
020213f4 D environ
080250e0 T __env_lock
080250e4 T __env_unlock
08025c4c T __eqdf2
08026a28 T __errno
0801fa24 T __eucjp_mbtowc
0801bdd0 T __eucjp_wctomb
020224ac T ewram_code_ewram_start
080a0858 A ewram_code_rom_start
0000000c A ewram_code_size
02000000 T __ewram_start
020224ad T ewram_test_func
08078f5c R __exidx_end
08078bcc R __exidx_start
08014840 T exit
0802649c T _exit
080256ec T __extendsfdf2
020253a4 B fake_heap_end
020253a0 B fake_heap_start
08024fdc T fclose
08024ec0 T _fclose_r
0801de78 T fflush
0801dde0 T _fflush_r
0802687c T FindDevice
08024ff4 T _findenv_r
08078864 T _fini
         w __fini_array_end
         w __fini_array_start
08025d80 T __fixdfsi
08025740 T __floatdidf
080256c4 T __floatsidf
0802572c T __floatundidf
080256a0 T __floatunsidf
080264bc T __flockfile
08020aa0 T __fpclassifyd
0801decc t __fp_lock
0801e1e4 T __fp_lock_all
0801dee8 t __fp_unlock
0801e200 T __fp_unlock_all
08014968 T fputc
080148bc T _fputc_r
08014af4 T fputs
08014a04 T _fputs_r
08000304 t frame_dummy
02000000 t __frame_dummy_init_array_entry
020224a8 d __FRAME_END__
08015200 T free
080265c4 T __free_handle
0801e31c T _free_r
08020b0c T frexp
0802622c T _fstat_r
080264c0 T __funlockfile
0801e5d8 T _fwalk
0801e65c T _fwalk_reent
08015128 T fwrite
08015000 T _fwrite_r
080129a4 T __gcclibcxx_demangle_callback
08025c3c T __gedf2
08016bf8 t get_arg
08021390 t get_arg
08026a00 T GetDeviceOpTab
080026e8 t get_eit_entry
080250c4 T _getenv_r
080266b0 T __get_handle
0801e6e8 t __get_locale_env
0802629c T _getpid_r
08026840 T __getreent
08078174 T _global_impure_ptr
08000791 t _GLOBAL__sub_I_block_stuff_array
080024d1 t _GLOBAL__sub_I_test_level_sublevel_0
08000479 t _GLOBAL__sub_I__ZN12active_level16block_data_arrayE
08002411 t _GLOBAL__sub_I__ZN14sprite_manager10the_playerE
08003f58 T __gnu_end_cleanup
08025e18 T __gnu_ldivmod_helper
08025e5c T __gnu_uldivmod_helper
080028ac t __gnu_unwind_24bit.isra.1
08002d30 T __gnu_Unwind_Backtrace
080038e4 T __gnu_unwind_execute
         w __gnu_Unwind_Find_exidx
08002b44 T __gnu_Unwind_ForcedUnwind
08003ca8 T __gnu_unwind_frame
080026a8 t __gnu_unwind_get_pr_addr
08002dfc t __gnu_unwind_pr_common
08002a94 T __gnu_Unwind_RaiseException
080036bc T __gnu_Unwind_Restore_VFP
080036cc T __gnu_Unwind_Restore_VFP_D
080036dc T __gnu_Unwind_Restore_VFP_D_16_to_31
08003774 T __gnu_Unwind_Restore_WMMXC
080036ec T __gnu_Unwind_Restore_WMMXD
08002b68 T __gnu_Unwind_Resume
08002bdc T __gnu_Unwind_Resume_or_Rethrow
080036c4 T __gnu_Unwind_Save_VFP
080036d4 T __gnu_Unwind_Save_VFP_D
080036e4 T __gnu_Unwind_Save_VFP_D_16_to_31
08003788 T __gnu_Unwind_Save_WMMXC
08003730 T __gnu_Unwind_Save_WMMXD
08025c3c T __gtdf2
080049d4 T __gxx_personality_v0
0202141c d handles
         w hardware_init_hook
0202539c b heap_start.5558
0801ffa0 T __hi0bits
08020090 T __i2b
02020a30 d impure_data
02020e58 D _impure_ptr
00000000 a in_arm_mode
00000001 a in_arm_mode
00000001 a in_arm_mode
00000000 a in_arm_mode
0807884c T _init
02000014 T __init_array_end
08078f5c A __init_array_load
02000000 T __init_array_start
02025398 b initial_env
08016764 T _init_signal
08016540 T _init_signal_r
00000001 a in_thumb_mode
00000000 a in_thumb_mode
00000000 a in_thumb_mode
00000001 a in_thumb_mode
08000fe1 T irqEnable
0800103d T irqSet
080262ac T _isatty_r
02022918 B isr_table
         w _ITM_deregisterTMCloneTable
         w _ITM_registerTMCloneTable
08013f94 T IT_PitchTable
03000198 T iwram_code_iwram_start
0809b59c A iwram_code_rom_start
00003ee0 A iwram_code_size
03000198 D __iwram_data_end
0809b404 A __iwram_data_load
03000000 D __iwram_data_start
03000000 T __iwram_start
030019cc T iwram_test_func
030019d4 T iwram_test_func2
02000018 d __JCR_END__
02000018 d __JCR_LIST__
08078370 t JIS_action_table
0801fb74 T __jis_mbtowc
08078328 t JIS_state_table
0801bea4 T __jis_wctomb
         w _Jv_RegisterClasses
00000001 a key_a
00000001 a key_a
00000001 a key_a
00000001 a key_a
00000002 a key_b
00000002 a key_b
00000002 a key_b
00000002 a key_b
00000080 a key_down
00000080 a key_down
00000080 a key_down
00000080 a key_down
00000200 a key_l
00000200 a key_l
00000200 a key_l
00000200 a key_l
00000020 a key_left
00000020 a key_left
00000020 a key_left
00000020 a key_left
000003ff a key_mask
000003ff a key_mask
000003ff a key_mask
000003ff a key_mask
00000100 a key_r
00000100 a key_r
00000100 a key_r
00000100 a key_r
00000010 a key_right
00000010 a key_right
00000010 a key_right
00000010 a key_right
00000004 a key_select
00000004 a key_select
00000004 a key_select
00000004 a key_select
00000008 a key_start
00000008 a key_start
00000008 a key_start
00000008 a key_start
03000094 D __key_state
00000040 a key_up
00000040 a key_up
00000040 a key_up
00000040 a key_up
080262b4 T _kill_r
020213a8 d lc_ctype_charset
020250ec b lc_ctype_cjk_lang
02021270 d lc_message_charset
02021290 d lconv
08025c44 T __ledf2
08014874 T __libc_fini_array
08015164 T __libc_init_array
080264dc T __libc_lock_acquire
0802655c T __libc_lock_acquire_recursive
0802652c T __libc_lock_close
080265ac T __libc_lock_close_recursive
080264c4 T __libc_lock_init
08026544 T __libc_lock_init_recursive
08026514 T __libc_lock_release
08026594 T __libc_lock_release_recursive
080264f4 T __libc_lock_try_acquire
08026574 T __libc_lock_try_acquire_recursive
0801fffc T __lo0bits
0801e77c t loadlocale
0801f3c0 T __locale_charset
0801f3e8 T __locale_cjk_lang
0801f424 T localeconv
0801f3f8 T _localeconv_r
0801f3cc T __locale_mb_cur_max
0801f3dc T __locale_msgcharset
080262c4 T _lseek_r
080203a8 T __lshift
08025c44 T __ltdf2
030008c8 T lut_udiv
03003ffd t __lut_udiv_from_thumb
08001159 T main
08000360 T _mainCRTStartup
08078984 t __main_from_arm
080151e4 T malloc
02020e5c D __malloc_av_
020250b8 B __malloc_current_mallinfo
08078891 t __malloc_from_thumb
08015e34 T __malloc_lock
020250b0 B __malloc_max_sbrked_mem
020250ac B __malloc_max_total_mem
0801521c T _malloc_r
02021268 D __malloc_sbrk_base
020250b4 B __malloc_top_pad
0801e21c T _malloc_trim_r
02021264 D __malloc_trim_threshold
08015e38 T __malloc_unlock
03005454 T maxmod_code_iwram_end
03004078 T maxmod_code_iwram_start
0809f47c A maxmod_code_rom_start
000013dc A maxmod_code_size
020213e8 D __mb_cur_max
020213ec D __mbtowc
0801f8a8 T _mbtowc_r
080204a0 T __mcmp
08020504 T __mdiff
0801595c T memchr
08015a74 T memcmp
08015b24 T memcpy
03001620 T memcpy32
080788f5 t __memcpy32_from_thumb
03003ff5 t __memcpy32_from_thumb
030016a8 T memcpy8
080788e9 t __memcpy8_from_thumb
03001658 T memfill32
08078901 t __memfill32_from_thumb
03003fb9 t __memfill32_from_thumb
030016bc T memfill8
08015c14 T memmove
08015d40 T memset
020250e8 B __mlocale_changed
020249f0 B mm_achannels
08012ee9 T mmActive
08012eef T mmActiveSub
03004e0c T mmAllocChannel
02024ee4 B mm_bpmdv
02024938 B mmCallback
02024948 B mm_ch_mask
08014515 T mmEffect
0801468d T mmEffectCancel
0801470f T mmEffectCancelAll
0801452b T mmEffectEx
08014665 T mmEffectPanning
08014679 T mmEffectRate
080146c7 T mmEffectRelease
080146ed T mmEffectScaleRate
08014649 T mmEffectVolume
08012c83 T mmFrame
0300534c T mmGetPeriod
08012c29 T mmInit
080142b5 T mmInitDefault
02024950 B mmInitialized
08012ded T mmJingle
02024958 B mmLayerMain
02024990 B mmLayerSub
02024ec8 B mm_mixchannels
08014361 T mmMixerChannelActive
0801438f T mmMixerInit
0300465c T mmMixerMix
0801433b T mmMixerMulFreq
0801432b T mmMixerSetFreq
08014381 T mmMixerSetPan
0801431d T mmMixerSetRead
08014309 T mmMixerSetSource
08014373 T mmMixerSetVolume
0801434f T mmMixerStopChannel
02024ed0 B mm_mixlen
02024940 B mmModuleBank
0202493c B mmModuleCount
020249fc B mm_num_ach
020249f8 B mm_num_mch
08012ebd T mmPause
020249f4 B mm_pchannels
08012df3 T mmPlayModule
08012f41 T mmPosition
03004e80 T mmReadPattern
080144e9 T mmResetEffects
08012ed9 T mmResume
02024944 B mmSampleBank
02024a00 B mm_schannels
08014701 T mmSetEffectsVolume
08012c21 T mmSetEventHandler
08012f05 T mmSetJingleVolume
08012f8d T mmSetModulePitch
08012f5b T mmSetModuleTempo
08012ef5 T mmSetModuleVolume
08012c7d T mmSetVBlankHandler
020250a0 B mm_sfx_bitmask
020250a4 B mm_sfx_clearmask
08012dcd T mmStart
08012fcd T mmStop
03004f6c T mmUpdateChannel_T0
030051ac T mmUpdateChannel_TN
0801474f T mmUpdateEffects
030045d8 T mmVBlank
0202494c B mm_vblank_function
02024ee8 B mp_mix_seg
08012c1b T mpp_call_r1
0300407d T mpp_call_r1i
08012c1d T mpp_call_r2
0300407b T mpp_call_r2i
08012c1f T mpp_call_r3
08012c19 T mpp_call_r7
03004079 T mpp_call_r7i
03004165 T mpp_Channel_NewNote
020249dc B mpp_channels
020249ed B mpp_clayer
08013a23 t mpph_LinearPitchSlide_Down
08013a57 t mpph_LinearPitchSlide_Up
08013a19 t mpph_PitchSlide_Down
08013a4d t mpph_PitchSlide_Up
020249d8 B mpp_layerp
020249ec B mpp_nchannels
08013427 T mpp_Process_Effect
03004081 T mppProcessTick
080130f9 t mppProcessTick_incframe
080131ef T mpp_Process_VolumeCommand
08012fe9 t mpp_setbpm
0801317b t .mppt_exit
03004245 T mpp_Update_ACHN_notest
08013093 T mppUpdateSub
020249c8 B mpp_vars
08078490 T __mprec_bigtens
0802095c T _mprec_log10
080783c8 T __mprec_tens
080784b8 T __mprec_tinytens
02024954 B mp_solution
02024ec0 B mp_writepos
080257a0 T __muldf3
0801fddc T __multadd
080200b4 T __multiply
08025c4c T __nedf2
020250f0 b new_categories
08000100 T next
08003850 t next_unwind_byte
020250e4 B __nlocale_changed
030053ae T note_table_mod
03005390 T note_table_oct
02022950 B oam_mirror
020224bc b object.8118
0201d828 D obj_fade_blue_step_amount_arr
0201f028 D obj_fade_curr_blue_arr
0201f428 D obj_fade_curr_green_arr
0201f828 D obj_fade_curr_red_arr
0201dc28 D obj_fade_green_step_amount_arr
0201e028 D obj_fade_red_step_amount_arr
080783b8 t p05.5298
020250e0 B _PathLocale
080202a4 T __pow5mult
08067aa0 T practice_17_bin
0806a754 T practice_17_bin_end
0806a754 T practice_17_bin_size
         w __preinit_array_end
         w __preinit_array_start
08015f3c T putc
08015e3c T _putc_r
0801c324 t quorem
         U r1
         U r11
         U r14
         U r2
         U r4
0801672c T raise
08016600 T _raise_r
080208c4 T __ratio
0802633c T _read_r
08016040 T realloc
08016064 T _realloc_r
04000000 a reg_dispcnt
04000000 a reg_dispcnt
04000000 a reg_dispcnt
04000000 a reg_dispcnt
04000004 a reg_dispstat
04000004 a reg_dispstat
04000004 a reg_dispstat
04000004 a reg_dispstat
0801c0d8 T __register_exitproc
         w __register_frame_info
08000288 t register_tm_clones
04000132 a reg_keycnt
04000132 a reg_keycnt
04000132 a reg_keycnt
04000132 a reg_keycnt
04000130 a reg_keyinput
04000130 a reg_keyinput
04000130 a reg_keyinput
04000130 a reg_keyinput
04000006 a reg_vcount
04000006 a reg_vcount
04000006 a reg_vcount
04000006 a reg_vcount
08026610 T __release_handle
08026934 T RemoveDevice
080036a0 T __restore_core_regs
080036a0 T restore_core_regs
08002818 t restore_non_core_regs
0801feb8 T __s2b
020252b8 b saved_categories
080263b4 T _sbrk_r
08020c78 T __sclose
080025dc t search_EIT_table
080025c4 t selfrel_offset31
08020be8 T __seofread
08024ea8 T __set_ctype
08026864 T setDefaultDevice
0801f404 T setlocale
0801f0b8 T _setlocale_r
0801dba0 T __sflush_r
0801e064 T __sfmoreglue
0801e0b4 T __sfp
0801e1d4 T __sfp_lock_acquire
0801e1d8 T __sfp_lock_release
08014b14 T __sfvwrite_r
0806b758 T sherwin_gfxPal
0806a758 T sherwin_gfxTiles
08016744 T signal
080165a0 T _signal_r
08016774 T __sigtramp
08016698 T __sigtramp_r
0801e1c4 T __sinit
0801e1dc T __sinit_lock_acquire
0801e1e0 T __sinit_lock_release
0801df04 t __sinit.part.1
080670f8 T sin_table
00000400 a sin_table_size
0801f948 T __sjis_mbtowc
0801bd44 T __sjis_wctomb
0801f43c T __smakebuf_r
         w software_init_hook
080167f4 T sprintf
0801678c T _sprintf_r
03000158 D sprite_stuff_array
0e000080 D sram_init_str
0e000000 T __sram_start
08020bb4 T __sread
08020c48 T __sseek
08021bf0 T __ssprint_r
08013b74 T ST3_FREQTABLE
         w __stack
08077210 t standard_subs
08000360 T _start
08000000 T _start2
080784e0 T __state_table
02021410 d __stderr_handle
020213f8 d __stdin_handle
02021404 d __stdout_handle
08020c8c T strcasecmp
08020cf8 T strcat
08020d7c T strchr
0801685c T strcmp
08020edc T strcpy
08020fcc T strlcpy
08016a80 T strlen
08021014 T strncasecmp
08016ae0 T strncmp
080210a8 T strncpy
08021368 T strtol
0802118c T _strtol_r
0802538c T __subdf3
08021da0 T _svfiprintf_r
08017458 T _svfprintf_r
0801b9fc T __swbuf
0801b8d4 T __swbuf_r
08020bf0 T __swrite
0801bf84 T __swsetup_r
020253a8 B __syscalls
08000c9c t $t
080004e0 t $t
08000508 t $t
08000524 t $t
08000534 t $t
080005ec t $t
08000464 t $t
0800069c t $t
0800078c t $t
08000478 t $t
03000500 t $t
03000510 t $t
080009d4 t $t
080009d8 t $t
080009dc t $t
080009e0 t $t
080009e4 t $t
080009e8 t $t
080009ec t $t
080009f0 t $t
080009f4 t $t
080009f8 t $t
080009fc t $t
08000a00 t $t
08000a04 t $t
08000a08 t $t
08000a0c t $t
08000a10 t $t
08000a14 t $t
08000a18 t $t
08000a1c t $t
08000a20 t $t
08000a24 t $t
08000a28 t $t
08000a2c t $t
08000a30 t $t
08000a34 t $t
08000a38 t $t
08000a3c t $t
08000a40 t $t
08000a44 t $t
08000a48 t $t
08000a4c t $t
08000a50 t $t
08000a54 t $t
08000a58 t $t
08000a5c t $t
08000a60 t $t
08000a64 t $t
08000a68 t $t
08000a6c t $t
08000a70 t $t
08000a74 t $t
08000a78 t $t
08000a7c t $t
08000a80 t $t
08000a84 t $t
08000a88 t $t
08000a8c t $t
08000a90 t $t
08000a94 t $t
08000a98 t $t
08000a9c t $t
08000aa0 t $t
08000aa4 t $t
08000aa8 t $t
03000524 t $t
03000580 t $t
08000790 t $t
08000aac t $t
0300067c t $t
08000c14 t $t
030006b4 t $t
03000748 t $t
030007e8 t $t
03000878 t $t
08000ca4 t $t
08000cec t $t
08000d34 t $t
030008fc t $t
0300090c t $t
03000958 t $t
0300097c t $t
030009c8 t $t
030009ec t $t
03000a54 t $t
03000abc t $t
03000b24 t $t
03000b8c t $t
03000bf4 t $t
08000d74 t $t
03000ca0 t $t
08000d88 t $t
08000ec0 t $t
03000d58 t $t
030010c4 t $t
03001468 t $t
08000fdc t $t
0300160c t $t
08000fe0 t $t
0800103c t $t
080010f4 t $t
03001610 t $t
08001158 t $t
080011e0 t $t
080012cc t $t
08001350 t $t
080017b0 t $t
080017b4 t $t
080017b8 t $t
080017bc t $t
080017c4 t $t
080017c8 t $t
080017d0 t $t
08001490 t $t
030016cc t $t
03001708 t $t
03001758 t $t
030017c8 t $t
080015f8 t $t
08001664 t $t
030019c8 t $t
080017ac t $t
020224ac t $t
0800190c t $t
08001914 t $t
08001918 t $t
08001920 t $t
0800192c t $t
080017dc t $t
030032b8 t $t
0300337c t $t
08001930 t $t
0800198c t $t
03003380 t $t
03003400 t $t
030034a0 t $t
030034c4 t $t
030034e4 t $t
080019e8 t $t
08001a40 t $t
08001a90 t $t
08001adc t $t
0300356c t $t
030035dc t $t
08001af8 t $t
08001bac t $t
08001f5c t $t
080020f0 t $t
080021f8 t $t
08002338 t $t
080023a8 t $t
08002410 t $t
0800243c t $t
08002444 t $t
08002448 t $t
0800244c t $t
08002450 t $t
08002454 t $t
0800245c t $t
08002460 t $t
08002464 t $t
08002468 t $t
0800246c t $t
08002474 t $t
08002478 t $t
0800247c t $t
08002480 t $t
08002484 t $t
0800248c t $t
08002490 t $t
08002494 t $t
08002498 t $t
0800249c t $t
080024a4 t $t
080024a8 t $t
080024ac t $t
080024b0 t $t
080024b4 t $t
080024bc t $t
080024c0 t $t
080024c8 t $t
080024d0 t $t
08002598 t $t
0800259c t $t
080025a0 t $t
080025a4 t $t
080025a8 t $t
080025b0 t $t
03003b94 t $t
03003c10 t $t
03003c4c t $t
03003c78 t $t
03003cb8 t $t
03003cdc t $t
03003d00 t $t
03003d24 t $t
03003d48 t $t
03003d6c t $t
03003d90 t $t
03003df8 t $t
03003e60 t $t
03003ec8 t $t
03003f30 t $t
08025348 t $t
08078880 t $t
08078888 t $t
08078890 t $t
08078898 t $t
080788a8 t $t
080788b4 t $t
080788c0 t $t
080788d0 t $t
080788dc t $t
080788e8 t $t
080788f4 t $t
08078900 t $t
0807890c t $t
08078918 t $t
08078928 t $t
08078934 t $t
08078944 t $t
0807894c t $t
0807895c t $t
08078964 t $t
08078974 t $t
03003f98 t $t
03003fa0 t $t
03003fa8 t $t
03003fb8 t $t
03003fd8 t $t
03003fe0 t $t
03003ff4 t $t
03003ffc t $t
03004004 t $t
03004014 t $t
03004024 t $t
0300402c t $t
0300403c t $t
0300404c t $t
02022914 B test_int_global
02023e30 B test_level
0806bc28 T test_level_sublevel_0
0806df14 T test_level_sublevel_1
080700ac T test_level_sublevel_2
0e000000 D test_sram_arr
08000000 T __text_start
08075194 T the_block_gfxPal
08072194 T the_block_gfxTiles
0300017c D the_chocolate_muffin_sprite_stuff
080752b4 T the_door_gfxPal
080751b4 T the_door_gfxTiles
03000178 D the_door_sprite_stuff
03000184 D the_fire_muffin_sprite_stuff
080762d4 T the_golem_enemy_gfxPal
080752d4 T the_golem_enemy_gfxTiles
03000180 D the_ice_muffin_sprite_stuff
03000188 D the_muffin_sprite_stuff
03000190 D the_player_sprite_stuff
080765b4 T the_powerup_gfxPal
08076334 T the_powerup_gfxTiles
03000194 D the_sprite_base_stuff
0300018c D the_waffle_sprite_stuff
080769c4 T title_screenMap
08076c0c T title_screenPal
080765d4 T title_screenTiles
020224ac D __TMC_END__
08026014 T __udivdi3
080250e8 T __udivsi3
080250e8 t .udivsi3_skip_div0_test
08020658 T __ulp
0800382c T ___Unwind_Backtrace
0800382c T _Unwind_Backtrace
08002bf8 T _Unwind_Complete
080028b4 t _Unwind_DebugHook
08002898 t _Unwind_decode_typeinfo_ptr.isra.0
08002bfc T _Unwind_DeleteException
08003808 T ___Unwind_ForcedUnwind
08003808 T _Unwind_ForcedUnwind
08002a8c T _Unwind_GetCFA
08003d24 T _Unwind_GetDataRelBase
08002c70 t _Unwind_GetGR
080038b0 t _Unwind_GetGR.constprop.0
08003d04 T _Unwind_GetLanguageSpecificData
08003cf0 T _Unwind_GetRegionStart
08003d2c T _Unwind_GetTextRelBase
080028b8 t unwind_phase2
08002924 t unwind_phase2_forced
0800379c T ___Unwind_RaiseException
0800379c T _Unwind_RaiseException
080037c0 T ___Unwind_Resume
080037c0 T _Unwind_Resume
080037e4 T ___Unwind_Resume_or_Rethrow
080037e4 T _Unwind_Resume_or_Rethrow
08002cfc t _Unwind_SetGR
080038e0 t unwind_UCB_from_context
08002c14 T _Unwind_VRS_Get
08003268 T _Unwind_VRS_Pop
08002ca0 T _Unwind_VRS_Set
0801f5a4 T __utf8_mbtowc
0801bbb8 T __utf8_wctomb
0801bab4 T wcrtomb
0801ba1c T _wcrtomb_r
08024dc8 T wcsnrtombs
08024c34 T _wcsnrtombs_r
0801bb78 T wcsrtombs
0801bb54 T _wcsrtombs_r
0202126c D __wctomb
0801bccc T _wctomb_r
0801b8a8 T write
08026424 T _write_r
03000ca1 T _Z11vblank_funcv
08078965 t ___Z11vblank_funcv_veneer
08000d89 T _Z15reinit_the_gamev
03000879 T _Z16clear_debug_varsv
08078935 t ___Z16clear_debug_varsv_veneer
03000c75 T _Z16f24p8_div_by_u16RK9fixed24p8t
03000bf5 T _Z17f24p8_div_by_f8p8RK9fixed24p8RK8fixed8p8
03000d59 T _Z17fade_out_to_blackmm
08000ec1 T _Z17title_screen_funcv
030010d9 T _Z18fade_in_from_blackmm
08000aad T _Z20soft_reset_keys_downv
03000584 T _Z23coll_box_intersects_nowRK8coll_boxS1_
03003fa1 t ___Z23coll_box_intersects_nowRK8coll_boxS1__from_thumb
030005f4 T _Z25coll_box_intersects_now_2RK8coll_boxS1_
08000d75 T _Z26maxmod_vblank_updater_funcv
03000525 T _Z29update_block_graphics_in_vramPKt
08078919 t ___Z29update_block_graphics_in_vramPKt_veneer
030006b5 T _Z31generate_coll_point_group_16x16RK6spriteR16coll_point_group
03003fe8 t ___Z31generate_coll_point_group_16x16RK6spriteR16coll_point_group_from_arm
03000749 T _Z31generate_coll_point_group_16x32RK6spriteR16coll_point_group
03003fc0 t ___Z31generate_coll_point_group_16x32RK6spriteR16coll_point_group_from_arm
030007e9 T _Z31generate_coll_point_group_32x16RK6spriteR16coll_point_group
080010f5 T _Z8irq_initv
0300158c T _Z8isr_mainv
0300160d T _Z9irq_dummyv
08004048 T _ZdlPv
08078945 t ___ZdlPv_from_thumb
080786c8 t zeroes.7016
08078178 t zeroes.7037
02023f34 b _ZL10eh_globals
08004674 t _ZL12read_sleb128PKhPl
02024130 b _ZL14emergency_used
02023f48 b _ZL15dependents_used
02024138 b _ZL16emergency_buffer
02023f50 b _ZL17dependents_buffer
080048f4 t _ZL17parse_lsda_headerP15_Unwind_ContextPKhP16lsda_header_info
08067940 t _ZL19sram_const_init_str
08004868 t _ZL21base_of_encoded_valuehP15_Unwind_Context
0800521c t _ZL23__gxx_exception_cleanup19_Unwind_Reason_CodeP21_Unwind_Control_Block
080046b8 t _ZL28read_encoded_value_with_basehjPKhPj
080042c4 T _ZN10__cxxabiv111__terminateEPFvvE
0800430c T _ZN10__cxxabiv112__unexpectedEPFvvE
08004290 T _ZN10__cxxabiv115__forced_unwindD0Ev
0800428c T _ZN10__cxxabiv115__forced_unwindD1Ev
0800428c T _ZN10__cxxabiv115__forced_unwindD2Ev
0800509c T _ZN10__cxxabiv117__class_type_infoD0Ev
08005078 T _ZN10__cxxabiv117__class_type_infoD1Ev
08005078 T _ZN10__cxxabiv117__class_type_infoD2Ev
080042ac T _ZN10__cxxabiv119__foreign_exceptionD0Ev
080042a8 T _ZN10__cxxabiv119__foreign_exceptionD1Ev
080042a8 T _ZN10__cxxabiv119__foreign_exceptionD2Ev
02020a28 D _ZN10__cxxabiv119__terminate_handlerE
0800407c T _ZN10__cxxabiv120__si_class_type_infoD0Ev
08004058 T _ZN10__cxxabiv120__si_class_type_infoD1Ev
08004058 T _ZN10__cxxabiv120__si_class_type_infoD2Ev
02020a2c D _ZN10__cxxabiv120__unexpected_handlerE
08004404 t _ZN10__cxxabiv1L24__is_gxx_exception_classEPc
02000020 D _ZN12active_level16block_data_arrayE
020224e4 B _ZN12active_level18bg0_screenblock_2dE
03000000 D _ZN12active_level21the_current_level_ptrE
02015028 D _ZN12active_level22bg0_screenblock_mirrorE
020224f4 B _ZN12active_level25bg0_screenblock_mirror_2dE
08000465 T _ZN12active_level28get_the_current_sublevel_ptrEv
0300405c t ___ZN12active_level28get_the_current_sublevel_ptrEv_from_arm
0300404d t ___ZN12active_level28get_the_current_sublevel_ptrEv_veneer
020224d4 B _ZN12active_level28horiz_sublevel_block_data_2dE
02015828 D _ZN12active_level28persistent_block_data_arraysE
02010020 D _ZN12active_level31horiz_sublevel_sprite_ipg_listsE
03000004 D _ZN12active_level33the_current_active_sublevel_indexE
02023f40 b _ZN12_GLOBAL__N_113__new_handlerE
08000509 W _ZN12sa_free_listILm256EE3popEv
030000c4 D _ZN14sprite_manager10the_playerE
02022d50 B _ZN14sprite_manager11the_spritesE
03000154 D _ZN14sprite_manager14next_oam_indexE
08001af9 T _ZN14sprite_manager15init_the_playerERK4vec2I9fixed24p8ERKS0_ImERS0_IsE
03003944 T _ZN14sprite_manager18update_all_spritesERK4vec2ImER14prev_curr_pairIS0_IsEE
08078929 t ___ZN14sprite_manager18update_all_spritesERK4vec2ImER14prev_curr_pairIS0_IsEE_from_thumb
03003880 T _ZN14sprite_manager20spawn_a_sprite_basicE11sprite_typeRK4vec2I9fixed24p8ERKS1_IsEb
03003fd9 t ___ZN14sprite_manager20spawn_a_sprite_basicE11sprite_typeRK4vec2I9fixed24p8ERKS1_IsEb_from_thumb
080020f1 T _ZN14sprite_manager22some_sprite_init_thingEv
030035e0 T _ZN14sprite_manager23spawn_sprites_if_neededERK14prev_curr_pairI4vec2IsEE
0807890d t ___ZN14sprite_manager23spawn_sprites_if_neededERK14prev_curr_pairI4vec2IsEE_from_thumb
0300381c T _ZN14sprite_manager25despawn_sprites_if_neededERK14prev_curr_pairI4vec2IsEE
080788a9 t ___ZN14sprite_manager25despawn_sprites_if_neededERK14prev_curr_pairI4vec2IsEE_from_thumb
080021f9 T _ZN14sprite_manager35initial_sprite_spawning_shared_codeER4vec2IsE
08001bad T _ZN14sprite_manager36init_horiz_sublevel_sprite_ipg_listsEPK23sprite_init_param_groupm
0300402d t ___ZN14sprite_manager36init_horiz_sublevel_sprite_ipg_listsEPK23sprite_init_param_groupm_veneer
08002339 T _ZN14sprite_manager41initial_sprite_spawning_at_start_of_levelER4vec2IsE
080023a9 T _ZN14sprite_manager46initial_sprite_spawning_at_intra_sublevel_warpER4vec2IsEm
03003fa9 t ___ZN14sprite_manager46initial_sprite_spawning_at_intra_sublevel_warpER4vec2IsEm_veneer
03000505 T _ZN15air_block_stuff18get_palette_numberEv
03000501 T _ZN15air_block_stuff19get_metatile_numberEv
0300050d T _ZN15air_block_stuff21strongly_hit_responseER5blockRK4vec2IlE
03000509 T _ZN15air_block_stuff26get_metatile_graphics_slotEv
03000901 T _ZN15dud_block_stuff18get_palette_numberEv
030008fd T _ZN15dud_block_stuff19get_metatile_numberEv
03000909 T _ZN15dud_block_stuff21strongly_hit_responseER5blockRK4vec2IlE
03000905 T _ZN15dud_block_stuff26get_metatile_graphics_slotEv
03001615 T _ZN15log_block_stuff18get_palette_numberEv
03001611 T _ZN15log_block_stuff19get_metatile_numberEv
0300161d T _ZN15log_block_stuff21strongly_hit_responseER5blockRK4vec2IlE
03001619 T _ZN15log_block_stuff26get_metatile_graphics_slotEv
03000515 T _ZN16block_base_stuff18get_palette_numberEv
03000511 T _ZN16block_base_stuff19get_metatile_numberEv
0300051d T _ZN16block_base_stuff21strongly_hit_responseER5blockRK4vec2IlE
03000519 T _ZN16block_base_stuff26get_metatile_graphics_slotEv
03000521 T _ZN16block_base_stuff41finish_initializing_using_persistent_dataER5block
03000981 T _ZN16eyes_block_stuff18get_palette_numberEv
0300097d T _ZN16eyes_block_stuff19get_metatile_numberEv
03000989 T _ZN16eyes_block_stuff21strongly_hit_responseER5blockRK4vec2IlE
03000985 T _ZN16eyes_block_stuff26get_metatile_graphics_slotEv
030009c9 T _ZN16eyes_block_stuff41finish_initializing_using_persistent_dataER5block
03003c51 T _ZN16wood_block_stuff18get_palette_numberEv
03003c4d T _ZN16wood_block_stuff19get_metatile_numberEv
03003c59 T _ZN16wood_block_stuff21strongly_hit_responseER5blockRK4vec2IlE
03003c55 T _ZN16wood_block_stuff26get_metatile_graphics_slotEv
080024a9 W _ZN17door_sprite_stuff16get_gfx_categoryER6sprite
080024b1 W _ZN17door_sprite_stuff24get_num_active_gfx_tilesEv
08067508 T _ZN17door_sprite_stuff25the_initial_cb_pos_offsetE
08067510 T _ZN17door_sprite_stuff25the_initial_coll_box_sizeE
080024ad W _ZN17door_sprite_stuff27get_curr_relative_tile_slotER6sprite
0800069d W _ZN17sa_array_of_listsI23sprite_init_param_groupLm256ELm512EEC1Ev
0800069d W _ZN17sa_array_of_listsI23sprite_init_param_groupLm256ELm512EEC2Ev
080004e1 W _ZN17sa_array_of_listsI23sprite_init_param_groupLm256ELm512EED1Ev
080004e1 W _ZN17sa_array_of_listsI23sprite_init_param_groupLm256ELm512EED2Ev
030032b9 T _ZN17sprite_base_stuff10gfx_updateER6sprite
03002960 T _ZN17sprite_base_stuff13apply_gravityER6sprite
030032e9 T _ZN17sprite_base_stuff13update_part_1ER6sprite
03003325 T _ZN17sprite_base_stuff13update_part_2ER6spriteR4vec2IsERKS2_ImE
03003341 T _ZN17sprite_base_stuff13update_part_2ER6spriteRK4vec2IsERi
03003331 T _ZN17sprite_base_stuff16get_gfx_categoryER6sprite
03003329 T _ZN17sprite_base_stuff18get_curr_tile_slotER6sprite
0300333d T _ZN17sprite_base_stuff20handle_jumping_stuffER6spritemm
03003339 T _ZN17sprite_base_stuff21block_collision_stuffER6sprite
0806b83c T _ZN17sprite_base_stuff22the_initial_shape_sizeE
0800192d W _ZN17sprite_base_stuff24get_num_active_gfx_tilesEv
0806b780 T _ZN17sprite_base_stuff25the_initial_cb_pos_offsetE
0806b778 T _ZN17sprite_base_stuff25the_initial_coll_box_sizeE
03002978 T _ZN17sprite_base_stuff27block_collision_stuff_16x16ER6sprite
03002be0 T _ZN17sprite_base_stuff27block_collision_stuff_16x32ER6sprite
030032b0 T _ZN17sprite_base_stuff27block_collision_stuff_32x16ER6sprite
030032b4 T _ZN17sprite_base_stuff27block_collision_stuff_32x32ER6sprite
03003335 T _ZN17sprite_base_stuff27get_curr_relative_tile_slotER6sprite
0300224c T _ZN17sprite_base_stuff29block_coll_response_top_16x16ER6spriteRK17block_coll_resultS4_S4_
03002304 T _ZN17sprite_base_stuff29block_coll_response_top_16x32ER6spriteRK17block_coll_resultS4_S4_
0300222c T _ZN17sprite_base_stuff30block_coll_response_left_16x16ER6spriteRK17block_coll_resultS4_
030022e4 T _ZN17sprite_base_stuff30block_coll_response_left_16x32ER6spriteRK17block_coll_resultS4_S4_
03002278 T _ZN17sprite_base_stuff31block_coll_response_right_16x16ER6spriteRK17block_coll_resultS4_
03002330 T _ZN17sprite_base_stuff31block_coll_response_right_16x32ER6spriteRK17block_coll_resultS4_S4_
030022dc T _ZN17sprite_base_stuff35slope_block_coll_response_bot_16x16ER6spriteR16coll_point_groupR17block_coll_resultS5_S5_b
03002380 T _ZN17sprite_base_stuff35slope_block_coll_response_bot_16x32ER6spriteR16coll_point_groupR17block_coll_resultS5_S5_b
03001c8c T _ZN17sprite_base_stuff38get_basic_block_coll_results_bot_16x16ER16coll_point_groupR17block_coll_resultS3_S3_
0300210c T _ZN17sprite_base_stuff38get_basic_block_coll_results_bot_16x32ER16coll_point_groupR17block_coll_resultS3_S3_
03001aa8 T _ZN17sprite_base_stuff38get_basic_block_coll_results_top_16x16ER16coll_point_groupR17block_coll_resultS3_S3_
03001ecc T _ZN17sprite_base_stuff38get_basic_block_coll_results_top_16x32ER16coll_point_groupR17block_coll_resultS3_S3_
030019e4 T _ZN17sprite_base_stuff39get_basic_block_coll_results_left_16x16ER16coll_point_groupR17block_coll_resultS3_
03001dac T _ZN17sprite_base_stuff39get_basic_block_coll_results_left_16x32ER16coll_point_groupR17block_coll_resultS3_S3_
0300229c T _ZN17sprite_base_stuff39non_slope_block_coll_response_bot_16x16ER6spriteRK17block_coll_resultS4_S4_
03002354 T _ZN17sprite_base_stuff39non_slope_block_coll_response_bot_16x32ER6spriteRK17block_coll_resultS4_S4_
03001bc8 T _ZN17sprite_base_stuff40get_basic_block_coll_results_right_16x16ER16coll_point_groupR17block_coll_resultS3_
03001fec T _ZN17sprite_base_stuff40get_basic_block_coll_results_right_16x32ER16coll_point_groupR17block_coll_resultS3_S3_
080017dd T _ZN17sprite_base_stuff4initER6spriteb
080018ad T _ZN17sprite_base_stuff4initER6spriteRK4vec2I9fixed24p8ERKS2_ImERS2_IsEb
08001881 T _ZN17sprite_base_stuff4initER6spriteRK4vec2I9fixed24p8ERKS2_IsEb
03000911 T _ZN18exclam_block_stuff18get_palette_numberEv
0300090d T _ZN18exclam_block_stuff19get_metatile_numberEv
03000919 T _ZN18exclam_block_stuff21strongly_hit_responseER5blockRK4vec2IlE
03000915 T _ZN18exclam_block_stuff26get_metatile_graphics_slotEv
03000959 T _ZN18exclam_block_stuff41finish_initializing_using_persistent_dataER5block
02020828 D _ZN18sprite_gfx_manager14obj_pal_mirrorE
0300356d T _ZN18sprite_gfx_manager27upload_sprite_tiles_to_vramER6sprite
08001add T _ZN18sprite_gfx_manager34copy_obj_pal_mirror_to_obj_pal_ramEv
08001a41 T _ZN18sprite_gfx_manager45upload_default_sprite_palettes_to_obj_pal_ramEv
03004015 t ___ZN18sprite_gfx_manager45upload_default_sprite_palettes_to_obj_pal_ramEv_veneer
08001a91 T _ZN18sprite_gfx_manager48upload_default_sprite_palettes_to_obj_pal_mirrorEv
0300403d t ___ZN18sprite_gfx_manager48upload_default_sprite_palettes_to_obj_pal_mirrorEv_veneer
08002449 W _ZN19muffin_sprite_stuff16get_gfx_categoryER6sprite
08002451 W _ZN19muffin_sprite_stuff24get_num_active_gfx_tilesEv
0800244d W _ZN19muffin_sprite_stuff27get_curr_relative_tile_slotER6sprite
080014e9 T _ZN19player_sprite_stuff10gfx_updateER6sprite
030000c0 D _ZN19player_sprite_stuff10run_toggleE
08001665 T _ZN19player_sprite_stuff13update_part_1ER6sprite
030017cd T _ZN19player_sprite_stuff13update_part_2ER6spriteR4vec2IsERKS2_ImE
080017b5 W _ZN19player_sprite_stuff16get_gfx_categoryER6sprite
03001779 T _ZN19player_sprite_stuff20handle_jumping_stuffER6spritemm
030016cd T _ZN19player_sprite_stuff21block_collision_stuffER6sprite
080679c8 T _ZN19player_sprite_stuff23frame_slot_to_frame_arrE
080017b9 W _ZN19player_sprite_stuff24get_num_active_gfx_tilesEv
080679c0 T _ZN19player_sprite_stuff25the_initial_cb_pos_offsetE
080679b8 T _ZN19player_sprite_stuff25the_initial_coll_box_sizeE
08001525 T _ZN19player_sprite_stuff27get_curr_relative_tile_slotER6sprite
0300170d T _ZN19player_sprite_stuff29block_coll_response_top_16x16ER6spriteRK17block_coll_resultS4_S4_
0300175d T _ZN19player_sprite_stuff29block_coll_response_top_16x32ER6spriteRK17block_coll_resultS4_S4_
08067a90 T _ZN19player_sprite_stuff30the_relative_metatile_slot_arrE
08067a8c T _ZN19player_sprite_stuff35the_relative_metatile_slot_arr_sizeE
08001491 T _ZN19player_sprite_stuff4initER6spriteb
080015f9 T _ZN19player_sprite_stuff4initER6spriteRK4vec2I9fixed24p8ERKS2_ImERS2_IsEb
030000bc D _ZN19player_sprite_stuff5speedE
030000c1 D _ZN19player_sprite_stuff9use_16x16E
03003b95 T _ZN19waffle_sprite_stuff13update_part_1ER6sprite
0800259d W _ZN19waffle_sprite_stuff16get_gfx_categoryER6sprite
080025b1 W _ZN19waffle_sprite_stuff21block_collision_stuffER6sprite
080025a5 W _ZN19waffle_sprite_stuff24get_num_active_gfx_tilesEv
080025a1 W _ZN19waffle_sprite_stuff27get_curr_relative_tile_slotER6sprite
03003c15 T _ZN19waffle_sprite_stuff30block_coll_response_left_16x16ER6spriteRK17block_coll_resultS4_
03003c31 T _ZN19waffle_sprite_stuff31block_coll_response_right_16x16ER6spriteRK17block_coll_resultS4_
03000268 T _ZN20active_level_manager22horiz_sublevel_tile_atEmm
030002d8 T _ZN20active_level_manager25correct_bg0_scroll_mirrorERK4vec2ImE
080788b5 t ___ZN20active_level_manager25correct_bg0_scroll_mirrorERK4vec2ImE_from_thumb
03003fe1 t ___ZN20active_level_manager25correct_bg0_scroll_mirrorERK4vec2ImE_from_thumb
020226a8 B _ZN20active_level_manager26converted_block_tile_ids_0E
0202261c B _ZN20active_level_manager26converted_block_tile_ids_1E
02022590 B _ZN20active_level_manager26converted_block_tile_ids_2E
02022504 B _ZN20active_level_manager26converted_block_tile_ids_3E
03000198 T _ZN20active_level_manager28horiz_sublevel_tile_at_basicEmm
03000370 T _ZN20active_level_manager40update_sublevel_in_screenblock_mirror_2dEv
080788d1 t ___ZN20active_level_manager40update_sublevel_in_screenblock_mirror_2dEv_from_thumb
03004025 t ___ZN20active_level_manager40update_sublevel_in_screenblock_mirror_2dEv_from_thumb
030004cc T _ZN20active_level_manager42copy_sublevel_from_array_2d_helper_to_vramEv
080788dd t ___ZN20active_level_manager42copy_sublevel_from_array_2d_helper_to_vramEv_from_thumb
03003f99 t ___ZN20active_level_manager42copy_sublevel_from_array_2d_helper_to_vramEv_from_thumb
08002479 W _ZN23ice_muffin_sprite_stuff16get_gfx_categoryER6sprite
08002481 W _ZN23ice_muffin_sprite_stuff24get_num_active_gfx_tilesEv
0800247d W _ZN23ice_muffin_sprite_stuff27get_curr_relative_tile_slotER6sprite
08002461 W _ZN24fire_muffin_sprite_stuff16get_gfx_categoryER6sprite
08002469 W _ZN24fire_muffin_sprite_stuff24get_num_active_gfx_tilesEv
08002465 W _ZN24fire_muffin_sprite_stuff27get_curr_relative_tile_slotER6sprite
080009d9 W _ZN24grass_single_block_stuff18get_palette_numberEv
080009d5 W _ZN24grass_single_block_stuff19get_metatile_numberEv
080009dd W _ZN24grass_single_block_stuff26get_metatile_graphics_slotEv
080009e5 W _ZN26grass_top_left_block_stuff18get_palette_numberEv
080009e1 W _ZN26grass_top_left_block_stuff19get_metatile_numberEv
080009e9 W _ZN26grass_top_left_block_stuff26get_metatile_graphics_slotEv
080009fd W _ZN27grass_top_right_block_stuff18get_palette_numberEv
080009f9 W _ZN27grass_top_right_block_stuff19get_metatile_numberEv
08000a01 W _ZN27grass_top_right_block_stuff26get_metatile_graphics_slotEv
08000a2d W _ZN28dirt_bottom_left_block_stuff18get_palette_numberEv
08000a29 W _ZN28dirt_bottom_left_block_stuff19get_metatile_numberEv
08000a31 W _ZN28dirt_bottom_left_block_stuff26get_metatile_graphics_slotEv
08000a09 W _ZN28dirt_middle_left_block_stuff18get_palette_numberEv
08000a05 W _ZN28dirt_middle_left_block_stuff19get_metatile_numberEv
08000a0d W _ZN28dirt_middle_left_block_stuff26get_metatile_graphics_slotEv
08000535 W _ZN28externally_allocated_sa_listI23sprite_init_param_groupLm256EED0Ev
080005ed W _ZN28externally_allocated_sa_listI23sprite_init_param_groupLm256EED1Ev
080005ed W _ZN28externally_allocated_sa_listI23sprite_init_param_groupLm256EED2Ev
080009f1 W _ZN28grass_top_middle_block_stuff18get_palette_numberEv
080009ed W _ZN28grass_top_middle_block_stuff19get_metatile_numberEv
080009f5 W _ZN28grass_top_middle_block_stuff26get_metatile_graphics_slotEv
03003c79 T _ZN28wood_block_with_bt_dud_stuff21strongly_hit_responseER5blockRK4vec2IlE
03003cb9 T _ZN28wood_block_with_bt_dud_stuff41finish_initializing_using_persistent_dataER5block
08002491 W _ZN29chocolate_muffin_sprite_stuff16get_gfx_categoryER6sprite
08002499 W _ZN29chocolate_muffin_sprite_stuff24get_num_active_gfx_tilesEv
08002495 W _ZN29chocolate_muffin_sprite_stuff27get_curr_relative_tile_slotER6sprite
08000a45 W _ZN29dirt_bottom_right_block_stuff18get_palette_numberEv
08000a41 W _ZN29dirt_bottom_right_block_stuff19get_metatile_numberEv
08000a49 W _ZN29dirt_bottom_right_block_stuff26get_metatile_graphics_slotEv
08000a21 W _ZN29dirt_middle_right_block_stuff18get_palette_numberEv
08000a1d W _ZN29dirt_middle_right_block_stuff19get_metatile_numberEv
08000a25 W _ZN29dirt_middle_right_block_stuff26get_metatile_graphics_slotEv
08000a39 W _ZN30dirt_bottom_middle_block_stuff18get_palette_numberEv
08000a35 W _ZN30dirt_bottom_middle_block_stuff19get_metatile_numberEv
08000a3d W _ZN30dirt_bottom_middle_block_stuff26get_metatile_graphics_slotEv
08000a15 W _ZN30dirt_middle_middle_block_stuff18get_palette_numberEv
08000a11 W _ZN30dirt_middle_middle_block_stuff19get_metatile_numberEv
08000a19 W _ZN30dirt_middle_middle_block_stuff26get_metatile_graphics_slotEv
03000a55 T _ZN31eyes_block_with_st_muffin_stuff21strongly_hit_responseER5blockRK4vec2IlE
030009ed T _ZN31eyes_block_with_st_waffle_stuff21strongly_hit_responseER5blockRK4vec2IlE
08000a99 W _ZN31grass_in_slope_left_block_stuff18get_palette_numberEv
08000a95 W _ZN31grass_in_slope_left_block_stuff19get_metatile_numberEv
08000a9d W _ZN31grass_in_slope_left_block_stuff26get_metatile_graphics_slotEv
08067880 T _ZN31grass_slope_n16_p16_block_stuff11height_maskE
08000a5d W _ZN31grass_slope_n16_p16_block_stuff18get_palette_numberEv
08000a59 W _ZN31grass_slope_n16_p16_block_stuff19get_metatile_numberEv
08000a61 W _ZN31grass_slope_n16_p16_block_stuff26get_metatile_graphics_slotEv
080678c0 T _ZN31grass_slope_p16_p16_block_stuff11height_maskE
08000a51 W _ZN31grass_slope_p16_p16_block_stuff18get_palette_numberEv
08000a4d W _ZN31grass_slope_p16_p16_block_stuff19get_metatile_numberEv
08000a55 W _ZN31grass_slope_p16_p16_block_stuff26get_metatile_graphics_slotEv
03003df9 T _ZN31wood_block_with_st_muffin_stuff21strongly_hit_responseER5blockRK4vec2IlE
03003d01 T _ZN31wood_block_with_st_muffin_stuff41finish_initializing_using_persistent_dataER5block
03003d91 T _ZN31wood_block_with_st_waffle_stuff21strongly_hit_responseER5blockRK4vec2IlE
03003cdd T _ZN31wood_block_with_st_waffle_stuff41finish_initializing_using_persistent_dataER5block
08000aa5 W _ZN32grass_in_slope_right_block_stuff18get_palette_numberEv
08000aa1 W _ZN32grass_in_slope_right_block_stuff19get_metatile_numberEv
08000aa9 W _ZN32grass_in_slope_right_block_stuff26get_metatile_graphics_slotEv
03000b25 T _ZN35eyes_block_with_st_ice_muffin_stuff21strongly_hit_responseER5blockRK4vec2IlE
03003ec9 T _ZN35wood_block_with_st_ice_muffin_stuff21strongly_hit_responseER5blockRK4vec2IlE
03003d49 T _ZN35wood_block_with_st_ice_muffin_stuff41finish_initializing_using_persistent_dataER5block
03000abd T _ZN36eyes_block_with_st_fire_muffin_stuff21strongly_hit_responseER5blockRK4vec2IlE
080677c0 T _ZN36grass_slope_n32_p16_tall_block_stuff11height_maskE
08000a81 W _ZN36grass_slope_n32_p16_tall_block_stuff18get_palette_numberEv
08000a7d W _ZN36grass_slope_n32_p16_tall_block_stuff19get_metatile_numberEv
08000a85 W _ZN36grass_slope_n32_p16_tall_block_stuff26get_metatile_graphics_slotEv
08067800 T _ZN36grass_slope_p32_p16_tall_block_stuff11height_maskE
08000a75 W _ZN36grass_slope_p32_p16_tall_block_stuff18get_palette_numberEv
08000a71 W _ZN36grass_slope_p32_p16_tall_block_stuff19get_metatile_numberEv
08000a79 W _ZN36grass_slope_p32_p16_tall_block_stuff26get_metatile_graphics_slotEv
03003e61 T _ZN36wood_block_with_st_fire_muffin_stuff21strongly_hit_responseER5blockRK4vec2IlE
03003d25 T _ZN36wood_block_with_st_fire_muffin_stuff41finish_initializing_using_persistent_dataER5block
08067780 T _ZN37grass_slope_n32_p16_short_block_stuff11height_maskE
08000a8d W _ZN37grass_slope_n32_p16_short_block_stuff18get_palette_numberEv
08000a89 W _ZN37grass_slope_n32_p16_short_block_stuff19get_metatile_numberEv
08000a91 W _ZN37grass_slope_n32_p16_short_block_stuff26get_metatile_graphics_slotEv
08067840 T _ZN37grass_slope_p32_p16_short_block_stuff11height_maskE
08000a69 W _ZN37grass_slope_p32_p16_short_block_stuff18get_palette_numberEv
08000a65 W _ZN37grass_slope_p32_p16_short_block_stuff19get_metatile_numberEv
08000a6d W _ZN37grass_slope_p32_p16_short_block_stuff26get_metatile_graphics_slotEv
03000b8d T _ZN41eyes_block_with_st_chocolate_muffin_stuff21strongly_hit_responseER5blockRK4vec2IlE
03003f31 T _ZN41wood_block_with_st_chocolate_muffin_stuff21strongly_hit_responseER5blockRK4vec2IlE
03003d6d T _ZN41wood_block_with_st_chocolate_muffin_stuff41finish_initializing_using_persistent_dataER5block
03003401 T _ZN6sprite19camera_follow_basicER4vec2IsE
03003381 T _ZN6sprite20update_on_screen_posERK4vec2IsE
0807894d t ___ZN6sprite20update_on_screen_posERK4vec2IsE_veneer
030034c5 T _ZN6sprite21block_collision_stuffEv
08078975 t ___ZN6sprite21block_collision_stuffEv_veneer
0800198d T _ZN6sprite22reinit_with_sprite_ipgEmP23sprite_init_param_group
08001931 T _ZN6sprite22reinit_with_sprite_ipgEP23sprite_init_param_group
03003fcc t ___ZN6sprite22reinit_with_sprite_ipgEP23sprite_init_param_group_from_arm
080019e9 T _ZN6spriteC1Ev
080019e9 T _ZN6spriteC2Ev
08000c2d T _ZN8coll_box11get_cornersER4vec2I9fixed24p8ES3_S3_S3_
08000c15 T _ZN8coll_box15set_side_coordsE9fixed24p8S0_S0_S0_
08000c5d T _ZN8coll_box39get_block_coords_intersected_by_cornersER4vec2IlES2_S2_S2_
0300067d T _ZN8coll_box8containsERK4vec2I9fixed24p8E
08000525 W _ZN8sa_stackIiLm256EE3popEv
080053a4 T _ZN9__gnu_cxx27__verbose_terminate_handlerEv
080011e1 T _ZN9oam_entry14set_shape_sizeENS_10shape_sizeE
08001351 T _ZN9oam_entry24set_shape_size_with_vec2ERK4vec2ImE
080050f8 T _ZNK10__cxxabiv117__class_type_info10__do_catchEPKSt9type_infoPPvj
080050c8 T _ZNK10__cxxabiv117__class_type_info11__do_upcastEPKS0_PKvRNS0_15__upcast_resultE
08005000 T _ZNK10__cxxabiv117__class_type_info11__do_upcastEPKS0_PPv
08005144 T _ZNK10__cxxabiv117__class_type_info12__do_dyncastEiNS0_10__sub_kindEPKS0_PKvS3_S5_RNS0_16__dyncast_resultE
08005064 T _ZNK10__cxxabiv117__class_type_info20__do_find_public_srcEiPKvPKS0_S2_
080041f4 T _ZNK10__cxxabiv120__si_class_type_info11__do_upcastEPKNS_17__class_type_infoEPKvRNS1_15__upcast_resultE
08004114 T _ZNK10__cxxabiv120__si_class_type_info12__do_dyncastEiNS_17__class_type_info10__sub_kindEPKS1_PKvS4_S6_RNS1_16__dyncast_resultE
080040a8 T _ZNK10__cxxabiv120__si_class_type_info20__do_find_public_srcEiPKvPKNS_17__class_type_infoES2_
080024b5 W _ZNK17door_sprite_stuff12get_tile_arrEv
080024a5 W _ZNK17door_sprite_stuff15get_sprite_typeEv
080024bd W _ZNK17door_sprite_stuff26get_the_initial_shape_sizeEv
080024c9 W _ZNK17door_sprite_stuff29get_the_initial_cb_pos_offsetEv
080024c1 W _ZNK17door_sprite_stuff29get_the_initial_coll_box_sizeEv
0800190d W _ZNK17sprite_base_stuff12get_tile_arrEv
0800184d T _ZNK17sprite_base_stuff15get_sprite_typeEv
08001915 W _ZNK17sprite_base_stuff26get_the_initial_shape_sizeEv
08001921 W _ZNK17sprite_base_stuff29get_the_initial_cb_pos_offsetEv
08001919 W _ZNK17sprite_base_stuff29get_the_initial_coll_box_sizeEv
080018d9 T _ZNK17sprite_base_stuff32set_initial_shape_size_of_spriteER6sprite
08001851 T _ZNK17sprite_base_stuff36set_initial_coll_box_stuff_of_spriteER6sprite
08002455 W _ZNK19muffin_sprite_stuff12get_tile_arrEv
08002445 W _ZNK19muffin_sprite_stuff15get_sprite_typeEv
080017bd W _ZNK19player_sprite_stuff12get_tile_arrEv
080017b1 W _ZNK19player_sprite_stuff15get_sprite_typeEv
080017c5 W _ZNK19player_sprite_stuff26get_the_initial_shape_sizeEv
080017d1 W _ZNK19player_sprite_stuff29get_the_initial_cb_pos_offsetEv
080017c9 W _ZNK19player_sprite_stuff29get_the_initial_coll_box_sizeEv
080025a9 W _ZNK19waffle_sprite_stuff12get_tile_arrEv
08002599 W _ZNK19waffle_sprite_stuff15get_sprite_typeEv
08002485 W _ZNK23ice_muffin_sprite_stuff12get_tile_arrEv
08002475 W _ZNK23ice_muffin_sprite_stuff15get_sprite_typeEv
0800246d W _ZNK24fire_muffin_sprite_stuff12get_tile_arrEv
0800245d W _ZNK24fire_muffin_sprite_stuff15get_sprite_typeEv
0800249d W _ZNK29chocolate_muffin_sprite_stuff12get_tile_arrEv
0800248d W _ZNK29chocolate_muffin_sprite_stuff15get_sprite_typeEv
030034a1 T _ZNK6sprite20center_camera_almostER4vec2IsE
080788c1 t ___ZNK6sprite20center_camera_almostER4vec2IsE_veneer
030034e9 T _ZNK6sprite26get_shape_size_as_vec2_rawEv
08078899 t ___ZNK6sprite26get_shape_size_as_vec2_rawEv_veneer
080012cd T _ZNK9oam_entry14get_shape_sizeEv
080013fd T _ZNK9oam_entry22get_shape_size_as_vec2Ev
08004250 T _ZNKSt13bad_exception4whatEv
080051c0 T _ZNKSt9bad_alloc4whatEv
08004244 T _ZNKSt9exception4whatEv
08004400 T _ZNKSt9type_info10__do_catchEPKS_PPvj
08004394 T _ZNKSt9type_info11__do_upcastEPKN10__cxxabiv117__class_type_infoEPPv
08004384 T _ZNKSt9type_info14__is_pointer_pEv
0800438c T _ZNKSt9type_info15__is_function_pEv
080043b4 T _ZNKSt9type_infoeqERKS_
08004274 T _ZNSt13bad_exceptionD0Ev
08004240 T _ZNSt13bad_exceptionD1Ev
08004240 T _ZNSt13bad_exceptionD2Ev
080051f0 T _ZNSt9bad_allocD0Ev
080051cc T _ZNSt9bad_allocD1Ev
080051cc T _ZNSt9bad_allocD2Ev
0800425c T _ZNSt9exceptionD0Ev
0800423c T _ZNSt9exceptionD1Ev
0800423c T _ZNSt9exceptionD2Ev
0800439c T _ZNSt9type_infoD0Ev
08004380 T _ZNSt9type_infoD1Ev
08004380 T _ZNSt9type_infoD2Ev
080045d8 T _Znwj
08078889 t ___Znwj_from_thumb
0800431c T _ZSt10unexpectedv
08004348 T _ZSt13get_terminatev
08004330 T _ZSt13set_terminatePFvvE
08004370 T _ZSt14get_unexpectedv
08004358 T _ZSt14set_unexpectedPFvvE
08004664 T _ZSt15get_new_handlerv
0800464c T _ZSt15set_new_handlerPFvvE
08005724 T _ZSt18uncaught_exceptionv
080770d0 T _ZSt7nothrow
080042f8 T _ZSt9terminatev
08026a9c V _ZTI12sa_free_listILm256EE
08026b04 T _ZTI15air_block_stuff
0806752c T _ZTI15dud_block_stuff
08067914 T _ZTI15log_block_stuff
08026b44 T _ZTI16block_base_stuff
080675b4 T _ZTI16eyes_block_stuff
08076d04 T _ZTI16wood_block_stuff
0806b910 V _ZTI17door_sprite_stuff
0806b79c T _ZTI17sprite_base_stuff
08067570 T _ZTI18exclam_block_stuff
0806b870 V _ZTI19muffin_sprite_stuff
080679e8 T _ZTI19player_sprite_stuff
08076c48 T _ZTI19waffle_sprite_stuff
0806b8bc V _ZTI23ice_muffin_sprite_stuff
0806b894 V _ZTI24fire_muffin_sprite_stuff
08026b70 V _ZTI24grass_single_block_stuff
08026b98 V _ZTI26grass_top_left_block_stuff
08026bf0 V _ZTI27grass_top_right_block_stuff
08026ca4 V _ZTI28dirt_bottom_left_block_stuff
08026c1c V _ZTI28dirt_middle_left_block_stuff
08026a38 V _ZTI28externally_allocated_sa_listI23sprite_init_param_groupLm256EE
08026bc4 V _ZTI28grass_top_middle_block_stuff
08076d30 T _ZTI28wood_block_with_bt_dud_stuff
0806b8e4 V _ZTI29chocolate_muffin_sprite_stuff
08026d00 V _ZTI29dirt_bottom_right_block_stuff
08026c78 V _ZTI29dirt_middle_right_block_stuff
08026cd0 V _ZTI30dirt_bottom_middle_block_stuff
08026c48 V _ZTI30dirt_middle_middle_block_stuff
08067614 T _ZTI31eyes_block_with_st_muffin_stuff
080675e4 T _ZTI31eyes_block_with_st_waffle_stuff
08026e5c V _ZTI31grass_in_slope_left_block_stuff
08026d5c V _ZTI31grass_slope_n16_p16_block_stuff
08026d2c V _ZTI31grass_slope_p16_p16_block_stuff
08076d90 T _ZTI31wood_block_with_st_muffin_stuff
08076d60 T _ZTI31wood_block_with_st_waffle_stuff
08026e8c V _ZTI32grass_in_slope_right_block_stuff
0806767c T _ZTI35eyes_block_with_st_ice_muffin_stuff
08076df8 T _ZTI35wood_block_with_st_ice_muffin_stuff
08067648 T _ZTI36eyes_block_with_st_fire_muffin_stuff
08026df4 V _ZTI36grass_slope_n32_p16_tall_block_stuff
08026dc0 V _ZTI36grass_slope_p32_p16_tall_block_stuff
08076dc4 T _ZTI36wood_block_with_st_fire_muffin_stuff
08026e28 V _ZTI37grass_slope_n32_p16_short_block_stuff
08026d8c V _ZTI37grass_slope_p32_p16_short_block_stuff
080676b4 T _ZTI41eyes_block_with_st_chocolate_muffin_stuff
08076e30 T _ZTI41wood_block_with_st_chocolate_muffin_stuff
08026a80 V _ZTI8sa_stackIiLm256EE
08076fd8 T _ZTIN10__cxxabiv115__forced_unwindE
08077108 T _ZTIN10__cxxabiv117__class_type_infoE
08077030 T _ZTIN10__cxxabiv119__foreign_exceptionE
08076f50 T _ZTIN10__cxxabiv120__si_class_type_infoE
0807708c T _ZTISt13bad_exception
08077150 T _ZTISt9bad_alloc
08076fe0 T _ZTISt9exception
08077098 T _ZTISt9type_info
08026aa8 V _ZTS12sa_free_listILm256EE
08026af0 T _ZTS15air_block_stuff
08067518 T _ZTS15dud_block_stuff
08067900 T _ZTS15log_block_stuff
08026b30 T _ZTS16block_base_stuff
080675a0 T _ZTS16eyes_block_stuff
08076cf0 T _ZTS16wood_block_stuff
0806b91c V _ZTS17door_sprite_stuff
0806b788 T _ZTS17sprite_base_stuff
08067558 T _ZTS18exclam_block_stuff
0806b87c V _ZTS19muffin_sprite_stuff
080679d0 T _ZTS19player_sprite_stuff
08076c30 T _ZTS19waffle_sprite_stuff
0806b8c8 V _ZTS23ice_muffin_sprite_stuff
0806b8a0 V _ZTS24fire_muffin_sprite_stuff
08026b7c V _ZTS24grass_single_block_stuff
08026ba4 V _ZTS26grass_top_left_block_stuff
08026bfc V _ZTS27grass_top_right_block_stuff
08026cb0 V _ZTS28dirt_bottom_left_block_stuff
08026c28 V _ZTS28dirt_middle_left_block_stuff
08026a40 V _ZTS28externally_allocated_sa_listI23sprite_init_param_groupLm256EE
08026bd0 V _ZTS28grass_top_middle_block_stuff
08076d10 T _ZTS28wood_block_with_bt_dud_stuff
0806b8f0 V _ZTS29chocolate_muffin_sprite_stuff
08026d0c V _ZTS29dirt_bottom_right_block_stuff
08026c84 V _ZTS29dirt_middle_right_block_stuff
08026cdc V _ZTS30dirt_bottom_middle_block_stuff
08026c54 V _ZTS30dirt_middle_middle_block_stuff
080675f0 T _ZTS31eyes_block_with_st_muffin_stuff
080675c0 T _ZTS31eyes_block_with_st_waffle_stuff
08026e68 V _ZTS31grass_in_slope_left_block_stuff
08026d68 V _ZTS31grass_slope_n16_p16_block_stuff
08026d38 V _ZTS31grass_slope_p16_p16_block_stuff
08076d6c T _ZTS31wood_block_with_st_muffin_stuff
08076d3c T _ZTS31wood_block_with_st_waffle_stuff
08026e98 V _ZTS32grass_in_slope_right_block_stuff
08067654 T _ZTS35eyes_block_with_st_ice_muffin_stuff
08076dd0 T _ZTS35wood_block_with_st_ice_muffin_stuff
08067620 T _ZTS36eyes_block_with_st_fire_muffin_stuff
08026e00 V _ZTS36grass_slope_n32_p16_tall_block_stuff
08026dcc V _ZTS36grass_slope_p32_p16_tall_block_stuff
08076d9c T _ZTS36wood_block_with_st_fire_muffin_stuff
08026e34 V _ZTS37grass_slope_n32_p16_short_block_stuff
08026d98 V _ZTS37grass_slope_p32_p16_short_block_stuff
08067688 T _ZTS41eyes_block_with_st_chocolate_muffin_stuff
08076e04 T _ZTS41wood_block_with_st_chocolate_muffin_stuff
08026a88 V _ZTS8sa_stackIiLm256EE
08076fb8 T _ZTSN10__cxxabiv115__forced_unwindE
08077114 T _ZTSN10__cxxabiv117__class_type_infoE
08076fe8 T _ZTSN10__cxxabiv119__foreign_exceptionE
08076f5c T _ZTSN10__cxxabiv120__si_class_type_infoE
08077078 T _ZTSSt13bad_exception
0807716c T _ZTSSt9bad_alloc
08077068 T _ZTSSt9exception
080770a0 T _ZTSSt9type_info
08026ae0 V _ZTV12sa_free_listILm256EE
08026b10 T _ZTV15air_block_stuff
08067538 T _ZTV15dud_block_stuff
08067920 T _ZTV15log_block_stuff
08026b50 T _ZTV16block_base_stuff
080676c0 T _ZTV16eyes_block_stuff
08076e40 T _ZTV16wood_block_stuff
0806bb90 V _ZTV17door_sprite_stuff
0806b7a8 T _ZTV17sprite_base_stuff
08067580 T _ZTV18exclam_block_stuff
0806b930 V _ZTV19muffin_sprite_stuff
080679f8 T _ZTV19player_sprite_stuff
08076c58 T _ZTV19waffle_sprite_stuff
0806ba60 V _ZTV23ice_muffin_sprite_stuff
0806b9c8 V _ZTV24fire_muffin_sprite_stuff
08026ec0 V _ZTV24grass_single_block_stuff
08026ee0 V _ZTV26grass_top_left_block_stuff
08026f20 V _ZTV27grass_top_right_block_stuff
08026fa0 V _ZTV28dirt_bottom_left_block_stuff
08026f40 V _ZTV28dirt_middle_left_block_stuff
08026ac0 V _ZTV28externally_allocated_sa_listI23sprite_init_param_groupLm256EE
08026f00 V _ZTV28grass_top_middle_block_stuff
08076e60 T _ZTV28wood_block_with_bt_dud_stuff
0806baf8 V _ZTV29chocolate_muffin_sprite_stuff
08026fe0 V _ZTV29dirt_bottom_right_block_stuff
08026f80 V _ZTV29dirt_middle_right_block_stuff
08026fc0 V _ZTV30dirt_bottom_middle_block_stuff
08026f60 V _ZTV30dirt_middle_middle_block_stuff
08067700 T _ZTV31eyes_block_with_st_muffin_stuff
080676e0 T _ZTV31eyes_block_with_st_waffle_stuff
080270c0 V _ZTV31grass_in_slope_left_block_stuff
08027020 V _ZTV31grass_slope_n16_p16_block_stuff
08027000 V _ZTV31grass_slope_p16_p16_block_stuff
08076ea0 T _ZTV31wood_block_with_st_muffin_stuff
08076e80 T _ZTV31wood_block_with_st_waffle_stuff
080270e0 V _ZTV32grass_in_slope_right_block_stuff
08067740 T _ZTV35eyes_block_with_st_ice_muffin_stuff
08076ee0 T _ZTV35wood_block_with_st_ice_muffin_stuff
08067720 T _ZTV36eyes_block_with_st_fire_muffin_stuff
08027080 V _ZTV36grass_slope_n32_p16_tall_block_stuff
08027060 V _ZTV36grass_slope_p32_p16_tall_block_stuff
08076ec0 T _ZTV36wood_block_with_st_fire_muffin_stuff
080270a0 V _ZTV37grass_slope_n32_p16_short_block_stuff
08027040 V _ZTV37grass_slope_p32_p16_short_block_stuff
08067760 T _ZTV41eyes_block_with_st_chocolate_muffin_stuff
08076f00 T _ZTV41wood_block_with_st_chocolate_muffin_stuff
08026ad0 V _ZTV8sa_stackIiLm256EE
08076f88 T _ZTVN10__cxxabiv115__forced_unwindE
080770d8 T _ZTVN10__cxxabiv117__class_type_infoE
08076fa0 T _ZTVN10__cxxabiv119__foreign_exceptionE
08076f20 T _ZTVN10__cxxabiv120__si_class_type_infoE
08077050 T _ZTVSt13bad_exception
08077138 T _ZTVSt9bad_alloc
08077038 T _ZTVSt9exception
080770b0 T _ZTVSt9type_info
08067500 t _ZZ8dma0_cpyE14chunk_size_arr
080674f8 t _ZZ8dma3_cpyE14chunk_size_arr
02023f44 b _ZZN9__gnu_cxx27__verbose_terminate_handlerEvE11terminating
